 supersecret

 Timestamp is 68c0408d (Tue Sep  9 15:58:21 2025)

 Preferred load address is 0000000140000000

 Start         Length     Name                   Class
 0001:00000000 00001ba0H .text$di                CODE
 0001:00001ba0 001471b0H .text$mn                CODE
 0001:00148d50 00000040H .text$mn$00             CODE
 0001:00148d90 00000be0H .text$mn$21             CODE
 0001:00149970 00000cb0H .text$x                 CODE
 0001:0014a620 000041c8H .text$yd                CODE
 0002:00000000 000009c0H .idata$5                DATA
 0002:000009c0 00000038H .00cfg                  DATA
 0002:000009f8 00000008H .CRT$XCA                DATA
 0002:00000a00 00000008H .CRT$XCAA               DATA
 0002:00000a08 00000018H .CRT$XCC                DATA
 0002:00000a20 00000010H .CRT$XCL                DATA
 0002:00000a30 00000668H .CRT$XCU                DATA
 0002:00001098 00000008H .CRT$XCZ                DATA
 0002:000010a0 00000008H .CRT$XDA                DATA
 0002:000010a8 00000010H .CRT$XDU                DATA
 0002:000010b8 00000008H .CRT$XDZ                DATA
 0002:000010c0 00000008H .CRT$XIA                DATA
 0002:000010c8 00000008H .CRT$XIAA               DATA
 0002:000010d0 00000008H .CRT$XIAC               DATA
 0002:000010d8 00000030H .CRT$XIC                DATA
 0002:00001108 00000008H .CRT$XIZ                DATA
 0002:00001110 00000008H .CRT$XLA                DATA
 0002:00001118 00000008H .CRT$XLC                DATA
 0002:00001120 00000008H .CRT$XLZ                DATA
 0002:00001128 00000008H .CRT$XPA                DATA
 0002:00001130 00000010H .CRT$XPX                DATA
 0002:00001140 00000008H .CRT$XPXA               DATA
 0002:00001148 00000008H .CRT$XPZ                DATA
 0002:00001150 00000008H .CRT$XTA                DATA
 0002:00001158 00000008H .CRT$XTZ                DATA
 0002:00001160 00000000H .gehcont$y              DATA
 0002:00001160 00000000H .gfids$y                DATA
 0002:00001160 00000000H .giats$y                DATA
 0002:00001160 00058670H .rdata                  DATA
 0002:000597d0 000001b0H .rdata$00               DATA
 0002:00059980 00000000H .rdata$CastGuardVftablesA DATA
 0002:00059980 00000000H .rdata$CastGuardVftablesC DATA
 0002:00059980 00000028H .rdata$T                DATA
 0002:000599a8 00000d8cH .rdata$r                DATA
 0002:0005a734 00000360H .rdata$voltmd           DATA
 0002:0005aa94 0000051cH .rdata$zzzdbg           DATA
 0002:0005afb0 00000008H .rtc$IAA                DATA
 0002:0005afb8 00000008H .rtc$IZZ                DATA
 0002:0005afc0 00000008H .rtc$TAA                DATA
 0002:0005afc8 00000008H .rtc$TZZ                DATA
 0002:0005afd0 00000010H .tls                    DATA
 0002:0005afe0 000001fdH .tls$                   DATA
 0002:0005b1dd 00000003H .tls$ZZZ                DATA
 0002:0005b1e0 00010998H .xdata                  DATA
 0002:0006bb78 0000182cH .xdata$x                DATA
 0002:0006d3a4 00000000H .edata                  DATA
 0002:0006d3a4 000000a0H .idata$2                DATA
 0002:0006d444 00000014H .idata$3                DATA
 0002:0006d458 000009c0H .idata$4                DATA
 0002:0006de18 00001932H .idata$6                DATA
 0003:00000000 0000a260H .data                   DATA
 0003:0000a260 000009e0H .data$r                 DATA
 0003:0000ac40 000002b0H .data$rs                DATA
 0003:0000aef0 02c1c36cH .bss                    DATA
 0004:00000000 0000d914H .pdata                  DATA
 0005:00000000 00013410H _RDATA                  DATA
 0006:00000000 00000060H .rsrc$01                DATA
 0006:00000060 00000180H .rsrc$02                DATA

  Address         Publics by Value              Rva+Base               Lib:Object

 0000:00000000       __AbsoluteZero             0000000000000000     <absolute>
 0000:00000000       ___safe_se_handler_count   0000000000000000     <absolute>
 0000:00000000       ___safe_se_handler_table   0000000000000000     <absolute>
 0000:00000000       __arm64x_extra_rfe_table   0000000000000000     <absolute>
 0000:00000000       __arm64x_extra_rfe_table_size 0000000000000000     <absolute>
 0000:00000000       __arm64x_native_entrypoint 0000000000000000     <absolute>
 0000:00000000       __arm64x_redirection_metadata 0000000000000000     <absolute>
 0000:00000000       __arm64x_redirection_metadata_count 0000000000000000     <absolute>
 0000:00000000       __dynamic_value_reloc_table 0000000000000000     <absolute>
 0000:00000000       __enclave_config           0000000000000000     <absolute>
 0000:00000000       __guard_check_icall_a64n_fptr 0000000000000000     <absolute>
 0000:00000000       __guard_eh_cont_count      0000000000000000     <absolute>
 0000:00000000       __guard_eh_cont_table      0000000000000000     <absolute>
 0000:00000000       __guard_fids_count         0000000000000000     <absolute>
 0000:00000000       __guard_fids_table         0000000000000000     <absolute>
 0000:00000000       __guard_iat_count          0000000000000000     <absolute>
 0000:00000000       __guard_iat_table          0000000000000000     <absolute>
 0000:00000000       __guard_longjmp_count      0000000000000000     <absolute>
 0000:00000000       __guard_longjmp_table      0000000000000000     <absolute>
 0000:00000000       __hybrid_auxiliary_delayload_iat 0000000000000000     <absolute>
 0000:00000000       __hybrid_auxiliary_delayload_iat_copy 0000000000000000     <absolute>
 0000:00000000       __hybrid_auxiliary_iat     0000000000000000     <absolute>
 0000:00000000       __hybrid_auxiliary_iat_copy 0000000000000000     <absolute>
 0000:00000000       __hybrid_code_map          0000000000000000     <absolute>
 0000:00000000       __hybrid_code_map_count    0000000000000000     <absolute>
 0000:00000000       __hybrid_image_info_bitfield 0000000000000000     <absolute>
 0000:00000000       __x64_code_ranges_to_entry_points 0000000000000000     <absolute>
 0000:00000000       __x64_code_ranges_to_entry_points_count 0000000000000000     <absolute>
 0000:00000100       __guard_flags              0000000000000100     <absolute>
 0000:00000000       __ImageBase                0000000140000000     <linker-defined>
 0001:00001ba0       ??$?0PEAD$0A@@?$basic_string@DU?$char_traits@D@std@@V?$allocator@D@2@@std@@QEAA@PEAD0AEBV?$allocator@D@1@@Z 0000000140002ba0 f i Body.obj
 0001:00001ce0       ??$?HDU?$char_traits@D@std@@V?$allocator@D@1@@std@@YA?AV?$basic_string@DU?$char_traits@D@std@@V?$allocator@D@2@@0@QEBD$$QEAV10@@Z 0000000140002ce0 f i Body.obj
 0001:00001e10       ??$_Integral_to_string@DH@std@@YA?AV?$basic_string@DU?$char_traits@D@std@@V?$allocator@D@2@@0@H@Z 0000000140002e10 f i Body.obj
 0001:00001e10       ?to_string@std@@YA?AV?$basic_string@DU?$char_traits@D@std@@V?$allocator@D@2@@1@H@Z 0000000140002e10 f i Body.obj
 0001:00001ec0       ??$_Reallocate_grow_by@V<lambda_1>@?1??append@?$basic_string@DU?$char_traits@D@std@@V?$allocator@D@2@@std@@QEAAAEAV34@QEBD_K@Z@PEBD_K@?$basic_string@DU?$char_traits@D@std@@V?$allocator@D@2@@std@@AEAAAEAV01@_KV<lambda_1>@?1??append@01@QEAAAEAV01@QEBD0@Z@PEBD_K@Z 0000000140002ec0 f i Body.obj
 0001:00002050       ??$_Reallocate_grow_by@V<lambda_1>@?1??insert@?$basic_string@DU?$char_traits@D@std@@V?$allocator@D@2@@std@@QEAAAEAV34@_KQEBD0@Z@_KPEBD_K@?$basic_string@DU?$char_traits@D@std@@V?$allocator@D@2@@std@@AEAAAEAV01@_KV<lambda_1>@?1??insert@01@QEAAAEAV01@0QEBD0@Z@_KPEBD3@Z 0000000140003050 f i Body.obj
 0001:00002200       ??$_UIntegral_to_buff@DI@std@@YAPEADPEADI@Z 0000000140003200 f i Body.obj
 0001:00002240       ??$_UIntegral_to_string@DI@std@@YA?AV?$basic_string@DU?$char_traits@D@std@@V?$allocator@D@2@@0@I@Z 0000000140003240 f i Body.obj
 0001:000022a0       ??0?$basic_string@DU?$char_traits@D@std@@V?$allocator@D@2@@std@@QEAA@U_String_constructor_concat_tag@1@AEAV01@1@Z 00000001400032a0 f i Body.obj
 0001:000024a0       ??0?$basic_string@DU?$char_traits@D@std@@V?$allocator@D@2@@std@@QEAA@_KD@Z 00000001400034a0 f i Body.obj
 0001:000025d0       ??0bad_alloc@std@@QEAA@AEBV01@@Z 00000001400035d0 f i Body.obj
 0001:00002610       ??0bad_array_new_length@std@@QEAA@AEBV01@@Z 0000000140003610 f i Body.obj
 0001:00002650       ??0bad_array_new_length@std@@QEAA@XZ 0000000140003650 f i Body.obj
 0001:00002680       ??0exception@std@@QEAA@AEBV01@@Z 0000000140003680 f i Body.obj
 0001:000026c0       ??1?$basic_string@DU?$char_traits@D@std@@V?$allocator@D@2@@std@@QEAA@XZ 00000001400036c0 f i Body.obj
 0001:000026c0       ?_Tidy_deallocate@?$basic_string@DU?$char_traits@D@std@@V?$allocator@D@2@@std@@AEAAXXZ 00000001400036c0 f i Body.obj
 0001:00002720       ??1bad_alloc@std@@UEAA@XZ  0000000140003720 f i libcpmt:xthrow.obj
 0001:00002720       ??1bad_array_new_length@std@@UEAA@XZ 0000000140003720 f i Body.obj
 0001:00002720       ??1bad_cast@std@@UEAA@XZ   0000000140003720 f i Collider.obj
 0001:00002720       ??1bad_exception@std@@UEAA@XZ 0000000140003720 f i libvcruntime:frame.obj
 0001:00002720       ??1failure@ios_base@std@@UEAA@XZ 0000000140003720 f i Collider.obj
 0001:00002720       ??1format_error@std@@UEAA@XZ 0000000140003720 f i Zenith_DebugVariables.obj
 0001:00002720       ??1invalid_argument@std@@UEAA@XZ 0000000140003720 f i libcpmt:xthrow.obj
 0001:00002720       ??1length_error@std@@UEAA@XZ 0000000140003720 f i libcpmt:xthrow.obj
 0001:00002720       ??1out_of_range@std@@UEAA@XZ 0000000140003720 f i libcpmt:xthrow.obj
 0001:00002720       ??1runtime_error@std@@UEAA@XZ 0000000140003720 f i Zenith_DebugVariables.obj
 0001:00002720       ??1system_error@std@@UEAA@XZ 0000000140003720 f i Collider.obj
 0001:00002740       ??_Ebad_alloc@std@@UEAAPEAXI@Z 0000000140003740 f i Body.obj
 0001:00002740       ??_Ebad_array_new_length@std@@UEAAPEAXI@Z 0000000140003740 f i Body.obj
 0001:00002740       ??_Ebad_cast@std@@UEAAPEAXI@Z 0000000140003740 f i Collider.obj
 0001:00002740       ??_Ebad_exception@std@@UEAAPEAXI@Z 0000000140003740 f i libvcruntime:frame.obj
 0001:00002740       ??_Eexception@std@@UEAAPEAXI@Z 0000000140003740 f i Body.obj
 0001:00002740       ??_Eformat_error@std@@UEAAPEAXI@Z 0000000140003740 f i Zenith_DebugVariables.obj
 0001:00002740       ??_Einvalid_argument@std@@UEAAPEAXI@Z 0000000140003740 f i libcpmt:xthrow.obj
 0001:00002740       ??_Elength_error@std@@UEAAPEAXI@Z 0000000140003740 f i libcpmt:xthrow.obj
 0001:00002740       ??_Elogic_error@std@@UEAAPEAXI@Z 0000000140003740 f i libcpmt:xthrow.obj
 0001:00002740       ??_Eout_of_range@std@@UEAAPEAXI@Z 0000000140003740 f i libcpmt:xthrow.obj
 0001:00002740       ??_Eruntime_error@std@@UEAAPEAXI@Z 0000000140003740 f i Collider.obj
 0001:00002740       ??_Gbad_alloc@std@@UEAAPEAXI@Z 0000000140003740 f i Body.obj
 0001:00002740       ??_Gbad_array_new_length@std@@UEAAPEAXI@Z 0000000140003740 f i Body.obj
 0001:00002740       ??_Gbad_cast@std@@UEAAPEAXI@Z 0000000140003740 f i Collider.obj
 0001:00002740       ??_Gbad_exception@std@@UEAAPEAXI@Z 0000000140003740 f i libvcruntime:frame.obj
 0001:00002740       ??_Gexception@std@@UEAAPEAXI@Z 0000000140003740 f i Body.obj
 0001:00002740       ??_Gformat_error@std@@UEAAPEAXI@Z 0000000140003740 f i Zenith_DebugVariables.obj
 0001:00002740       ??_Ginvalid_argument@std@@UEAAPEAXI@Z 0000000140003740 f i libcpmt:xthrow.obj
 0001:00002740       ??_Glength_error@std@@UEAAPEAXI@Z 0000000140003740 f i libcpmt:xthrow.obj
 0001:00002740       ??_Glogic_error@std@@UEAAPEAXI@Z 0000000140003740 f i libcpmt:xthrow.obj
 0001:00002740       ??_Gout_of_range@std@@UEAAPEAXI@Z 0000000140003740 f i libcpmt:xthrow.obj
 0001:00002740       ??_Gruntime_error@std@@UEAAPEAXI@Z 0000000140003740 f i Collider.obj
 0001:00002790       ?_Deallocate_for_capacity@?$basic_string@DU?$char_traits@D@std@@V?$allocator@D@2@@std@@CAXAEAV?$allocator@D@2@QEAD_K@Z 0000000140003790 f i Body.obj
 0001:000027d0       ?_Throw_bad_array_new_length@std@@YAXXZ 00000001400037d0 f i Body.obj
 0001:000027f0       ?_Xlen_string@std@@YAXXZ   00000001400037f0 f i Body.obj
 0001:00002810       ?append@?$basic_string@DU?$char_traits@D@std@@V?$allocator@D@2@@std@@QEAAAEAV12@QEBD_K@Z 0000000140003810 f i Body.obj
 0001:000028a0       ?askForBroadPhaseCollisionCheck@Body@reactphysics3d@@IEBAXXZ 00000001400038a0 f   Body.obj
 0001:00002980       ?findEntry@?$Map@UEntity@reactphysics3d@@IU?$hash@UEntity@reactphysics3d@@@std@@U?$equal_to@UEntity@reactphysics3d@@@4@@reactphysics3d@@AEBA_KAEBUEntity@2@@Z 0000000140003980 f i Body.obj
 0001:00002a70       ?getCollider@Body@reactphysics3d@@QEBAPEBVCollider@2@I@Z 0000000140003a70 f   Body.obj
 0001:00002b00       ?getNbColliders@Body@reactphysics3d@@QEBAIXZ 0000000140003b00 f   Body.obj
 0001:00002b50       ?getTransform@Body@reactphysics3d@@QEBAAEBVTransform@2@XZ 0000000140003b50 f   Body.obj
 0001:00002ba0       ?isActive@Body@reactphysics3d@@QEBA_NXZ 0000000140003ba0 f   Body.obj
 0001:00002bf0       ?do_decimal_point@?$numpunct@D@std@@MEBADXZ 0000000140003bf0 f   Collider.obj
 0001:00002bf0       ?isDebugEnabled@Body@reactphysics3d@@QEBA_NXZ 0000000140003bf0 f   Body.obj
 0001:00002c00       ?removeAllColliders@Body@reactphysics3d@@IEAAXXZ 0000000140003c00 f   Body.obj
 0001:00002eb0       ?reserve@?$Array@I@reactphysics3d@@QEAAX_K@Z 0000000140003eb0 f i ConvexMesh.obj
 0001:00002eb0       ?reserve@?$Array@UEntity@reactphysics3d@@@reactphysics3d@@QEAAX_K@Z 0000000140003eb0 f i Body.obj
 0001:00002fc0       ?to_string@std@@YA?AV?$basic_string@DU?$char_traits@D@std@@V?$allocator@D@2@@1@M@Z 0000000140003fc0 f i Body.obj
 0001:00003040       ?what@exception@std@@UEBAPEBDXZ 0000000140004040 f i Body.obj
 0001:00003060       __local_stdio_printf_options 0000000140004060 f i Body.obj
 0001:00003070       _scprintf                  0000000140004070 f i Body.obj
 0001:000030d0       sprintf_s                  00000001400040d0 f i Body.obj
 0001:00003130       ?checkForDisabledOverlappingPairs@RigidBody@reactphysics3d@@IEAAXXZ 0000000140004130 f   RigidBody.obj
 0001:00003690       ?enableOverlappingPairs@RigidBody@reactphysics3d@@IEAAXXZ 0000000140004690 f   RigidBody.obj
 0001:00003ba0       ?find@?$Map@_K_KU?$hash@_K@std@@U?$equal_to@_K@2@@reactphysics3d@@QEBA?AVIterator@12@AEB_K@Z 0000000140004ba0 f i RigidBody.obj
 0001:00003d50       ?setIsSleeping@RigidBody@reactphysics3d@@QEAAX_N@Z 0000000140004d50 f   RigidBody.obj
 0001:000042a0       ??0?$Stack@H@reactphysics3d@@QEAA@AEAVMemoryAllocator@1@_K@Z 00000001400052a0 f i DynamicAABBTree.obj
 0001:000043d0       ??0DynamicAABBTree@reactphysics3d@@QEAA@AEAVMemoryAllocator@1@M@Z 00000001400053d0 f   DynamicAABBTree.obj
 0001:000043f0       ??1DynamicAABBTree@reactphysics3d@@QEAA@XZ 00000001400053f0 f   DynamicAABBTree.obj
 0001:00004410       ?allocate@?$Stack@H@reactphysics3d@@AEAAX_K@Z 0000000140005410 f i DynamicAABBTree.obj
 0001:00004410       ?allocate@?$Stack@UEntity@reactphysics3d@@@reactphysics3d@@AEAAX_K@Z 0000000140005410 f i PhysicsWorld.obj
 0001:00004520       ?allocateNode@DynamicAABBTree@reactphysics3d@@AEAAHXZ 0000000140005520 f   DynamicAABBTree.obj
 0001:000046b0       ?balanceSubTreeAtNode@DynamicAABBTree@reactphysics3d@@AEAAHH@Z 00000001400056b0 f   DynamicAABBTree.obj
 0001:00004db0       ?init@DynamicAABBTree@reactphysics3d@@AEAAXXZ 0000000140005db0 f   DynamicAABBTree.obj
 0001:00004ea0       ?insertLeafNode@DynamicAABBTree@reactphysics3d@@AEAAXH@Z 0000000140005ea0 f   DynamicAABBTree.obj
 0001:00005580       ?removeLeafNode@DynamicAABBTree@reactphysics3d@@AEAAXH@Z 0000000140006580 f   DynamicAABBTree.obj
 0001:00005770       ?reportAllShapesOverlappingWithShapes@DynamicAABBTree@reactphysics3d@@QEBAXAEBV?$Array@H@2@I_KAEAV?$Array@V?$Pair@HH@reactphysics3d@@@2@@Z 0000000140006770 f   DynamicAABBTree.obj
 0001:00005b70       ?updateObject@DynamicAABBTree@reactphysics3d@@QEAA_NHAEBVAABB@2@_N@Z 0000000140006b70 f   DynamicAABBTree.obj
 0001:00005cf0       ??$?6U?$char_traits@D@std@@@std@@YAAEAV?$basic_ostream@DU?$char_traits@D@std@@@0@AEAV10@PEBD@Z 0000000140006cf0 f i Collider.obj
 0001:00005fb0       ??$_Construct@$00PEBD@?$basic_string@DU?$char_traits@D@std@@V?$allocator@D@2@@std@@AEAAXQEBD_K@Z 0000000140006fb0 f i Collider.obj
 0001:000060d0       ??$_Fput_v3@$0A@@?$num_put@DV?$ostreambuf_iterator@DU?$char_traits@D@std@@@std@@@std@@AEBA?AV?$ostreambuf_iterator@DU?$char_traits@D@std@@@1@V21@AEAVios_base@1@DPEBD_K_N@Z 00000001400070d0 f i Collider.obj
 0001:00006780       ??$_Maklocstr@D@std@@YAPEADPEBDPEADAEBU_Cvtvec@@@Z 0000000140007780 f i Collider.obj
 0001:000067f0       ??$_Reallocate_grow_by@V<lambda_1>@?1??append@?$basic_string@DU?$char_traits@D@std@@V?$allocator@D@2@@std@@QEAAAEAV34@_KD@Z@_KD@?$basic_string@DU?$char_traits@D@std@@V?$allocator@D@2@@std@@AEAAAEAV01@_KV<lambda_1>@?1??append@01@QEAAAEAV01@0D@Z@_KD@Z 00000001400077f0 f i Collider.obj
 0001:00006980       ??$_Reallocate_grow_by@V<lambda_1>@?1??insert@?$basic_string@DU?$char_traits@D@std@@V?$allocator@D@2@@std@@QEAAAEAV34@_K0D@Z@_K_KD@?$basic_string@DU?$char_traits@D@std@@V?$allocator@D@2@@std@@AEAAAEAV01@_KV<lambda_1>@?1??insert@01@QEAAAEAV01@00D@Z@_K2D@Z 0000000140007980 f i Collider.obj
 0001:00006b40       ??$endl@DU?$char_traits@D@std@@@std@@YAAEAV?$basic_ostream@DU?$char_traits@D@std@@@0@AEAV10@@Z 0000000140007b40 f i Collider.obj
 0001:00006be0       ??$use_facet@V?$ctype@D@std@@@std@@YAAEBV?$ctype@D@0@AEBVlocale@0@@Z 0000000140007be0 f i Collider.obj
 0001:00006e50       ??$use_facet@V?$num_put@DV?$ostreambuf_iterator@DU?$char_traits@D@std@@@std@@@std@@@std@@YAAEBV?$num_put@DV?$ostreambuf_iterator@DU?$char_traits@D@std@@@std@@@0@AEBVlocale@0@@Z 0000000140007e50 f i Collider.obj
 0001:000070a0       ??$use_facet@V?$numpunct@D@std@@@std@@YAAEBV?$numpunct@D@0@AEBVlocale@0@@Z 00000001400080a0 f i Collider.obj
 0001:000071b0       ??0?$basic_streambuf@DU?$char_traits@D@std@@@std@@IEAA@XZ 00000001400081b0 f i Collider.obj
 0001:000072a0       ??0?$basic_string@DU?$char_traits@D@std@@V?$allocator@D@2@@std@@QEAA@AEBV01@@Z 00000001400082a0 f i Collider.obj
 0001:000073c0       ??0?$basic_stringstream@DU?$char_traits@D@std@@V?$allocator@D@2@@std@@QEAA@XZ 00000001400083c0 f i Collider.obj
 0001:00007530       ??0_System_error@std@@IEAA@Verror_code@1@AEBV?$basic_string@DU?$char_traits@D@std@@V?$allocator@D@2@@1@@Z 0000000140008530 f i Collider.obj
 0001:00007730       ??0_System_error@std@@QEAA@AEBV01@@Z 0000000140008730 f i Collider.obj
 0001:00007780       ??0bad_cast@std@@QEAA@AEBV01@@Z 0000000140008780 f i Collider.obj
 0001:000077c0       ??0bad_cast@std@@QEAA@XZ   00000001400087c0 f i Collider.obj
 0001:000077f0       ??0failure@ios_base@std@@QEAA@AEBV012@@Z 00000001400087f0 f i Collider.obj
 0001:00007850       ??0failure@ios_base@std@@QEAA@PEBDAEBVerror_code@2@@Z 0000000140008850 f i Collider.obj
 0001:00007910       ??0runtime_error@std@@QEAA@AEBV01@@Z 0000000140008910 f i Collider.obj
 0001:00007950       ??0sentry@?$basic_ostream@DU?$char_traits@D@std@@@std@@QEAA@AEAV12@@Z 0000000140008950 f i Collider.obj
 0001:000079e0       ??0system_error@std@@QEAA@AEBV01@@Z 00000001400089e0 f i Collider.obj
 0001:00007a40       ??1?$basic_stringbuf@DU?$char_traits@D@std@@V?$allocator@D@2@@std@@UEAA@XZ 0000000140008a40 f i Collider.obj
 0001:00007b70       ??6?$basic_ostream@DU?$char_traits@D@std@@@std@@QEAAAEAV01@M@Z 0000000140008b70 f i Collider.obj
 0001:00007d70       ??_D?$basic_stringstream@DU?$char_traits@D@std@@V?$allocator@D@2@@std@@QEAAXXZ 0000000140008d70 f i Collider.obj
 0001:00007e60       ??_E?$basic_iostream@DU?$char_traits@D@std@@@std@@$4PPPPPPPM@A@EAAPEAXI@Z 0000000140008e60 f i Collider.obj
 0001:00007e6c       ??_E?$basic_istream@DU?$char_traits@D@std@@@std@@$4PPPPPPPM@A@EAAPEAXI@Z 0000000140008e6c f i Collider.obj
 0001:00007e78       ??_E?$basic_ostream@DU?$char_traits@D@std@@@std@@$4PPPPPPPM@A@EAAPEAXI@Z 0000000140008e78 f i Collider.obj
 0001:00007e84       ??_E?$basic_stringstream@DU?$char_traits@D@std@@V?$allocator@D@2@@std@@$4PPPPPPPM@A@EAAPEAXI@Z 0000000140008e84 f i Collider.obj
 0001:00007e90       ??_E?$basic_ios@DU?$char_traits@D@std@@@std@@UEAAPEAXI@Z 0000000140008e90 f i Collider.obj
 0001:00007e90       ??_G?$basic_ios@DU?$char_traits@D@std@@@std@@UEAAPEAXI@Z 0000000140008e90 f i Collider.obj
 0001:00007ed0       ??_E?$basic_iostream@DU?$char_traits@D@std@@@std@@UEAAPEAXI@Z 0000000140008ed0 f i Collider.obj
 0001:00007ed0       ??_G?$basic_iostream@DU?$char_traits@D@std@@@std@@UEAAPEAXI@Z 0000000140008ed0 f i Collider.obj
 0001:00007f80       ??_E?$basic_istream@DU?$char_traits@D@std@@@std@@UEAAPEAXI@Z 0000000140008f80 f i Collider.obj
 0001:00007f80       ??_G?$basic_istream@DU?$char_traits@D@std@@@std@@UEAAPEAXI@Z 0000000140008f80 f i Collider.obj
 0001:00007ff0       ??_E?$basic_ostream@DU?$char_traits@D@std@@@std@@UEAAPEAXI@Z 0000000140008ff0 f i Collider.obj
 0001:00007ff0       ??_G?$basic_ostream@DU?$char_traits@D@std@@@std@@UEAAPEAXI@Z 0000000140008ff0 f i Collider.obj
 0001:00008060       ??_E?$basic_streambuf@DU?$char_traits@D@std@@@std@@UEAAPEAXI@Z 0000000140009060 f i Collider.obj
 0001:00008060       ??_G?$basic_streambuf@DU?$char_traits@D@std@@@std@@UEAAPEAXI@Z 0000000140009060 f i Collider.obj
 0001:000080e0       ??_E?$basic_stringbuf@DU?$char_traits@D@std@@V?$allocator@D@2@@std@@UEAAPEAXI@Z 00000001400090e0 f i Collider.obj
 0001:000080e0       ??_G?$basic_stringbuf@DU?$char_traits@D@std@@V?$allocator@D@2@@std@@UEAAPEAXI@Z 00000001400090e0 f i Collider.obj
 0001:00008120       ??_E?$basic_stringstream@DU?$char_traits@D@std@@V?$allocator@D@2@@std@@UEAAPEAXI@Z 0000000140009120 f i Collider.obj
 0001:00008120       ??_G?$basic_stringstream@DU?$char_traits@D@std@@V?$allocator@D@2@@std@@UEAAPEAXI@Z 0000000140009120 f i Collider.obj
 0001:00008160       ??_E?$ctype@D@std@@MEAAPEAXI@Z 0000000140009160 f i Collider.obj
 0001:00008160       ??_G?$ctype@D@std@@MEAAPEAXI@Z 0000000140009160 f i Collider.obj
 0001:000081d0       ??_E?$codecvt@DDU_Mbstatet@@@std@@MEAAPEAXI@Z 00000001400091d0 f i DefaultLogger.obj
 0001:000081d0       ??_E?$num_put@DV?$ostreambuf_iterator@DU?$char_traits@D@std@@@std@@@std@@MEAAPEAXI@Z 00000001400091d0 f i Collider.obj
 0001:000081d0       ??_G?$codecvt@DDU_Mbstatet@@@std@@MEAAPEAXI@Z 00000001400091d0 f i DefaultLogger.obj
 0001:000081d0       ??_G?$num_put@DV?$ostreambuf_iterator@DU?$char_traits@D@std@@@std@@@std@@MEAAPEAXI@Z 00000001400091d0 f i Collider.obj
 0001:00008200       ??_E?$numpunct@D@std@@MEAAPEAXI@Z 0000000140009200 f i Collider.obj
 0001:00008200       ??_G?$numpunct@D@std@@MEAAPEAXI@Z 0000000140009200 f i Collider.obj
 0001:00008260       ??_E_Facet_base@std@@UEAAPEAXI@Z 0000000140009260 f i Collider.obj
 0001:00008260       ??_G_Facet_base@std@@UEAAPEAXI@Z 0000000140009260 f i Collider.obj
 0001:00008290       ??_EErrorCategoryImpl@vk@@UEAAPEAXI@Z 0000000140009290 f i Zenith_DebugVariables.obj
 0001:00008290       ??_E_Generic_error_category@std@@UEAAPEAXI@Z 0000000140009290 f i zenithtools:Zenith_Tools_MeshExport.obj
 0001:00008290       ??_E_Iostream_error_category2@std@@UEAAPEAXI@Z 0000000140009290 f i Collider.obj
 0001:00008290       ??_E_System_error_category@std@@UEAAPEAXI@Z 0000000140009290 f i zenithtools:Zenith_Tools_MeshExport.obj
 0001:00008290       ??_GErrorCategoryImpl@vk@@UEAAPEAXI@Z 0000000140009290 f i Zenith_DebugVariables.obj
 0001:00008290       ??_G_Generic_error_category@std@@UEAAPEAXI@Z 0000000140009290 f i zenithtools:Zenith_Tools_MeshExport.obj
 0001:00008290       ??_G_Iostream_error_category2@std@@UEAAPEAXI@Z 0000000140009290 f i Collider.obj
 0001:00008290       ??_G_System_error_category@std@@UEAAPEAXI@Z 0000000140009290 f i zenithtools:Zenith_Tools_MeshExport.obj
 0001:000082c0       ??_E_System_error@std@@UEAAPEAXI@Z 00000001400092c0 f i Collider.obj
 0001:000082c0       ??_Efailure@ios_base@std@@UEAAPEAXI@Z 00000001400092c0 f i Collider.obj
 0001:000082c0       ??_Esystem_error@std@@UEAAPEAXI@Z 00000001400092c0 f i Collider.obj
 0001:000082c0       ??_G_System_error@std@@UEAAPEAXI@Z 00000001400092c0 f i Collider.obj
 0001:000082c0       ??_Gfailure@ios_base@std@@UEAAPEAXI@Z 00000001400092c0 f i Collider.obj
 0001:000082c0       ??_Gsystem_error@std@@UEAAPEAXI@Z 00000001400092c0 f i Collider.obj
 0001:00008310       ??_Eios_base@std@@UEAAPEAXI@Z 0000000140009310 f i Collider.obj
 0001:00008310       ??_Gios_base@std@@UEAAPEAXI@Z 0000000140009310 f i Collider.obj
 0001:00008350       ?_Decref@facet@locale@std@@UEAAPEAV_Facet_base@3@XZ 0000000140009350 f i Collider.obj
 0001:00008360       ?_Getcat@?$numpunct@D@std@@SA_KPEAPEBVfacet@locale@2@PEBV42@@Z 0000000140009360 f i Collider.obj
 0001:000085a0       ?_Incref@facet@locale@std@@UEAAXXZ 00000001400095a0 f i Collider.obj
 0001:000085b0       ?_Iput@?$num_put@DV?$ostreambuf_iterator@DU?$char_traits@D@std@@@std@@@std@@AEBA?AV?$ostreambuf_iterator@DU?$char_traits@D@std@@@2@V32@AEAVios_base@2@DPEAD_K@Z 00000001400095b0 f i Collider.obj
 0001:00008be0       ??1VoronoiSimplex@reactphysics3d@@QEAA@XZ 0000000140009be0 f i VoronoiSimplex.obj
 0001:00008be0       ?DebugLogAllAllocations@VmaBlockMetadata_Linear@@UEBAXXZ 0000000140009be0 f i Zenith_Vulkan_MemoryManager.obj
 0001:00008be0       ?DebugLogAllAllocations@VmaBlockMetadata_TLSF@@UEBAXXZ 0000000140009be0 f i Zenith_Vulkan_MemoryManager.obj
 0001:00008be0       ?EndFrame@Zenith_MemoryManagement@@SAXXZ 0000000140009be0 f i Zenith_MemoryManagement.obj
 0001:00008be0       ?ImGui_ImplGlfw_MonitorCallback@@YAXPEAUGLFWmonitor@@H@Z 0000000140009be0 f i zenithtools:imgui_impl_glfw.obj
 0001:00008be0       ?MouseButtonPressedCallback@Zenith_Input@@SAXH@Z 0000000140009be0 f i Zenith_Input.obj
 0001:00008be0       ?OnCreate@CameraController_Behaviour@@UEAAXXZ 0000000140009be0 f i CameraController_Behaviour.obj
 0001:00008be0       ?OnCreate@PlayerController_Behaviour@@UEAAXXZ 0000000140009be0 f i PlayerController_Behaviour.obj
 0001:00008be0       ?_Lock@?$basic_streambuf@DU?$char_traits@D@std@@@std@@UEAAXXZ 0000000140009be0 f i Collider.obj
 0001:00008be0       ?_Unlock@?$basic_streambuf@DU?$char_traits@D@std@@@std@@UEAAXXZ 0000000140009be0 f i Collider.obj
 0001:00008be0       ?destroyComponent@Components@reactphysics3d@@MEAAXI@Z 0000000140009be0 f i Components.obj
 0001:00008be0       ?imbue@?$basic_streambuf@DU?$char_traits@D@std@@@std@@MEAAXAEBVlocale@2@@Z 0000000140009be0 f i Collider.obj
 0001:00008be0       ?onContact@PhysicsEventListener@Zenith_Physics@@UEAAXAEBVCallbackData@CollisionCallback@reactphysics3d@@@Z 0000000140009be0 f i Zenith_Physics.obj
 0001:00008be0       ?onTrigger@EventListener@reactphysics3d@@UEAAXAEBVCallbackData@OverlapCallback@2@@Z 0000000140009be0 f i DebugRenderer.obj
 0001:00008be0       __sanitizer_annotate_contiguous_container 0000000140009be0 f i libcpmt:asan_noop.obj
 0001:00008be0       __sanitizer_annotate_contiguous_container_default 0000000140009be0 f i libcpmt:asan_noop.obj
 0001:00008be0       _guard_check_icall_nop     0000000140009be0 f i LIBCMT:guard_support.obj
 0001:00008be0       _initialize_denormal_control 0000000140009be0 f i LIBCMT:denormal_control.obj
 0001:00008be0       _initialize_invalid_parameter_handler 0000000140009be0 f i LIBCMT:invalid_parameter_handler.obj
 0001:00008bf0       ?_Osfx@?$basic_ostream@DU?$char_traits@D@std@@@std@@QEAAXXZ 0000000140009bf0 f i Collider.obj
 0001:00008ca0       ?_Rep@?$num_put@DV?$ostreambuf_iterator@DU?$char_traits@D@std@@@std@@@std@@AEBA?AV?$ostreambuf_iterator@DU?$char_traits@D@std@@@2@V32@D_K@Z 0000000140009ca0 f i Collider.obj
 0001:00008d50       ?_Throw_bad_cast@std@@YAXXZ 0000000140009d50 f i Collider.obj
 0001:00008d70       ?_Xran@?$_String_val@U?$_Simple_types@D@std@@@std@@SAXXZ 0000000140009d70 f i Collider.obj
 0001:00008d70       ?_Xran@?$_String_val@U?$_Simple_types@_W@std@@@std@@SAXXZ 0000000140009d70 f i zenithtools:Zenith_Tools_MeshExport.obj
 0001:00008d90       ?assign@?$basic_string@DU?$char_traits@D@std@@V?$allocator@D@2@@std@@QEAAAEAV12@QEBD_K@Z 0000000140009d90 f i Collider.obj
 0001:00008f00       ?clear@ios_base@std@@QEAAXH@Z 0000000140009f00 f i Collider.obj
 0001:00008f80       ?deallocate@?$allocator@D@std@@QEAAXQEAD_K@Z 0000000140009f80 f i Collider.obj
 0001:00008fc0       ?default_error_condition@error_category@std@@UEBA?AVerror_condition@2@H@Z 0000000140009fc0 f i Collider.obj
 0001:00008fd0       ?do_falsename@?$numpunct@D@std@@MEBA?AV?$basic_string@DU?$char_traits@D@std@@V?$allocator@D@2@@2@XZ 0000000140009fd0 f i Collider.obj
 0001:00009010       ?do_grouping@?$numpunct@D@std@@MEBA?AV?$basic_string@DU?$char_traits@D@std@@V?$allocator@D@2@@2@XZ 000000014000a010 f i Collider.obj
 0001:00009050       ?do_narrow@?$ctype@D@std@@MEBADDD@Z 000000014000a050 f i Collider.obj
 0001:00009050       ?do_widen@?$ctype@D@std@@MEBADD@Z 000000014000a050 f i Collider.obj
 0001:00009060       ?do_narrow@?$ctype@D@std@@MEBAPEBDPEBD0DPEAD@Z 000000014000a060 f i Collider.obj
 0001:00009080       ?do_put@?$num_put@DV?$ostreambuf_iterator@DU?$char_traits@D@std@@@std@@@std@@MEBA?AV?$ostreambuf_iterator@DU?$char_traits@D@std@@@2@V32@AEAVios_base@2@DJ@Z 000000014000a080 f i Collider.obj
 0001:00009190       ?do_put@?$num_put@DV?$ostreambuf_iterator@DU?$char_traits@D@std@@@std@@@std@@MEBA?AV?$ostreambuf_iterator@DU?$char_traits@D@std@@@2@V32@AEAVios_base@2@DK@Z 000000014000a190 f i Collider.obj
 0001:000092a0       ?do_put@?$num_put@DV?$ostreambuf_iterator@DU?$char_traits@D@std@@@std@@@std@@MEBA?AV?$ostreambuf_iterator@DU?$char_traits@D@std@@@2@V32@AEAVios_base@2@DN@Z 000000014000a2a0 f i Collider.obj
 0001:000095b0       ?do_put@?$num_put@DV?$ostreambuf_iterator@DU?$char_traits@D@std@@@std@@@std@@MEBA?AV?$ostreambuf_iterator@DU?$char_traits@D@std@@@2@V32@AEAVios_base@2@DO@Z 000000014000a5b0 f i Collider.obj
 0001:000098c0       ?do_put@?$num_put@DV?$ostreambuf_iterator@DU?$char_traits@D@std@@@std@@@std@@MEBA?AV?$ostreambuf_iterator@DU?$char_traits@D@std@@@2@V32@AEAVios_base@2@DPEBX@Z 000000014000a8c0 f i Collider.obj
 0001:00009960       ?do_put@?$num_put@DV?$ostreambuf_iterator@DU?$char_traits@D@std@@@std@@@std@@MEBA?AV?$ostreambuf_iterator@DU?$char_traits@D@std@@@2@V32@AEAVios_base@2@D_J@Z 000000014000a960 f i Collider.obj
 0001:00009a80       ?do_put@?$num_put@DV?$ostreambuf_iterator@DU?$char_traits@D@std@@@std@@@std@@MEBA?AV?$ostreambuf_iterator@DU?$char_traits@D@std@@@2@V32@AEAVios_base@2@D_K@Z 000000014000aa80 f i Collider.obj
 0001:00009ba0       ?do_put@?$num_put@DV?$ostreambuf_iterator@DU?$char_traits@D@std@@@std@@@std@@MEBA?AV?$ostreambuf_iterator@DU?$char_traits@D@std@@@2@V32@AEAVios_base@2@D_N@Z 000000014000aba0 f i Collider.obj
 0001:00009e80       ?do_thousands_sep@?$numpunct@D@std@@MEBADXZ 000000014000ae80 f i Collider.obj
 0001:00009e90       ?do_tolower@?$ctype@D@std@@MEBADD@Z 000000014000ae90 f i Collider.obj
 0001:00009ea0       ?do_tolower@?$ctype@D@std@@MEBAPEBDPEADPEBD@Z 000000014000aea0 f i Collider.obj
 0001:00009ef0       ?do_toupper@?$ctype@D@std@@MEBADD@Z 000000014000aef0 f i Collider.obj
 0001:00009f00       ?do_toupper@?$ctype@D@std@@MEBAPEBDPEADPEBD@Z 000000014000af00 f i Collider.obj
 0001:00009f50       ?do_truename@?$numpunct@D@std@@MEBA?AV?$basic_string@DU?$char_traits@D@std@@V?$allocator@D@2@@2@XZ 000000014000af50 f i Collider.obj
 0001:00009f90       ?do_widen@?$ctype@D@std@@MEBAPEBDPEBD0PEAD@Z 000000014000af90 f i Collider.obj
 0001:00009fb0       ?equivalent@error_category@std@@UEBA_NAEBVerror_code@2@H@Z 000000014000afb0 f i Collider.obj
 0001:00009fd0       ?equivalent@error_category@std@@UEBA_NHAEBVerror_condition@2@@Z 000000014000afd0 f i Collider.obj
 0001:0000a010       ?flush@?$basic_ostream@DU?$char_traits@D@std@@@std@@QEAAAEAV12@XZ 000000014000b010 f i Collider.obj
 0001:0000a150       ?getBroadPhaseId@Collider@reactphysics3d@@QEBAHXZ 000000014000b150 f   Collider.obj
 0001:0000a1a0       ?getCollisionShape@Collider@reactphysics3d@@QEAAPEAVCollisionShape@2@XZ 000000014000b1a0 f   Collider.obj
 0001:0000a1a0       ?getCollisionShape@Collider@reactphysics3d@@QEBAPEBVCollisionShape@2@XZ 000000014000b1a0 f   Collider.obj
 0001:0000a1f0       ?getLocalToWorldTransform@Collider@reactphysics3d@@QEBA?BVTransform@2@XZ 000000014000b1f0 f   Collider.obj
 0001:0000a270       ?getWorldAABB@Collider@reactphysics3d@@QEBA?BVAABB@2@XZ 000000014000b270 f   Collider.obj
 0001:0000a340       ?init@?$basic_ios@DU?$char_traits@D@std@@@std@@IEAAXPEAV?$basic_streambuf@DU?$char_traits@D@std@@@2@_N@Z 000000014000b340 f i Collider.obj
 0001:0000a4b0       ?make_error_code@std@@YA?AVerror_code@1@W4io_errc@1@@Z 000000014000b4b0 f i Collider.obj
 0001:0000a4d0       ?message@_Iostream_error_category2@std@@UEBA?AV?$basic_string@DU?$char_traits@D@std@@V?$allocator@D@2@@2@H@Z 000000014000b4d0 f i Collider.obj
 0001:0000a580       ?name@_Iostream_error_category2@std@@UEBAPEBDXZ 000000014000b580 f i Collider.obj
 0001:0000a590       ?overflow@?$basic_streambuf@DU?$char_traits@D@std@@@std@@MEAAHH@Z 000000014000b590 f i Collider.obj
 0001:0000a590       ?pbackfail@?$basic_streambuf@DU?$char_traits@D@std@@@std@@MEAAHH@Z 000000014000b590 f i Collider.obj
 0001:0000a590       ?underflow@?$basic_streambuf@DU?$char_traits@D@std@@@std@@MEAAHXZ 000000014000b590 f i Collider.obj
 0001:0000a5a0       ?overflow@?$basic_stringbuf@DU?$char_traits@D@std@@V?$allocator@D@2@@std@@MEAAHH@Z 000000014000b5a0 f i Collider.obj
 0001:0000a790       ?pbackfail@?$basic_stringbuf@DU?$char_traits@D@std@@V?$allocator@D@2@@std@@MEAAHH@Z 000000014000b790 f i Collider.obj
 0001:0000a7f0       ?put@?$basic_ostream@DU?$char_traits@D@std@@@std@@QEAAAEAV12@D@Z 000000014000b7f0 f i Collider.obj
 0001:0000a990       ?seekoff@?$basic_streambuf@DU?$char_traits@D@std@@@std@@MEAA?AV?$fpos@U_Mbstatet@@@2@_JHH@Z 000000014000b990 f i Collider.obj
 0001:0000a990       ?seekpos@?$basic_streambuf@DU?$char_traits@D@std@@@std@@MEAA?AV?$fpos@U_Mbstatet@@@2@V32@H@Z 000000014000b990 f i Collider.obj
 0001:0000a9b0       ?seekoff@?$basic_stringbuf@DU?$char_traits@D@std@@V?$allocator@D@2@@std@@MEAA?AV?$fpos@U_Mbstatet@@@2@_JHH@Z 000000014000b9b0 f i Collider.obj
 0001:0000ab40       ?seekpos@?$basic_stringbuf@DU?$char_traits@D@std@@V?$allocator@D@2@@std@@MEAA?AV?$fpos@U_Mbstatet@@@2@V32@H@Z 000000014000bb40 f i Collider.obj
 0001:0000ac70       ?setbuf@?$basic_streambuf@DU?$char_traits@D@std@@@std@@MEAAPEAV12@PEAD_J@Z 000000014000bc70 f i Collider.obj
 0001:0000ac80       ?CheckCorruption@VmaBlockMetadata_Linear@@UEAA?AW4VkResult@@PEBX@Z 000000014000bc80 f i Zenith_Vulkan_MemoryManager.obj
 0001:0000ac80       ?CheckCorruption@VmaBlockMetadata_TLSF@@UEAA?AW4VkResult@@PEBX@Z 000000014000bc80 f i Zenith_Vulkan_MemoryManager.obj
 0001:0000ac80       ?GetAllocationListBegin@VmaBlockMetadata_Linear@@UEBAPEAUVmaAllocHandle_T@@XZ 000000014000bc80 f i Zenith_Vulkan_MemoryManager.obj
 0001:0000ac80       ?GetNextAllocation@VmaBlockMetadata_Linear@@UEBAPEAUVmaAllocHandle_T@@PEAU2@@Z 000000014000bc80 f i Zenith_Vulkan_MemoryManager.obj
 0001:0000ac80       ?GetNextFreeRegionSize@VmaBlockMetadata_Linear@@UEBA_KPEAUVmaAllocHandle_T@@@Z 000000014000bc80 f i Zenith_Vulkan_MemoryManager.obj
 0001:0000ac80       ?_Get_deleter@_Ref_count_base@std@@UEBAPEAXAEBVtype_info@@@Z 000000014000bc80 f i zenithtools:Zenith_Tools_MeshExport.obj
 0001:0000ac80       ?showmanyc@?$basic_streambuf@DU?$char_traits@D@std@@@std@@MEAA_JXZ 000000014000bc80 f i Collider.obj
 0001:0000ac80       ?sync@?$basic_streambuf@DU?$char_traits@D@std@@@std@@MEAAHXZ 000000014000bc80 f i Collider.obj
 0001:0000ac80       __scrt_exe_initialize_mta  000000014000bc80 f i LIBCMT:utility_desktop.obj
 0001:0000ac80       __scrt_initialize_winrt    000000014000bc80 f i LIBCMT:utility_desktop.obj
 0001:0000ac80       __scrt_stub_for_initialize_mta 000000014000bc80 f i LIBCMT:utility_desktop.obj
 0001:0000ac80       _get_startup_commit_mode   000000014000bc80 f i LIBCMT:commit_mode.obj
 0001:0000ac80       _get_startup_new_mode      000000014000bc80 f i LIBCMT:new_mode.obj
 0001:0000ac80       _get_startup_thread_locale_mode 000000014000bc80 f i LIBCMT:thread_locale.obj
 0001:0000ac80       _matherr                   000000014000bc80 f i LIBCMT:matherr.obj
 0001:0000ac90       ?uflow@?$basic_streambuf@DU?$char_traits@D@std@@@std@@MEAAHXZ 000000014000bc90 f i Collider.obj
 0001:0000acd0       ?underflow@?$basic_stringbuf@DU?$char_traits@D@std@@V?$allocator@D@2@@std@@MEAAHXZ 000000014000bcd0 f i Collider.obj
 0001:0000ad40       ?xsgetn@?$basic_streambuf@DU?$char_traits@D@std@@@std@@MEAA_JPEAD_J@Z 000000014000bd40 f i Collider.obj
 0001:0000ae00       ?xsputn@?$basic_streambuf@DU?$char_traits@D@std@@@std@@MEAA_JPEBD_J@Z 000000014000be00 f i Collider.obj
 0001:0000aec0       ??0CallbackData@CollisionCallback@reactphysics3d@@AEAA@PEAV?$Array@UContactPair@reactphysics3d@@@2@PEAV?$Array@VContactManifold@reactphysics3d@@@2@PEAV?$Array@VContactPoint@reactphysics3d@@@2@AEAV32@AEAVPhysicsWorld@2@@Z 000000014000bec0 f   CollisionCallback.obj
 0001:0000b050       ?getCollider1@ContactPair@CollisionCallback@reactphysics3d@@QEBAPEAVCollider@3@XZ 000000014000c050 f   CollisionCallback.obj
 0001:0000b0a0       ?getContactPair@CallbackData@CollisionCallback@reactphysics3d@@QEBA?AVContactPair@23@_K@Z 000000014000c0a0 f   CollisionCallback.obj
 0001:0000b110       ?getContactPoint@ContactPair@CollisionCallback@reactphysics3d@@QEBA?AVContactPoint@23@I@Z 000000014000c110 f   CollisionCallback.obj
 0001:0000b140       ?getEventType@ContactPair@CollisionCallback@reactphysics3d@@QEBA?AW4EventType@123@XZ 000000014000c140 f   CollisionCallback.obj
 0001:0000b160       ?reserve@?$Array@UVertex@HalfEdgeStructure@reactphysics3d@@@reactphysics3d@@QEAAX_K@Z 000000014000c160 f i ConvexMesh.obj
 0001:0000b160       ?reserve@?$Array@V?$Pair@II@reactphysics3d@@@reactphysics3d@@QEAAX_K@Z 000000014000c160 f i HalfEdgeStructure.obj
 0001:0000b160       ?reserve@?$Array@_K@reactphysics3d@@QEAAX_K@Z 000000014000c160 f i CollisionCallback.obj
 0001:0000b270       ??0ContactManifold@reactphysics3d@@QEAA@UEntity@1@000IE@Z 000000014000c270 f   ContactManifold.obj
 0001:0000b2b0       ??0?$Array@I@reactphysics3d@@QEAA@AEBV01@@Z 000000014000c2b0 f i ConvexMesh.obj
 0001:0000b2b0       ??0?$Array@UEntity@reactphysics3d@@@reactphysics3d@@QEAA@AEBV01@@Z 000000014000c2b0 f i BodyComponents.obj
 0001:0000b350       ?reserve@?$Array@UFace@HalfEdgeStructure@reactphysics3d@@@reactphysics3d@@QEAAX_K@Z 000000014000c350 f i ConvexMesh.obj
 0001:0000b510       ?reserve@?$Array@UVector3@reactphysics3d@@@reactphysics3d@@QEAAX_K@Z 000000014000c510 f i ConvexMesh.obj
 0001:0000b630       ??1?$Map@IV?$Pair@II@reactphysics3d@@U?$hash@I@std@@U?$equal_to@I@4@@reactphysics3d@@QEAA@XZ 000000014000c630 f i HalfEdgeStructure.obj
 0001:0000b630       ??1?$Map@V?$Pair@II@reactphysics3d@@IU?$hash@V?$Pair@II@reactphysics3d@@@std@@U?$equal_to@V?$Pair@II@reactphysics3d@@@4@@reactphysics3d@@QEAA@XZ 000000014000c630 f i HalfEdgeStructure.obj
 0001:0000b730       ?add@?$Map@V?$Pair@II@reactphysics3d@@IU?$hash@V?$Pair@II@reactphysics3d@@@std@@U?$equal_to@V?$Pair@II@reactphysics3d@@@4@@reactphysics3d@@QEAA_NAEBV?$Pair@V?$Pair@II@reactphysics3d@@I@2@_N@Z 000000014000c730 f i HalfEdgeStructure.obj
 0001:0000b980       ?computeHalfEdges@HalfEdgeStructure@reactphysics3d@@QEAAXXZ 000000014000c980 f   HalfEdgeStructure.obj
 0001:0000d310       ?findEntry@?$Map@V?$Pair@II@reactphysics3d@@IU?$hash@V?$Pair@II@reactphysics3d@@@std@@U?$equal_to@V?$Pair@II@reactphysics3d@@@4@@reactphysics3d@@AEBA_KAEBV?$Pair@II@2@@Z 000000014000e310 f i HalfEdgeStructure.obj
 0001:0000d4c0       ?reserve@?$Array@UEdge@HalfEdgeStructure@reactphysics3d@@@reactphysics3d@@QEAAX_K@Z 000000014000e4c0 f i HalfEdgeStructure.obj
 0001:0000d5d0       ?reserve@?$Map@IV?$Pair@II@reactphysics3d@@U?$hash@I@std@@U?$equal_to@I@4@@reactphysics3d@@QEAAX_K@Z 000000014000e5d0 f i HalfEdgeStructure.obj
 0001:0000d970       ?reserve@?$Map@V?$Pair@II@reactphysics3d@@IU?$hash@V?$Pair@II@reactphysics3d@@@std@@U?$equal_to@V?$Pair@II@reactphysics3d@@@4@@reactphysics3d@@QEAAX_K@Z 000000014000e970 f i HalfEdgeStructure.obj
 0001:0000dd80       ?reserve@?$Map@V?$Pair@II@reactphysics3d@@UEdge@HalfEdgeStructure@2@U?$hash@V?$Pair@II@reactphysics3d@@@std@@U?$equal_to@V?$Pair@II@reactphysics3d@@@6@@reactphysics3d@@QEAAX_K@Z 000000014000ed80 f i HalfEdgeStructure.obj
 0001:0000e190       ?reserve@?$Map@V?$Pair@II@reactphysics3d@@V12@U?$hash@V?$Pair@II@reactphysics3d@@@std@@U?$equal_to@V?$Pair@II@reactphysics3d@@@4@@reactphysics3d@@QEAAX_K@Z 000000014000f190 f i HalfEdgeStructure.obj
 0001:0000e590       ??0?$basic_istream@DU?$char_traits@D@std@@@std@@QEAA@PEAV?$basic_streambuf@DU?$char_traits@D@std@@@1@_N@Z 000000014000f590 f i HeightField.obj
 0001:0000e770       ??6?$basic_ostream@DU?$char_traits@D@std@@@std@@QEAAAEAV01@I@Z 000000014000f770 f i HeightField.obj
 0001:0000e960       ?getVertexAt@HeightField@reactphysics3d@@QEBA?AUVector3@2@II@Z 000000014000f960 f   HeightField.obj
 0001:0000e9d0       ?testCollision@CapsuleVsCapsuleAlgorithm@reactphysics3d@@QEAA_NAEAUNarrowPhaseInfoBatch@2@IIAEAVMemoryAllocator@2@@Z 000000014000f9d0 f   CapsuleVsCapsuleAlgorithm.obj
 0001:00010ff0       ?testCollision@CapsuleVsConvexPolyhedronAlgorithm@reactphysics3d@@QEAA_NAEAUNarrowPhaseInfoBatch@2@II_NAEAVMemoryAllocator@2@@Z 0000000140011ff0 f   CapsuleVsConvexPolyhedronAlgorithm.obj
 0001:00011f90       ??0CollisionDispatch@reactphysics3d@@QEAA@AEAVMemoryAllocator@1@@Z 0000000140012f90 f   CollisionDispatch.obj
 0001:000120a0       ??1CollisionDispatch@reactphysics3d@@QEAA@XZ 00000001400130a0 f   CollisionDispatch.obj
 0001:00012140       ??_ECapsuleVsCapsuleAlgorithm@reactphysics3d@@UEAAPEAXI@Z 0000000140013140 f i CollisionDispatch.obj
 0001:00012140       ??_ECapsuleVsConvexPolyhedronAlgorithm@reactphysics3d@@UEAAPEAXI@Z 0000000140013140 f i CollisionDispatch.obj
 0001:00012140       ??_EConvexPolyhedronVsConvexPolyhedronAlgorithm@reactphysics3d@@UEAAPEAXI@Z 0000000140013140 f i CollisionDispatch.obj
 0001:00012140       ??_EDefaultAllocator@reactphysics3d@@UEAAPEAXI@Z 0000000140013140 f i MemoryManager.obj
 0001:00012140       ??_EError@vk@@UEAAPEAXI@Z  0000000140013140 f i Zenith_DebugVariables.obj
 0001:00012140       ??_EPhysicsEventListener@Zenith_Physics@@UEAAPEAXI@Z 0000000140013140 f i Zenith_Physics.obj
 0001:00012140       ??_ESphereVsCapsuleAlgorithm@reactphysics3d@@UEAAPEAXI@Z 0000000140013140 f i CollisionDispatch.obj
 0001:00012140       ??_ESphereVsConvexPolyhedronAlgorithm@reactphysics3d@@UEAAPEAXI@Z 0000000140013140 f i CollisionDispatch.obj
 0001:00012140       ??_ESphereVsSphereAlgorithm@reactphysics3d@@UEAAPEAXI@Z 0000000140013140 f i CollisionDispatch.obj
 0001:00012140       ??_GCapsuleVsCapsuleAlgorithm@reactphysics3d@@UEAAPEAXI@Z 0000000140013140 f i CollisionDispatch.obj
 0001:00012140       ??_GCapsuleVsConvexPolyhedronAlgorithm@reactphysics3d@@UEAAPEAXI@Z 0000000140013140 f i CollisionDispatch.obj
 0001:00012140       ??_GConvexPolyhedronVsConvexPolyhedronAlgorithm@reactphysics3d@@UEAAPEAXI@Z 0000000140013140 f i CollisionDispatch.obj
 0001:00012140       ??_GDefaultAllocator@reactphysics3d@@UEAAPEAXI@Z 0000000140013140 f i MemoryManager.obj
 0001:00012140       ??_GError@vk@@UEAAPEAXI@Z  0000000140013140 f i Zenith_DebugVariables.obj
 0001:00012140       ??_GPhysicsEventListener@Zenith_Physics@@UEAAPEAXI@Z 0000000140013140 f i Zenith_Physics.obj
 0001:00012140       ??_GSphereVsCapsuleAlgorithm@reactphysics3d@@UEAAPEAXI@Z 0000000140013140 f i CollisionDispatch.obj
 0001:00012140       ??_GSphereVsConvexPolyhedronAlgorithm@reactphysics3d@@UEAAPEAXI@Z 0000000140013140 f i CollisionDispatch.obj
 0001:00012140       ??_GSphereVsSphereAlgorithm@reactphysics3d@@UEAAPEAXI@Z 0000000140013140 f i CollisionDispatch.obj
 0001:00012170       ?fillInCollisionMatrix@CollisionDispatch@reactphysics3d@@QEAAXXZ 0000000140013170 f   CollisionDispatch.obj
 0001:000121f0       ?selectNarrowPhaseAlgorithm@CollisionDispatch@reactphysics3d@@QEBA?AW4NarrowPhaseAlgorithmType@2@AEBW4CollisionShapeType@2@0@Z 00000001400131f0 f   CollisionDispatch.obj
 0001:00012210       ?testCollision@ConvexPolyhedronVsConvexPolyhedronAlgorithm@reactphysics3d@@QEAA_NAEAUNarrowPhaseInfoBatch@2@II_NAEAVMemoryAllocator@2@@Z 0000000140013210 f   ConvexPolyhedronVsConvexPolyhedronAlgorithm.obj
 0001:00012290       ?add@?$Array@W4GJKResult@GJKAlgorithm@reactphysics3d@@@reactphysics3d@@QEAAXAEBW4GJKResult@GJKAlgorithm@2@@Z 0000000140013290 f i GJKAlgorithm.obj
 0001:000123e0       ?testCollision@GJKAlgorithm@reactphysics3d@@QEAAXAEAUNarrowPhaseInfoBatch@2@IIAEAV?$Array@W4GJKResult@GJKAlgorithm@reactphysics3d@@@2@@Z 00000001400133e0 f   GJKAlgorithm.obj
 0001:00013ad0       ??0VoronoiSimplex@reactphysics3d@@QEAA@XZ 0000000140014ad0 f   VoronoiSimplex.obj
 0001:00013b60       ?addPoint@VoronoiSimplex@reactphysics3d@@QEAAXAEBUVector3@2@00@Z 0000000140014b60 f   VoronoiSimplex.obj
 0001:00013bd0       ?backupClosestPointInSimplex@VoronoiSimplex@reactphysics3d@@QEAAXAEAUVector3@2@@Z 0000000140014bd0 f   VoronoiSimplex.obj
 0001:00013bf0       ?computeClosestPointOnTetrahedron@VoronoiSimplex@reactphysics3d@@AEBA_NAEBUVector3@2@000AEAHAEAUVector2@2@2AEA_N@Z 0000000140014bf0 f   VoronoiSimplex.obj
 0001:00014120       ?computeClosestPointOnTriangle@VoronoiSimplex@reactphysics3d@@AEBAXAEBUVector3@2@00AEAHAEAU32@@Z 0000000140015120 f   VoronoiSimplex.obj
 0001:00014550       ?computeClosestPointsOfAandB@VoronoiSimplex@reactphysics3d@@QEBAXAEAUVector3@2@0@Z 0000000140015550 f   VoronoiSimplex.obj
 0001:00014580       ?getMaxLengthSquareOfAPoint@VoronoiSimplex@reactphysics3d@@QEBAMXZ 0000000140015580 f   VoronoiSimplex.obj
 0001:000146b0       ?isAffinelyDependent@VoronoiSimplex@reactphysics3d@@QEBA_NXZ 00000001400156b0 f   VoronoiSimplex.obj
 0001:000148c0       ?isPointInSimplex@VoronoiSimplex@reactphysics3d@@QEBA_NAEBUVector3@2@@Z 00000001400158c0 f   VoronoiSimplex.obj
 0001:00014950       ?recomputeClosestPoint@VoronoiSimplex@reactphysics3d@@AEAA_NXZ 0000000140015950 f   VoronoiSimplex.obj
 0001:000150b0       ?reduceSimplex@VoronoiSimplex@reactphysics3d@@QEAAXH@Z 00000001400160b0 f   VoronoiSimplex.obj
 0001:00015290       ?testOriginOutsideOfPlane@VoronoiSimplex@reactphysics3d@@AEBAHAEBUVector3@2@000@Z 0000000140016290 f   VoronoiSimplex.obj
 0001:000153e0       ??0NarrowPhaseInfoBatch@reactphysics3d@@QEAA@AEAVOverlappingPairs@1@AEAVMemoryAllocator@1@@Z 00000001400163e0 f   NarrowPhaseInfoBatch.obj
 0001:00015400       ??1NarrowPhaseInfoBatch@reactphysics3d@@QEAA@XZ 0000000140016400 f   NarrowPhaseInfoBatch.obj
 0001:000154f0       ?clear@NarrowPhaseInfoBatch@reactphysics3d@@QEAAXXZ 00000001400164f0 f   NarrowPhaseInfoBatch.obj
 0001:000155e0       ?reserve@?$Array@UNarrowPhaseInfo@NarrowPhaseInfoBatch@reactphysics3d@@@reactphysics3d@@QEAAX_K@Z 00000001400165e0 f i NarrowPhaseInfoBatch.obj
 0001:000156f0       ?reserveMemory@NarrowPhaseInfoBatch@reactphysics3d@@QEAAXXZ 00000001400166f0 f   NarrowPhaseInfoBatch.obj
 0001:00015700       ??0NarrowPhaseInput@reactphysics3d@@QEAA@AEAVMemoryAllocator@1@AEAVOverlappingPairs@1@@Z 0000000140016700 f   NarrowPhaseInput.obj
 0001:00015790       ?clear@NarrowPhaseInput@reactphysics3d@@QEAAXXZ 0000000140016790 f   NarrowPhaseInput.obj
 0001:000157e0       ?reserveMemory@NarrowPhaseInput@reactphysics3d@@QEAAXXZ 00000001400167e0 f   NarrowPhaseInput.obj
 0001:00015830       ??0SATAlgorithm@reactphysics3d@@QEAA@_NAEAVMemoryAllocator@1@@Z 0000000140016830 f   SATAlgorithm.obj
 0001:00015840       ?addRange@?$Array@UVector3@reactphysics3d@@@reactphysics3d@@QEAAXAEBV12@_K@Z 0000000140016840 f i SATAlgorithm.obj
 0001:000158d0       ?computeCapsulePolyhedronFaceContactPoints@SATAlgorithm@reactphysics3d@@QEBA_NIMPEBVConvexPolyhedronShape@2@MAEBVTransform@2@AEAUVector3@2@AEBU52@33AEAUNarrowPhaseInfoBatch@2@I_N@Z 00000001400168d0 f   SATAlgorithm.obj
 0001:00016db0       ?computeEdgeVsCapsuleInnerSegmentPenetrationDepth@SATAlgorithm@reactphysics3d@@AEBAMPEBVConvexPolyhedronShape@2@PEBVCapsuleShape@2@AEBUVector3@2@22AEBVTransform@2@AEAU52@@Z 0000000140017db0 f   SATAlgorithm.obj
 0001:00017330       ?computePolyhedronFaceVsCapsulePenetrationDepth@SATAlgorithm@reactphysics3d@@AEBAMIPEBVConvexPolyhedronShape@2@PEBVCapsuleShape@2@AEBVTransform@2@AEAUVector3@2@@Z 0000000140018330 f   SATAlgorithm.obj
 0001:00017700       ?computePolyhedronVsPolyhedronFaceContactPoints@SATAlgorithm@reactphysics3d@@AEBA_N_NPEBVConvexPolyhedronShape@2@1AEBVTransform@2@2IAEAUNarrowPhaseInfoBatch@2@I@Z 0000000140018700 f   SATAlgorithm.obj
 0001:00018e40       ?testCollisionCapsuleVsConvexPolyhedron@SATAlgorithm@reactphysics3d@@QEBA_NAEAUNarrowPhaseInfoBatch@2@I@Z 0000000140019e40 f   SATAlgorithm.obj
 0001:0001a7a0       ?testCollisionConvexPolyhedronVsConvexPolyhedron@SATAlgorithm@reactphysics3d@@QEBA_NAEAUNarrowPhaseInfoBatch@2@II@Z 000000014001b7a0 f   SATAlgorithm.obj
 0001:0001d9c0       ?testCollisionSphereVsConvexPolyhedron@SATAlgorithm@reactphysics3d@@QEBA_NAEAUNarrowPhaseInfoBatch@2@II@Z 000000014001e9c0 f   SATAlgorithm.obj
 0001:0001e6c0       ?testEdgesBuildMinkowskiFace@SATAlgorithm@reactphysics3d@@AEBA_NPEBVConvexPolyhedronShape@2@AEBUEdge@HalfEdgeStructure@2@01AEBVTransform@2@@Z 000000014001f6c0 f   SATAlgorithm.obj
 0001:0001ed70       ?testSingleFaceDirectionPolyhedronVsPolyhedron@SATAlgorithm@reactphysics3d@@AEBAMPEBVConvexPolyhedronShape@2@0AEBVTransform@2@I@Z 000000014001fd70 f   SATAlgorithm.obj
 0001:0001f150       ?testCollision@SphereVsCapsuleAlgorithm@reactphysics3d@@QEAA_NAEAUNarrowPhaseInfoBatch@2@IIAEAVMemoryAllocator@2@@Z 0000000140020150 f   SphereVsCapsuleAlgorithm.obj
 0001:000202f0       ?testCollision@SphereVsConvexPolyhedronAlgorithm@reactphysics3d@@QEAA_NAEAUNarrowPhaseInfoBatch@2@II_NAEAVMemoryAllocator@2@@Z 00000001400212f0 f   SphereVsConvexPolyhedronAlgorithm.obj
 0001:00020560       ?testCollision@SphereVsSphereAlgorithm@reactphysics3d@@QEAA_NAEAUNarrowPhaseInfoBatch@2@IIAEAVMemoryAllocator@2@@Z 0000000140021560 f   SphereVsSphereAlgorithm.obj
 0001:00020fc0       ??0CallbackData@OverlapCallback@reactphysics3d@@AEAA@AEAV?$Array@UContactPair@reactphysics3d@@@2@0_NAEAVPhysicsWorld@2@@Z 0000000140021fc0 f   OverlapCallback.obj
 0001:00021120       ??0AABB@reactphysics3d@@QEAA@AEBUVector3@1@0@Z 0000000140022120 f   AABB.obj
 0001:00021150       ?do_always_noconv@?$codecvt@DDU_Mbstatet@@@std@@MEBA_NXZ 0000000140022150 f i DefaultLogger.obj
 0001:00021150       ?isConvex@ConvexShape@reactphysics3d@@UEBA_NXZ 0000000140022150 f i BoxShape.obj
 0001:00021150       ?isPolyhedron@ConvexPolyhedronShape@reactphysics3d@@UEBA_NXZ 0000000140022150 f i BoxShape.obj
 0001:00021150       __acrt_uninitialize_command_line 0000000140022150 f i libucrt:argv_data.obj
 0001:00021150       _should_initialize_environment 0000000140022150 f i LIBCMT:env_mode.obj
 0001:00021160       ??0CollisionShape@reactphysics3d@@QEAA@W4CollisionShapeName@1@W4CollisionShapeType@1@AEAVMemoryAllocator@1@@Z 0000000140022160 f   CollisionShape.obj
 0001:00021190       ??_ECollisionShape@reactphysics3d@@UEAAPEAXI@Z 0000000140022190 f i CollisionShape.obj
 0001:00021190       ??_GCollisionShape@reactphysics3d@@UEAAPEAXI@Z 0000000140022190 f i CollisionShape.obj
 0001:00021200       ?computeTransformedAABB@CollisionShape@reactphysics3d@@UEBA?AVAABB@2@AEBVTransform@2@@Z 0000000140022200 f   CollisionShape.obj
 0001:000213b0       ??$_Insert_string@DU?$char_traits@D@std@@_K@std@@YAAEAV?$basic_ostream@DU?$char_traits@D@std@@@0@AEAV10@QEBD_K@Z 00000001400223b0 f i ConcaveMeshShape.obj
 0001:00021670       ?getNbTriangles@ConcaveMeshShape@reactphysics3d@@QEBAIXZ 0000000140022670 f   ConcaveMeshShape.obj
 0001:00021690       ?getNbVertices@ConcaveMeshShape@reactphysics3d@@QEBAIXZ 0000000140022690 f   ConcaveMeshShape.obj
 0001:000216a0       ?getTriangleVertices@ConcaveMeshShape@reactphysics3d@@QEBAXIAEAUVector3@2@00@Z 00000001400226a0 f   ConcaveMeshShape.obj
 0001:000217c0       ?getVertex@ConcaveMeshShape@reactphysics3d@@QEBA?BUVector3@2@I@Z 00000001400227c0 f   ConcaveMeshShape.obj
 0001:00021810       ?getVertexNormal@ConcaveMeshShape@reactphysics3d@@QEBAAEBUVector3@2@I@Z 0000000140022810 f   ConcaveMeshShape.obj
 0001:00021820       ??1?$Array@UFace@HalfEdgeStructure@reactphysics3d@@@reactphysics3d@@QEAA@XZ 0000000140022820 f i ConvexMeshShape.obj
 0001:000218f0       ??0ConvexPolyhedronShape@reactphysics3d@@QEAA@W4CollisionShapeName@1@AEAVMemoryAllocator@1@@Z 00000001400228f0 f   ConvexPolyhedronShape.obj
 0001:00021930       ??_EConvexPolyhedronShape@reactphysics3d@@UEAAPEAXI@Z 0000000140022930 f i ConvexPolyhedronShape.obj
 0001:00021930       ??_EConvexShape@reactphysics3d@@UEAAPEAXI@Z 0000000140022930 f i ConvexShape.obj
 0001:00021930       ??_GConvexPolyhedronShape@reactphysics3d@@UEAAPEAXI@Z 0000000140022930 f i ConvexPolyhedronShape.obj
 0001:00021930       ??_GConvexShape@reactphysics3d@@UEAAPEAXI@Z 0000000140022930 f i ConvexShape.obj
 0001:000219a0       ??0ConvexShape@reactphysics3d@@QEAA@W4CollisionShapeName@1@W4CollisionShapeType@1@AEAVMemoryAllocator@1@M@Z 00000001400229a0 f   ConvexShape.obj
 0001:000219d0       ?getLocalSupportPointWithMargin@ConvexShape@reactphysics3d@@IEBA?AUVector3@2@AEBU32@@Z 00000001400229d0 f   ConvexShape.obj
 0001:00021aa0       ??0TriangleShape@reactphysics3d@@IEAA@PEBUVector3@1@0IAEAVHalfEdgeStructure@1@AEAVMemoryAllocator@1@@Z 0000000140022aa0 f   TriangleShape.obj
 0001:00021cb0       ??_ETriangleShape@reactphysics3d@@MEAAPEAXI@Z 0000000140022cb0 f i TriangleShape.obj
 0001:00021cb0       ??_GTriangleShape@reactphysics3d@@MEAAPEAXI@Z 0000000140022cb0 f i TriangleShape.obj
 0001:00021d20       ?computeSmoothMeshContact@TriangleShape@reactphysics3d@@IEBAXUVector3@2@AEBVTransform@2@1M_NAEAU32@3@Z 0000000140022d20 f   TriangleShape.obj
 0001:00022600       ?computeTransformedAABB@TriangleShape@reactphysics3d@@UEBA?AVAABB@2@AEBVTransform@2@@Z 0000000140023600 f   TriangleShape.obj
 0001:00022b20       ?getCentroid@TriangleShape@reactphysics3d@@UEBA?AUVector3@2@XZ 0000000140023b20 f i TriangleShape.obj
 0001:00022b80       ?getFace@TriangleShape@reactphysics3d@@UEBAAEBUFace@HalfEdgeStructure@2@I@Z 0000000140023b80 f i TriangleShape.obj
 0001:00022ba0       ?getFaceNormal@TriangleShape@reactphysics3d@@UEBA?AUVector3@2@I@Z 0000000140023ba0 f i TriangleShape.obj
 0001:00022c10       ?getHalfEdge@TriangleShape@reactphysics3d@@UEBAAEBUEdge@HalfEdgeStructure@2@I@Z 0000000140023c10 f i TriangleShape.obj
 0001:00022c30       ?getLocalBounds@TriangleShape@reactphysics3d@@UEBA?AVAABB@2@XZ 0000000140023c30 f i TriangleShape.obj
 0001:00022d30       ?getLocalInertiaTensor@TriangleShape@reactphysics3d@@UEBA?AUVector3@2@M@Z 0000000140023d30 f i TriangleShape.obj
 0001:00022d40       ?getLocalSupportPointWithoutMargin@TriangleShape@reactphysics3d@@MEBA?AUVector3@2@AEBU32@@Z 0000000140023d40 f i TriangleShape.obj
 0001:00022df0       ?getNbFaces@TriangleShape@reactphysics3d@@UEBAIXZ 0000000140023df0 f i TriangleShape.obj
 0001:00022e00       ?getNbHalfEdges@TriangleShape@reactphysics3d@@UEBAIXZ 0000000140023e00 f i TriangleShape.obj
 0001:00022e10       ?getNbVertices@TriangleShape@reactphysics3d@@UEBAIXZ 0000000140023e10 f i TriangleShape.obj
 0001:00022e20       ?getSizeInBytes@TriangleShape@reactphysics3d@@MEBA_KXZ 0000000140023e20 f i TriangleShape.obj
 0001:00022e30       ?getVertex@TriangleShape@reactphysics3d@@UEBAAEBUVertex@HalfEdgeStructure@2@I@Z 0000000140023e30 f i TriangleShape.obj
 0001:00022e50       ?getVertexPosition@TriangleShape@reactphysics3d@@UEBA?AUVector3@2@I@Z 0000000140023e50 f i TriangleShape.obj
 0001:00022e70       ?getVolume@TriangleShape@reactphysics3d@@UEBAMXZ 0000000140023e70 f i TriangleShape.obj
 0001:00022e80       ?raycast@TriangleShape@reactphysics3d@@MEBA_NAEBURay@2@AEAURaycastInfo@2@PEAVCollider@2@AEAVMemoryAllocator@2@@Z 0000000140023e80 f   TriangleShape.obj
 0001:000233e0       ?testPointInside@TriangleShape@reactphysics3d@@MEBA_NAEBUVector3@2@PEAVCollider@2@@Z 00000001400243e0 f i TriangleShape.obj
 0001:000233f0       ?to_string@TriangleShape@reactphysics3d@@UEBA?AV?$basic_string@DU?$char_traits@D@std@@V?$allocator@D@2@@std@@XZ 00000001400243f0 f i TriangleShape.obj
 0001:00024330       ??0BallAndSocketJointComponents@reactphysics3d@@QEAA@AEAVMemoryAllocator@1@@Z 0000000140025330 f   BallAndSocketJointComponents.obj
 0001:00024360       ??_EBallAndSocketJointComponents@reactphysics3d@@UEAAPEAXI@Z 0000000140025360 f i BallAndSocketJointComponents.obj
 0001:00024360       ??_GBallAndSocketJointComponents@reactphysics3d@@UEAAPEAXI@Z 0000000140025360 f i BallAndSocketJointComponents.obj
 0001:000243a0       ?add@?$Map@UEntity@reactphysics3d@@IU?$hash@UEntity@reactphysics3d@@@std@@U?$equal_to@UEntity@reactphysics3d@@@4@@reactphysics3d@@QEAA_NAEBV?$Pair@UEntity@reactphysics3d@@I@2@_N@Z 00000001400253a0 f i BallAndSocketJointComponents.obj
 0001:00024520       ?allocate@BallAndSocketJointComponents@reactphysics3d@@EEAAXI@Z 0000000140025520 f   BallAndSocketJointComponents.obj
 0001:00024a00       ?destroyComponent@BallAndSocketJointComponents@reactphysics3d@@EEAAXI@Z 0000000140025a00 f   BallAndSocketJointComponents.obj
 0001:00024a00       ?destroyComponent@FixedJointComponents@reactphysics3d@@EEAAXI@Z 0000000140025a00 f   FixedJointComponents.obj
 0001:00024a00       ?destroyComponent@HingeJointComponents@reactphysics3d@@EEAAXI@Z 0000000140025a00 f   HingeJointComponents.obj
 0001:00024a00       ?destroyComponent@SliderJointComponents@reactphysics3d@@EEAAXI@Z 0000000140025a00 f   SliderJointComponents.obj
 0001:00024a50       ?moveComponentToIndex@BallAndSocketJointComponents@reactphysics3d@@EEAAXII@Z 0000000140025a50 f   BallAndSocketJointComponents.obj
 0001:00024c70       ?remove@?$Map@UEntity@reactphysics3d@@IU?$hash@UEntity@reactphysics3d@@@std@@U?$equal_to@UEntity@reactphysics3d@@@4@@reactphysics3d@@QEAA?AVIterator@12@AEBUEntity@2@@Z 0000000140025c70 f i BallAndSocketJointComponents.obj
 0001:00024e10       ?reserve@?$Map@UEntity@reactphysics3d@@IU?$hash@UEntity@reactphysics3d@@@std@@U?$equal_to@UEntity@reactphysics3d@@@4@@reactphysics3d@@QEAAX_K@Z 0000000140025e10 f i BallAndSocketJointComponents.obj
 0001:00025190       ?swapComponents@BallAndSocketJointComponents@reactphysics3d@@EEAAXII@Z 0000000140026190 f   BallAndSocketJointComponents.obj
 0001:00025580       ??0BodyComponents@reactphysics3d@@QEAA@AEAVMemoryAllocator@1@@Z 0000000140026580 f   BodyComponents.obj
 0001:000255b0       ??_EBodyComponents@reactphysics3d@@UEAAPEAXI@Z 00000001400265b0 f i BodyComponents.obj
 0001:000255b0       ??_GBodyComponents@reactphysics3d@@UEAAPEAXI@Z 00000001400265b0 f i BodyComponents.obj
 0001:000255f0       ?allocate@BodyComponents@reactphysics3d@@EEAAXI@Z 00000001400265f0 f   BodyComponents.obj
 0001:00025800       ?destroyComponent@BodyComponents@reactphysics3d@@EEAAXI@Z 0000000140026800 f   BodyComponents.obj
 0001:000258a0       ?moveComponentToIndex@BodyComponents@reactphysics3d@@EEAAXII@Z 00000001400268a0 f   BodyComponents.obj
 0001:00025970       ?swapComponents@BodyComponents@reactphysics3d@@EEAAXII@Z 0000000140026970 f   BodyComponents.obj
 0001:00025de0       ??0?$Array@_K@reactphysics3d@@QEAA@AEBV01@@Z 0000000140026de0 f i ColliderComponents.obj
 0001:00025e80       ??0ColliderComponents@reactphysics3d@@QEAA@AEAVMemoryAllocator@1@@Z 0000000140026e80 f   ColliderComponents.obj
 0001:00025eb0       ??_EColliderComponents@reactphysics3d@@UEAAPEAXI@Z 0000000140026eb0 f i ColliderComponents.obj
 0001:00025eb0       ??_EFixedJointComponents@reactphysics3d@@UEAAPEAXI@Z 0000000140026eb0 f i FixedJointComponents.obj
 0001:00025eb0       ??_GColliderComponents@reactphysics3d@@UEAAPEAXI@Z 0000000140026eb0 f i ColliderComponents.obj
 0001:00025eb0       ??_GFixedJointComponents@reactphysics3d@@UEAAPEAXI@Z 0000000140026eb0 f i FixedJointComponents.obj
 0001:00025ef0       ?allocate@ColliderComponents@reactphysics3d@@EEAAXI@Z 0000000140026ef0 f   ColliderComponents.obj
 0001:000262f0       ?destroyComponent@ColliderComponents@reactphysics3d@@EEAAXI@Z 00000001400272f0 f   ColliderComponents.obj
 0001:00026380       ?moveComponentToIndex@ColliderComponents@reactphysics3d@@EEAAXII@Z 0000000140027380 f   ColliderComponents.obj
 0001:00026530       ?swapComponents@ColliderComponents@reactphysics3d@@EEAAXII@Z 0000000140027530 f   ColliderComponents.obj
 0001:00026b70       ??0Components@reactphysics3d@@QEAA@AEAVMemoryAllocator@1@_K1@Z 0000000140027b70 f   Components.obj
 0001:00026bd0       ??1?$Map@UEntity@reactphysics3d@@IU?$hash@UEntity@reactphysics3d@@@std@@U?$equal_to@UEntity@reactphysics3d@@@4@@reactphysics3d@@QEAA@XZ 0000000140027bd0 f i Components.obj
 0001:00026bd0       ??1?$Map@W4DebugItem@DebugRenderer@reactphysics3d@@IU?$hash@W4DebugItem@DebugRenderer@reactphysics3d@@@std@@U?$equal_to@W4DebugItem@DebugRenderer@reactphysics3d@@@5@@reactphysics3d@@QEAA@XZ 0000000140027bd0 f i DebugRenderer.obj
 0001:00026bd0       ??1?$Set@PEAVProfiler@reactphysics3d@@U?$hash@PEAVProfiler@reactphysics3d@@@std@@U?$equal_to@PEAVProfiler@reactphysics3d@@@4@@reactphysics3d@@QEAA@XZ 0000000140027bd0 f i PhysicsCommon.obj
 0001:00026cc0       ??1Components@reactphysics3d@@UEAA@XZ 0000000140027cc0 f   Components.obj
 0001:00026dd0       ??_EComponents@reactphysics3d@@UEAAPEAXI@Z 0000000140027dd0 f i Components.obj
 0001:00026dd0       ??_GComponents@reactphysics3d@@UEAAPEAXI@Z 0000000140027dd0 f i Components.obj
 0001:00026e30       ?init@Components@reactphysics3d@@QEAAXXZ 0000000140027e30 f   Components.obj
 0001:00026e40       ?removeComponent@Components@reactphysics3d@@QEAAXUEntity@2@@Z 0000000140027e40 f   Components.obj
 0001:00026ef0       ?setIsEntityDisabled@Components@reactphysics3d@@QEAAXUEntity@2@_N@Z 0000000140027ef0 f   Components.obj
 0001:00026f90       ??0FixedJointComponents@reactphysics3d@@QEAA@AEAVMemoryAllocator@1@@Z 0000000140027f90 f   FixedJointComponents.obj
 0001:00026fc0       ?allocate@FixedJointComponents@reactphysics3d@@EEAAXI@Z 0000000140027fc0 f   FixedJointComponents.obj
 0001:000273f0       ?moveComponentToIndex@FixedJointComponents@reactphysics3d@@EEAAXII@Z 00000001400283f0 f   FixedJointComponents.obj
 0001:00027640       ?swapComponents@FixedJointComponents@reactphysics3d@@EEAAXII@Z 0000000140028640 f   FixedJointComponents.obj
 0001:00027a20       ??0HingeJointComponents@reactphysics3d@@QEAA@AEAVMemoryAllocator@1@@Z 0000000140028a20 f   HingeJointComponents.obj
 0001:00027a50       ??_EHingeJointComponents@reactphysics3d@@UEAAPEAXI@Z 0000000140028a50 f i HingeJointComponents.obj
 0001:00027a50       ??_GHingeJointComponents@reactphysics3d@@UEAAPEAXI@Z 0000000140028a50 f i HingeJointComponents.obj
 0001:00027a90       ?allocate@HingeJointComponents@reactphysics3d@@EEAAXI@Z 0000000140028a90 f   HingeJointComponents.obj
 0001:00028390       ?moveComponentToIndex@HingeJointComponents@reactphysics3d@@EEAAXII@Z 0000000140029390 f   HingeJointComponents.obj
 0001:000286e0       ?swapComponents@HingeJointComponents@reactphysics3d@@EEAAXII@Z 00000001400296e0 f   HingeJointComponents.obj
 0001:00028df0       ??0JointComponents@reactphysics3d@@QEAA@AEAVMemoryAllocator@1@@Z 0000000140029df0 f   JointComponents.obj
 0001:00028e20       ??_EJointComponents@reactphysics3d@@UEAAPEAXI@Z 0000000140029e20 f i JointComponents.obj
 0001:00028e20       ??_GJointComponents@reactphysics3d@@UEAAPEAXI@Z 0000000140029e20 f i JointComponents.obj
 0001:00028e60       ?allocate@JointComponents@reactphysics3d@@EEAAXI@Z 0000000140029e60 f   JointComponents.obj
 0001:000290e0       ?destroyComponent@JointComponents@reactphysics3d@@EEAAXI@Z 000000014002a0e0 f   JointComponents.obj
 0001:00029130       ?moveComponentToIndex@JointComponents@reactphysics3d@@EEAAXII@Z 000000014002a130 f   JointComponents.obj
 0001:00029200       ?swapComponents@JointComponents@reactphysics3d@@EEAAXII@Z 000000014002a200 f   JointComponents.obj
 0001:00029330       ??0RigidBodyComponents@reactphysics3d@@QEAA@AEAVMemoryAllocator@1@@Z 000000014002a330 f   RigidBodyComponents.obj
 0001:00029360       ??_ERigidBodyComponents@reactphysics3d@@UEAAPEAXI@Z 000000014002a360 f i RigidBodyComponents.obj
 0001:00029360       ??_GRigidBodyComponents@reactphysics3d@@UEAAPEAXI@Z 000000014002a360 f i RigidBodyComponents.obj
 0001:000293a0       ?allocate@RigidBodyComponents@reactphysics3d@@EEAAXI@Z 000000014002a3a0 f   RigidBodyComponents.obj
 0001:00029bb0       ?destroyComponent@RigidBodyComponents@reactphysics3d@@EEAAXI@Z 000000014002abb0 f   RigidBodyComponents.obj
 0001:00029c80       ?moveComponentToIndex@RigidBodyComponents@reactphysics3d@@EEAAXII@Z 000000014002ac80 f   RigidBodyComponents.obj
 0001:00029fd0       ?swapComponents@RigidBodyComponents@reactphysics3d@@EEAAXII@Z 000000014002afd0 f   RigidBodyComponents.obj
 0001:0002ad20       ??0SliderJointComponents@reactphysics3d@@QEAA@AEAVMemoryAllocator@1@@Z 000000014002bd20 f   SliderJointComponents.obj
 0001:0002ad50       ??_ESliderJointComponents@reactphysics3d@@UEAAPEAXI@Z 000000014002bd50 f i SliderJointComponents.obj
 0001:0002ad50       ??_GSliderJointComponents@reactphysics3d@@UEAAPEAXI@Z 000000014002bd50 f i SliderJointComponents.obj
 0001:0002ad90       ?allocate@SliderJointComponents@reactphysics3d@@EEAAXI@Z 000000014002bd90 f   SliderJointComponents.obj
 0001:0002b7c0       ?moveComponentToIndex@SliderJointComponents@reactphysics3d@@EEAAXII@Z 000000014002c7c0 f   SliderJointComponents.obj
 0001:0002bb90       ?swapComponents@SliderJointComponents@reactphysics3d@@EEAAXII@Z 000000014002cb90 f   SliderJointComponents.obj
 0001:0002c3d0       ??0TransformComponents@reactphysics3d@@QEAA@AEAVMemoryAllocator@1@@Z 000000014002d3d0 f   TransformComponents.obj
 0001:0002c400       ??_ETransformComponents@reactphysics3d@@UEAAPEAXI@Z 000000014002d400 f i TransformComponents.obj
 0001:0002c400       ??_GTransformComponents@reactphysics3d@@UEAAPEAXI@Z 000000014002d400 f i TransformComponents.obj
 0001:0002c440       ?allocate@TransformComponents@reactphysics3d@@EEAAXI@Z 000000014002d440 f   TransformComponents.obj
 0001:0002c550       ?destroyComponent@TransformComponents@reactphysics3d@@EEAAXI@Z 000000014002d550 f   TransformComponents.obj
 0001:0002c590       ?moveComponentToIndex@TransformComponents@reactphysics3d@@EEAAXII@Z 000000014002d590 f   TransformComponents.obj
 0001:0002c620       ?swapComponents@TransformComponents@reactphysics3d@@EEAAXII@Z 000000014002d620 f   TransformComponents.obj
 0001:0002c6e0       ??0ContactPoint@reactphysics3d@@QEAA@AEBUContactPointInfo@1@M@Z 000000014002d6e0 f   ContactPoint.obj
 0001:0002c740       ??$?HDU?$char_traits@D@std@@V?$allocator@D@1@@std@@YA?AV?$basic_string@DU?$char_traits@D@std@@V?$allocator@D@2@@0@$$QEAV10@QEBD@Z 000000014002d740 f i HingeJoint.obj
 0001:0002c7a0       ?getBody1@Joint@reactphysics3d@@QEBAPEAVRigidBody@2@XZ 000000014002d7a0 f   Joint.obj
 0001:0002c820       ?getBody2@Joint@reactphysics3d@@QEBAPEAVRigidBody@2@XZ 000000014002d820 f   Joint.obj
 0001:0002c8a0       ?isCollisionEnabled@Joint@reactphysics3d@@QEBA_NXZ 000000014002d8a0 f   Joint.obj
 0001:0002c8f0       ??0EntityManager@reactphysics3d@@QEAA@AEAVMemoryAllocator@1@@Z 000000014002d8f0 f   EntityManager.obj
 0001:0002c920       ?destroyEntity@EntityManager@reactphysics3d@@QEAAXUEntity@2@@Z 000000014002d920 f   EntityManager.obj
 0001:0002cab0       ??$emplace@AEA_KAEAHAEAHAEAUEntity@reactphysics3d@@AEAU12@AEAW4NarrowPhaseAlgorithmType@2@_N@?$Array@UConvexOverlappingPair@OverlappingPairs@reactphysics3d@@@reactphysics3d@@QEAAXAEA_KAEAH1AEAUEntity@1@2AEAW4NarrowPhaseAlgorithmType@1@$$QEA_N@Z 000000014002dab0 f i OverlappingPairs.obj
 0001:0002cba0       ??0ConcaveOverlappingPair@OverlappingPairs@reactphysics3d@@QEAA@AEBU012@@Z 000000014002dba0 f i OverlappingPairs.obj
 0001:0002cd30       ??0OverlappingPairs@reactphysics3d@@QEAA@AEAVMemoryManager@1@AEAVColliderComponents@1@AEAVBodyComponents@1@AEAVRigidBodyComponents@1@AEAV?$Set@V?$Pair@UEntity@reactphysics3d@@U12@@reactphysics3d@@U?$hash@V?$Pair@UEntity@reactphysics3d@@U12@@reactphysics3d@@@std@@U?$equal_to@V?$Pair@UEntity@reactphysics3d@@U12@@reactphysics3d@@@4@@1@AEAVCollisionDispatch@1@@Z 000000014002dd30 f   OverlappingPairs.obj
 0001:0002ceb0       ??1?$Array@UConcaveOverlappingPair@OverlappingPairs@reactphysics3d@@@reactphysics3d@@QEAA@XZ 000000014002deb0 f i OverlappingPairs.obj
 0001:0002cf40       ??1?$Array@UConvexOverlappingPair@OverlappingPairs@reactphysics3d@@@reactphysics3d@@QEAA@XZ 000000014002df40 f i OverlappingPairs.obj
 0001:0002cfd0       ??1?$Map@_K_KU?$hash@_K@std@@U?$equal_to@_K@2@@reactphysics3d@@QEAA@XZ 000000014002dfd0 f i OverlappingPairs.obj
 0001:0002d0c0       ??1OverlappingPairs@reactphysics3d@@QEAA@XZ 000000014002e0c0 f   OverlappingPairs.obj
 0001:0002d1d0       ??4ConcaveOverlappingPair@OverlappingPairs@reactphysics3d@@QEAAAEAU012@AEBU012@@Z 000000014002e1d0 f i OverlappingPairs.obj
 0001:0002d350       ??_EConcaveOverlappingPair@OverlappingPairs@reactphysics3d@@UEAAPEAXI@Z 000000014002e350 f i OverlappingPairs.obj
 0001:0002d350       ??_GConcaveOverlappingPair@OverlappingPairs@reactphysics3d@@UEAAPEAXI@Z 000000014002e350 f i OverlappingPairs.obj
 0001:0002d390       ??_EConvexOverlappingPair@OverlappingPairs@reactphysics3d@@UEAAPEAXI@Z 000000014002e390 f i OverlappingPairs.obj
 0001:0002d390       ??_GConvexOverlappingPair@OverlappingPairs@reactphysics3d@@UEAAPEAXI@Z 000000014002e390 f i OverlappingPairs.obj
 0001:0002d3c0       ??_EOverlappingPair@OverlappingPairs@reactphysics3d@@UEAAPEAXI@Z 000000014002e3c0 f i OverlappingPairs.obj
 0001:0002d3c0       ??_GOverlappingPair@OverlappingPairs@reactphysics3d@@UEAAPEAXI@Z 000000014002e3c0 f i OverlappingPairs.obj
 0001:0002d3f0       ?add@?$Array@_K@reactphysics3d@@QEAAXAEB_K@Z 000000014002e3f0 f i OverlappingPairs.obj
 0001:0002d540       ?add@?$Map@_KPEAULastFrameCollisionInfo@reactphysics3d@@U?$hash@_K@std@@U?$equal_to@_K@4@@reactphysics3d@@QEAA_NAEBV?$Pair@_KPEAULastFrameCollisionInfo@reactphysics3d@@@2@_N@Z 000000014002e540 f i CollisionDetectionSystem.obj
 0001:0002d540       ?add@?$Map@_K_KU?$hash@_K@std@@U?$equal_to@_K@2@@reactphysics3d@@QEAA_NAEBV?$Pair@_K_K@2@_N@Z 000000014002e540 f i OverlappingPairs.obj
 0001:0002d730       ?addPair@OverlappingPairs@reactphysics3d@@QEAA_KII_N@Z 000000014002e730 f   OverlappingPairs.obj
 0001:0002da40       ?clear@?$Map@_KPEAULastFrameCollisionInfo@reactphysics3d@@U?$hash@_K@std@@U?$equal_to@_K@4@@reactphysics3d@@QEAAX_N@Z 000000014002ea40 f i OverlappingPairs.obj
 0001:0002db40       ?clearObsoleteLastFrameCollisionInfos@OverlappingPairs@reactphysics3d@@QEAAXXZ 000000014002eb40 f   OverlappingPairs.obj
 0001:0002dcd0       ?destroyLastFrameCollisionInfos@ConcaveOverlappingPair@OverlappingPairs@reactphysics3d@@QEAAXXZ 000000014002ecd0 f i OverlappingPairs.obj
 0001:0002de10       ?disableConcavePairWithIndex@OverlappingPairs@reactphysics3d@@QEAAX_K@Z 000000014002ee10 f   OverlappingPairs.obj
 0001:0002e000       ?disablePair@OverlappingPairs@reactphysics3d@@QEAAX_K@Z 000000014002f000 f   OverlappingPairs.obj
 0001:0002e210       ?enableConcavePairWithIndex@OverlappingPairs@reactphysics3d@@QEAAX_K@Z 000000014002f210 f   OverlappingPairs.obj
 0001:0002e400       ?enablePair@OverlappingPairs@reactphysics3d@@QEAAX_K@Z 000000014002f400 f   OverlappingPairs.obj
 0001:0002e610       ?findEntry@?$Map@_K_KU?$hash@_K@std@@U?$equal_to@_K@2@@reactphysics3d@@AEBA_KAEB_K@Z 000000014002f610 f i OverlappingPairs.obj
 0001:0002e770       ?remove@?$Map@_KPEAULastFrameCollisionInfo@reactphysics3d@@U?$hash@_K@std@@U?$equal_to@_K@4@@reactphysics3d@@QEAA?AVIterator@12@AEB_K@Z 000000014002f770 f i OverlappingPairs.obj
 0001:0002e770       ?remove@?$Map@_K_KU?$hash@_K@std@@U?$equal_to@_K@2@@reactphysics3d@@QEAA?AVIterator@12@AEB_K@Z 000000014002f770 f i OverlappingPairs.obj
 0001:0002e980       ?removeAtAndReplaceByLast@?$Array@UConvexOverlappingPair@OverlappingPairs@reactphysics3d@@@reactphysics3d@@QEAAX_K@Z 000000014002f980 f i OverlappingPairs.obj
 0001:0002ea40       ?removeConcavePairWithIndex@OverlappingPairs@reactphysics3d@@QEAAX_K_N@Z 000000014002fa40 f   OverlappingPairs.obj
 0001:0002ec50       ?removeConvexPairWithIndex@OverlappingPairs@reactphysics3d@@QEAAX_K_N@Z 000000014002fc50 f   OverlappingPairs.obj
 0001:0002ee20       ?removeDisabledConcavePairWithIndex@OverlappingPairs@reactphysics3d@@AEAAX_K_N@Z 000000014002fe20 f   OverlappingPairs.obj
 0001:0002f010       ?removeDisabledConvexPairWithIndex@OverlappingPairs@reactphysics3d@@AEAAX_K_N@Z 0000000140030010 f   OverlappingPairs.obj
 0001:0002f1e0       ?reserve@?$Array@UConcaveOverlappingPair@OverlappingPairs@reactphysics3d@@@reactphysics3d@@QEAAX_K@Z 00000001400301e0 f i OverlappingPairs.obj
 0001:0002f360       ?reserve@?$Array@UConvexOverlappingPair@OverlappingPairs@reactphysics3d@@@reactphysics3d@@QEAAX_K@Z 0000000140030360 f i OverlappingPairs.obj
 0001:0002f550       ?reserve@?$Map@_KIU?$hash@_K@std@@U?$equal_to@_K@2@@reactphysics3d@@QEAAX_K@Z 0000000140030550 f i CollisionDetectionSystem.obj
 0001:0002f550       ?reserve@?$Map@_KPEAULastFrameCollisionInfo@reactphysics3d@@U?$hash@_K@std@@U?$equal_to@_K@4@@reactphysics3d@@QEAAX_K@Z 0000000140030550 f i OverlappingPairs.obj
 0001:0002f550       ?reserve@?$Map@_K_KU?$hash@_K@std@@U?$equal_to@_K@2@@reactphysics3d@@QEAAX_K@Z 0000000140030550 f i OverlappingPairs.obj
 0001:0002f920       ?updateCollidingInPreviousFrame@OverlappingPairs@reactphysics3d@@QEAAXXZ 0000000140030920 f   OverlappingPairs.obj
 0001:0002f970       ??0HalfEdgeStructure@reactphysics3d@@QEAA@AEAVMemoryAllocator@1@III@Z 0000000140030970 f i PhysicsCommon.obj
 0001:0002faf0       ??0PhysicsCommon@reactphysics3d@@QEAA@PEAVMemoryAllocator@1@@Z 0000000140030af0 f   PhysicsCommon.obj
 0001:0002fe40       ??1?$Array@I@reactphysics3d@@QEAA@XZ 0000000140030e40 f i PhysicsCommon.obj
 0001:0002fe90       ??1HalfEdgeStructure@reactphysics3d@@QEAA@XZ 0000000140030e90 f i PhysicsCommon.obj
 0001:0002ff10       ??1PhysicsCommon@reactphysics3d@@QEAA@XZ 0000000140030f10 f   PhysicsCommon.obj
 0001:00030010       ??_GConvexMesh@reactphysics3d@@QEAAPEAXI@Z 0000000140031010 f i PhysicsCommon.obj
 0001:000300d0       ??_GTriangleMesh@reactphysics3d@@QEAAPEAXI@Z 00000001400310d0 f i PhysicsCommon.obj
 0001:000301a0       ?add@?$Array@UFace@HalfEdgeStructure@reactphysics3d@@@reactphysics3d@@QEAAXAEBUFace@HalfEdgeStructure@2@@Z 00000001400311a0 f i PhysicsCommon.obj
 0001:00030200       ?add@?$Set@PEAVPhysicsWorld@reactphysics3d@@U?$hash@PEAVPhysicsWorld@reactphysics3d@@@std@@U?$equal_to@PEAVPhysicsWorld@reactphysics3d@@@4@@reactphysics3d@@QEAA_NAEBQEAVPhysicsWorld@2@@Z 0000000140031200 f i PhysicsCommon.obj
 0001:000303d0       ?clear@?$Set@PEAVBoxShape@reactphysics3d@@U?$hash@PEAVBoxShape@reactphysics3d@@@std@@U?$equal_to@PEAVBoxShape@reactphysics3d@@@4@@reactphysics3d@@QEAAX_N@Z 00000001400313d0 f i PhysicsCommon.obj
 0001:000303d0       ?clear@?$Set@PEAVCapsuleShape@reactphysics3d@@U?$hash@PEAVCapsuleShape@reactphysics3d@@@std@@U?$equal_to@PEAVCapsuleShape@reactphysics3d@@@4@@reactphysics3d@@QEAAX_N@Z 00000001400313d0 f i PhysicsCommon.obj
 0001:000303d0       ?clear@?$Set@PEAVConcaveMeshShape@reactphysics3d@@U?$hash@PEAVConcaveMeshShape@reactphysics3d@@@std@@U?$equal_to@PEAVConcaveMeshShape@reactphysics3d@@@4@@reactphysics3d@@QEAAX_N@Z 00000001400313d0 f i PhysicsCommon.obj
 0001:000303d0       ?clear@?$Set@PEAVConvexMesh@reactphysics3d@@U?$hash@PEAVConvexMesh@reactphysics3d@@@std@@U?$equal_to@PEAVConvexMesh@reactphysics3d@@@4@@reactphysics3d@@QEAAX_N@Z 00000001400313d0 f i PhysicsCommon.obj
 0001:000303d0       ?clear@?$Set@PEAVConvexMeshShape@reactphysics3d@@U?$hash@PEAVConvexMeshShape@reactphysics3d@@@std@@U?$equal_to@PEAVConvexMeshShape@reactphysics3d@@@4@@reactphysics3d@@QEAAX_N@Z 00000001400313d0 f i PhysicsCommon.obj
 0001:000303d0       ?clear@?$Set@PEAVDefaultLogger@reactphysics3d@@U?$hash@PEAVDefaultLogger@reactphysics3d@@@std@@U?$equal_to@PEAVDefaultLogger@reactphysics3d@@@4@@reactphysics3d@@QEAAX_N@Z 00000001400313d0 f i PhysicsCommon.obj
 0001:000303d0       ?clear@?$Set@PEAVHeightField@reactphysics3d@@U?$hash@PEAVHeightField@reactphysics3d@@@std@@U?$equal_to@PEAVHeightField@reactphysics3d@@@4@@reactphysics3d@@QEAAX_N@Z 00000001400313d0 f i PhysicsCommon.obj
 0001:000303d0       ?clear@?$Set@PEAVHeightFieldShape@reactphysics3d@@U?$hash@PEAVHeightFieldShape@reactphysics3d@@@std@@U?$equal_to@PEAVHeightFieldShape@reactphysics3d@@@4@@reactphysics3d@@QEAAX_N@Z 00000001400313d0 f i PhysicsCommon.obj
 0001:000303d0       ?clear@?$Set@PEAVPhysicsWorld@reactphysics3d@@U?$hash@PEAVPhysicsWorld@reactphysics3d@@@std@@U?$equal_to@PEAVPhysicsWorld@reactphysics3d@@@4@@reactphysics3d@@QEAAX_N@Z 00000001400313d0 f i PhysicsCommon.obj
 0001:000303d0       ?clear@?$Set@PEAVSphereShape@reactphysics3d@@U?$hash@PEAVSphereShape@reactphysics3d@@@std@@U?$equal_to@PEAVSphereShape@reactphysics3d@@@4@@reactphysics3d@@QEAAX_N@Z 00000001400313d0 f i PhysicsCommon.obj
 0001:000303d0       ?clear@?$Set@PEAVTriangleMesh@reactphysics3d@@U?$hash@PEAVTriangleMesh@reactphysics3d@@@std@@U?$equal_to@PEAVTriangleMesh@reactphysics3d@@@4@@reactphysics3d@@QEAAX_N@Z 00000001400313d0 f i PhysicsCommon.obj
 0001:000304d0       ?createPhysicsWorld@PhysicsCommon@reactphysics3d@@QEAAPEAVPhysicsWorld@2@AEBUWorldSettings@32@@Z 00000001400314d0 f   PhysicsCommon.obj
 0001:00030540       ?deleteBoxShape@PhysicsCommon@reactphysics3d@@AEAAXPEAVBoxShape@2@@Z 0000000140031540 f   PhysicsCommon.obj
 0001:00030740       ?deleteCapsuleShape@PhysicsCommon@reactphysics3d@@AEAAXPEAVCapsuleShape@2@@Z 0000000140031740 f   PhysicsCommon.obj
 0001:00030930       ?deleteConcaveMeshShape@PhysicsCommon@reactphysics3d@@AEAAXPEAVConcaveMeshShape@2@@Z 0000000140031930 f   PhysicsCommon.obj
 0001:00030b30       ?deleteConvexMeshShape@PhysicsCommon@reactphysics3d@@AEAAXPEAVConvexMeshShape@2@@Z 0000000140031b30 f   PhysicsCommon.obj
 0001:00030d20       ?deleteHeightFieldShape@PhysicsCommon@reactphysics3d@@AEAAXPEAVHeightFieldShape@2@@Z 0000000140031d20 f   PhysicsCommon.obj
 0001:00030f20       ?deleteSphereShape@PhysicsCommon@reactphysics3d@@AEAAXPEAVSphereShape@2@@Z 0000000140031f20 f   PhysicsCommon.obj
 0001:00031110       ?initBoxShapeHalfEdgeStructure@PhysicsCommon@reactphysics3d@@AEAAXXZ 0000000140032110 f   PhysicsCommon.obj
 0001:00031800       ?initTriangleShapeHalfEdgeStructure@PhysicsCommon@reactphysics3d@@AEAAXXZ 0000000140032800 f   PhysicsCommon.obj
 0001:00031ae0       ?release@PhysicsCommon@reactphysics3d@@AEAAXXZ 0000000140032ae0 f   PhysicsCommon.obj
 0001:00032940       ?reserve@?$Set@PEAVPhysicsWorld@reactphysics3d@@U?$hash@PEAVPhysicsWorld@reactphysics3d@@@std@@U?$equal_to@PEAVPhysicsWorld@reactphysics3d@@@4@@reactphysics3d@@QEAAX_K@Z 0000000140033940 f i PhysicsCommon.obj
 0001:00032cf0       ??$?HDU?$char_traits@D@std@@V?$allocator@D@1@@std@@YA?AV?$basic_string@DU?$char_traits@D@std@@V?$allocator@D@2@@0@QEBDAEBV10@@Z 0000000140033cf0 f i PhysicsWorld.obj
 0001:00032e50       ??0PhysicsWorld@reactphysics3d@@IEAA@AEAVMemoryManager@1@AEAVPhysicsCommon@1@AEBUWorldSettings@01@PEAVProfiler@1@@Z 0000000140033e50 f   PhysicsWorld.obj
 0001:00033930       ??1CollisionDetectionSystem@reactphysics3d@@QEAA@XZ 0000000140034930 f i PhysicsWorld.obj
 0001:00034010       ??1EntityManager@reactphysics3d@@QEAA@XZ 0000000140035010 f i PhysicsWorld.obj
 0001:000340a0       ??1Islands@reactphysics3d@@QEAA@XZ 00000001400350a0 f i PhysicsWorld.obj
 0001:000341b0       ??1PhysicsWorld@reactphysics3d@@IEAA@XZ 00000001400351b0 f   PhysicsWorld.obj
 0001:00034980       ??4?$basic_string@DU?$char_traits@D@std@@V?$allocator@D@2@@std@@QEAAAEAV01@$$QEAV01@@Z 0000000140035980 f i PhysicsWorld.obj
 0001:00034a10       ??6?$basic_ostream@DU?$char_traits@D@std@@@std@@QEAAAEAV01@G@Z 0000000140035a10 f i PhysicsWorld.obj
 0001:00034c00       ??6?$basic_ostream@DU?$char_traits@D@std@@@std@@QEAAAEAV01@_N@Z 0000000140035c00 f i PhysicsWorld.obj
 0001:00034df0       ?clear@Islands@reactphysics3d@@QEAAXXZ 0000000140035df0 f i PhysicsWorld.obj
 0001:00034f30       ?createIslands@PhysicsWorld@reactphysics3d@@IEAAXXZ 0000000140035f30 f   PhysicsWorld.obj
 0001:00035b70       ?destroyJoint@PhysicsWorld@reactphysics3d@@QEAAXPEAVJoint@2@@Z 0000000140036b70 f   PhysicsWorld.obj
 0001:00036100       ?destroyRigidBody@PhysicsWorld@reactphysics3d@@QEAAXPEAVRigidBody@2@@Z 0000000140037100 f   PhysicsWorld.obj
 0001:00036570       ?enableDisableJoints@PhysicsWorld@reactphysics3d@@QEAAXXZ 0000000140037570 f   PhysicsWorld.obj
 0001:00036910       ?find@?$Map@UEntity@reactphysics3d@@IU?$hash@UEntity@reactphysics3d@@@std@@U?$equal_to@UEntity@reactphysics3d@@@4@@reactphysics3d@@QEBA?AVIterator@12@AEBUEntity@2@@Z 0000000140037910 f i PhysicsWorld.obj
 0001:00036a50       ?getRigidBody@PhysicsWorld@reactphysics3d@@QEBAPEBVRigidBody@2@I@Z 0000000140037a50 f   PhysicsWorld.obj
 0001:00036b80       ?remove@?$Set@V?$Pair@UEntity@reactphysics3d@@U12@@reactphysics3d@@U?$hash@V?$Pair@UEntity@reactphysics3d@@U12@@reactphysics3d@@@std@@U?$equal_to@V?$Pair@UEntity@reactphysics3d@@U12@@reactphysics3d@@@4@@reactphysics3d@@QEAA?AVIterator@12@AEBV?$Pair@UEntity@reactphysics3d@@U12@@2@@Z 0000000140037b80 f i PhysicsWorld.obj
 0001:00036e00       ?setBodyDisabled@PhysicsWorld@reactphysics3d@@IEAAXUEntity@2@_N@Z 0000000140037e00 f   PhysicsWorld.obj
 0001:00036f00       ?setGravity@PhysicsWorld@reactphysics3d@@QEAAXAEBUVector3@2@@Z 0000000140037f00 f   PhysicsWorld.obj
 0001:000376e0       ?setJointDisabled@PhysicsWorld@reactphysics3d@@IEAAXUEntity@2@_N@Z 00000001400386e0 f   PhysicsWorld.obj
 0001:00037810       ?to_string@WorldSettings@PhysicsWorld@reactphysics3d@@QEBA?AV?$basic_string@DU?$char_traits@D@std@@V?$allocator@D@2@@std@@XZ 0000000140038810 f i PhysicsWorld.obj
 0001:00038170       ?update@PhysicsWorld@reactphysics3d@@QEAAXM@Z 0000000140039170 f   PhysicsWorld.obj
 0001:00038380       ?updateBodiesInverseWorldInertiaTensors@PhysicsWorld@reactphysics3d@@IEAAXXZ 0000000140039380 f   PhysicsWorld.obj
 0001:00038770       ?updateSleepingBodies@PhysicsWorld@reactphysics3d@@IEAAXM@Z 0000000140039770 f   PhysicsWorld.obj
 0001:00038a00       ?getInverse@Matrix2x2@reactphysics3d@@QEBA?AV12@M@Z 0000000140039a00 f   Matrix2x2.obj
 0001:00038a60       ?getInverse@Matrix3x3@reactphysics3d@@QEBA?AV12@M@Z 0000000140039a60 f   Matrix3x3.obj
 0001:00038c80       ?getMatrix@Quaternion@reactphysics3d@@QEBA?AVMatrix3x3@2@XZ 0000000140039c80 f   Quaternion.obj
 0001:00038e20       ?getOpenGLMatrix@Transform@reactphysics3d@@QEBAXPEAM@Z 0000000140039e20 f   Transform.obj
 0001:00038ed0       ?getOneUnitOrthogonalVector@Vector3@reactphysics3d@@QEBA?AU12@XZ 0000000140039ed0 f   Vector3.obj
 0001:00038fe0       ?getUnit@Vector3@reactphysics3d@@QEBA?AU12@XZ 0000000140039fe0 f   Vector3.obj
 0001:00039060       ??0HeapAllocator@reactphysics3d@@QEAA@AEAVMemoryAllocator@1@_K@Z 000000014003a060 f   HeapAllocator.obj
 0001:00039130       ??1HeapAllocator@reactphysics3d@@UEAA@XZ 000000014003a130 f   HeapAllocator.obj
 0001:00039190       ??_EHeapAllocator@reactphysics3d@@UEAAPEAXI@Z 000000014003a190 f i HeapAllocator.obj
 0001:00039190       ??_GHeapAllocator@reactphysics3d@@UEAAPEAXI@Z 000000014003a190 f i HeapAllocator.obj
 0001:00039210       ?allocate@HeapAllocator@reactphysics3d@@UEAAPEAX_K@Z 000000014003a210 f   HeapAllocator.obj
 0001:00039360       ?release@HeapAllocator@reactphysics3d@@UEAAXPEAX_K@Z 000000014003a360 f   HeapAllocator.obj
 0001:000394a0       ?removeFromFreeUnits@HeapAllocator@reactphysics3d@@AEAAXPEAUMemoryUnitHeader@12@@Z 000000014003a4a0 f   HeapAllocator.obj
 0001:00039510       ?reserve@HeapAllocator@reactphysics3d@@AEAAX_K@Z 000000014003a510 f   HeapAllocator.obj
 0001:00039580       ?alignAddress@MemoryAllocator@reactphysics3d@@SAPEAXPEAXE@Z 000000014003a580 f   MemoryAllocator.obj
 0001:000395a0       ?alignAddress@MemoryAllocator@reactphysics3d@@SAPEAXPEAXEAEA_J@Z 000000014003a5a0 f   MemoryAllocator.obj
 0001:000395c0       ??0MemoryManager@reactphysics3d@@QEAA@PEAVMemoryAllocator@1@_K@Z 000000014003a5c0 f   MemoryManager.obj
 0001:00039620       ?allocate@DefaultAllocator@reactphysics3d@@UEAAPEAX_K@Z 000000014003a620 f i MemoryManager.obj
 0001:00039630       ?release@DefaultAllocator@reactphysics3d@@UEAAXPEAX_K@Z 000000014003a630 f i MemoryManager.obj
 0001:00039640       ??0PoolAllocator@reactphysics3d@@QEAA@AEAVMemoryAllocator@1@@Z 000000014003a640 f   PoolAllocator.obj
 0001:00039820       ??1PoolAllocator@reactphysics3d@@UEAA@XZ 000000014003a820 f   PoolAllocator.obj
 0001:000398a0       ??_EPoolAllocator@reactphysics3d@@UEAAPEAXI@Z 000000014003a8a0 f i PoolAllocator.obj
 0001:000398a0       ??_GPoolAllocator@reactphysics3d@@UEAAPEAXI@Z 000000014003a8a0 f i PoolAllocator.obj
 0001:00039940       ?allocate@PoolAllocator@reactphysics3d@@UEAAPEAX_K@Z 000000014003a940 f   PoolAllocator.obj
 0001:00039b00       ?release@PoolAllocator@reactphysics3d@@UEAAXPEAX_K@Z 000000014003ab00 f   PoolAllocator.obj
 0001:00039bb0       ??0SingleFrameAllocator@reactphysics3d@@QEAA@AEAVMemoryAllocator@1@@Z 000000014003abb0 f   SingleFrameAllocator.obj
 0001:00039c30       ??1SingleFrameAllocator@reactphysics3d@@UEAA@XZ 000000014003ac30 f   SingleFrameAllocator.obj
 0001:00039c50       ??_ESingleFrameAllocator@reactphysics3d@@UEAAPEAXI@Z 000000014003ac50 f i SingleFrameAllocator.obj
 0001:00039c50       ??_GSingleFrameAllocator@reactphysics3d@@UEAAPEAXI@Z 000000014003ac50 f i SingleFrameAllocator.obj
 0001:00039ca0       ?allocate@SingleFrameAllocator@reactphysics3d@@UEAAPEAX_K@Z 000000014003aca0 f   SingleFrameAllocator.obj
 0001:00039d50       ?release@SingleFrameAllocator@reactphysics3d@@UEAAXPEAX_K@Z 000000014003ad50 f   SingleFrameAllocator.obj
 0001:00039de0       ?reset@SingleFrameAllocator@reactphysics3d@@UEAAXXZ 000000014003ade0 f   SingleFrameAllocator.obj
 0001:00039e80       ??0BroadPhaseSystem@reactphysics3d@@QEAA@AEAVCollisionDetectionSystem@1@AEAVColliderComponents@1@AEAVTransformComponents@1@AEAVRigidBodyComponents@1@@Z 000000014003ae80 f   BroadPhaseSystem.obj
 0001:00039f20       ?addMovedCollider@BroadPhaseSystem@reactphysics3d@@QEAAXHPEAVCollider@2@@Z 000000014003af20 f   BroadPhaseSystem.obj
 0001:0003a090       ?computeOverlappingPairs@BroadPhaseSystem@reactphysics3d@@QEAAXAEAVMemoryManager@2@AEAV?$Array@V?$Pair@HH@reactphysics3d@@@2@@Z 000000014003b090 f   BroadPhaseSystem.obj
 0001:0003a4b0       ?reserve@?$Set@HU?$hash@H@std@@U?$equal_to@H@2@@reactphysics3d@@QEAAX_K@Z 000000014003b4b0 f i BroadPhaseSystem.obj
 0001:0003a820       ?testOverlappingShapes@BroadPhaseSystem@reactphysics3d@@QEBA_NHH@Z 000000014003b820 f   BroadPhaseSystem.obj
 0001:0003a8a0       ?updateColliders@BroadPhaseSystem@reactphysics3d@@QEAAXXZ 000000014003b8a0 f   BroadPhaseSystem.obj
 0001:0003a8c0       ?updateCollidersComponents@BroadPhaseSystem@reactphysics3d@@IEAAXII@Z 000000014003b8c0 f   BroadPhaseSystem.obj
 0001:0003ad20       ??$emplace@AEA_KAEAUEntity@reactphysics3d@@AEAU12@AEAPEAULastFrameCollisionInfo@2@AEAVMemoryAllocator@2@AEBVTransform@2@AEBV52@AEAPEAVCollisionShape@2@AEAPEAV62@AEA_N@?$Array@UNarrowPhaseInfo@NarrowPhaseInfoBatch@reactphysics3d@@@reactphysics3d@@QEAAXAEA_KAEAUEntity@1@1AEAPEAULastFrameCollisionInfo@1@AEAVMemoryAllocator@1@AEBVTransform@1@4AEAPEAVCollisionShape@1@5AEA_N@Z 000000014003bd20 f i CollisionDetectionSystem.obj
 0001:0003af60       ??0CollisionDetectionSystem@reactphysics3d@@QEAA@PEAVPhysicsWorld@1@AEAVColliderComponents@1@AEAVTransformComponents@1@AEAVBodyComponents@1@AEAVRigidBodyComponents@1@AEAVMemoryManager@1@AEAVHalfEdgeStructure@1@@Z 000000014003bf60 f   CollisionDetectionSystem.obj
 0001:0003b2f0       ?add@?$Array@UContactPair@reactphysics3d@@@reactphysics3d@@QEAAXAEBUContactPair@2@@Z 000000014003c2f0 f i CollisionDetectionSystem.obj
 0001:0003b3b0       ?addLastFrameInfoIfNecessary@ConcaveOverlappingPair@OverlappingPairs@reactphysics3d@@QEAAPEAULastFrameCollisionInfo@3@II@Z 000000014003c3b0 f i CollisionDetectionSystem.obj
 0001:0003b5d0       ?addLostContactPair@CollisionDetectionSystem@reactphysics3d@@AEAAXAEAUOverlappingPair@OverlappingPairs@2@@Z 000000014003c5d0 f   CollisionDetectionSystem.obj
 0001:0003b700       ?computeBroadPhase@CollisionDetectionSystem@reactphysics3d@@AEAAXXZ 000000014003c700 f   CollisionDetectionSystem.obj
 0001:0003b870       ?computeCollisionDetection@CollisionDetectionSystem@reactphysics3d@@QEAAXXZ 000000014003c870 f   CollisionDetectionSystem.obj
 0001:0003b8a0       ?computeConvexVsConcaveMiddlePhase@CollisionDetectionSystem@reactphysics3d@@AEAAXAEAUConcaveOverlappingPair@OverlappingPairs@2@AEAVMemoryAllocator@2@AEAVNarrowPhaseInput@2@_N@Z 000000014003c8a0 f   CollisionDetectionSystem.obj
 0001:0003c6b0       ?computeMapPreviousContactPairs@CollisionDetectionSystem@reactphysics3d@@AEAAXXZ 000000014003d6b0 f   CollisionDetectionSystem.obj
 0001:0003c8b0       ?computeMiddlePhase@CollisionDetectionSystem@reactphysics3d@@AEAAXAEAVNarrowPhaseInput@2@_N1@Z 000000014003d8b0 f   CollisionDetectionSystem.obj
 0001:0003cce0       ?computeNarrowPhase@CollisionDetectionSystem@reactphysics3d@@AEAAXXZ 000000014003dce0 f   CollisionDetectionSystem.obj
 0001:0003cf20       ?createContacts@CollisionDetectionSystem@reactphysics3d@@AEAAXXZ 000000014003df20 f   CollisionDetectionSystem.obj
 0001:0003d310       ?disableOverlappingPair@CollisionDetectionSystem@reactphysics3d@@AEAAX_K@Z 000000014003e310 f   CollisionDetectionSystem.obj
 0001:0003d320       ?findEntry@?$Set@V?$Pair@UEntity@reactphysics3d@@U12@@reactphysics3d@@U?$hash@V?$Pair@UEntity@reactphysics3d@@U12@@reactphysics3d@@@std@@U?$equal_to@V?$Pair@UEntity@reactphysics3d@@U12@@reactphysics3d@@@4@@reactphysics3d@@AEBA_KAEBV?$Pair@UEntity@reactphysics3d@@U12@@2@@Z 000000014003e320 f i CollisionDetectionSystem.obj
 0001:0003d4e0       ?initContactsWithPreviousOnes@CollisionDetectionSystem@reactphysics3d@@AEAAXXZ 000000014003e4e0 f   CollisionDetectionSystem.obj
 0001:0003d930       ?notifyOverlappingPairsToTestOverlap@CollisionDetectionSystem@reactphysics3d@@QEAAXPEAVCollider@2@@Z 000000014003e930 f   CollisionDetectionSystem.obj
 0001:0003da50       ?processAllPotentialContacts@CollisionDetectionSystem@reactphysics3d@@AEAAXAEAVNarrowPhaseInput@2@_NAEAV?$Array@UContactPointInfo@reactphysics3d@@@2@AEAV?$Array@UContactManifoldInfo@reactphysics3d@@@2@PEAV?$Array@UContactPair@reactphysics3d@@@2@@Z 000000014003ea50 f   CollisionDetectionSystem.obj
 0001:0003dca0       ?processPotentialContacts@CollisionDetectionSystem@reactphysics3d@@AEAAXAEAUNarrowPhaseInfoBatch@2@_NAEAV?$Array@UContactPointInfo@reactphysics3d@@@2@AEAV?$Array@UContactManifoldInfo@reactphysics3d@@@2@AEAV?$Map@_KIU?$hash@_K@std@@U?$equal_to@_K@2@@2@PEAV?$Array@UContactPair@reactphysics3d@@@2@@Z 000000014003eca0 f   CollisionDetectionSystem.obj
 0001:0003e780       ?reduceContactPoints@CollisionDetectionSystem@reactphysics3d@@AEBAXAEAUContactManifoldInfo@2@AEBVTransform@2@AEBV?$Array@UContactPointInfo@reactphysics3d@@@2@@Z 000000014003f780 f   CollisionDetectionSystem.obj
 0001:0003f450       ?reducePotentialContactManifolds@CollisionDetectionSystem@reactphysics3d@@AEBAXPEAV?$Array@UContactPair@reactphysics3d@@@2@AEAV?$Array@UContactManifoldInfo@reactphysics3d@@@2@AEBV?$Array@UContactPointInfo@reactphysics3d@@@2@@Z 0000000140040450 f   CollisionDetectionSystem.obj
 0001:0003f840       ?reportContacts@CollisionDetectionSystem@reactphysics3d@@AEAAXAEAVCollisionCallback@2@PEAV?$Array@UContactPair@reactphysics3d@@@2@PEAV?$Array@VContactManifold@reactphysics3d@@@2@PEAV?$Array@VContactPoint@reactphysics3d@@@2@AEAV42@@Z 0000000140040840 f   CollisionDetectionSystem.obj
 0001:0003f910       ?reportContactsAndTriggers@CollisionDetectionSystem@reactphysics3d@@QEAAXXZ 0000000140040910 f   CollisionDetectionSystem.obj
 0001:0003fb30       ?reserve@?$Array@UContactManifoldInfo@reactphysics3d@@@reactphysics3d@@QEAAX_K@Z 0000000140040b30 f i CollisionDetectionSystem.obj
 0001:0003fc40       ?reserve@?$Array@UContactPair@reactphysics3d@@@reactphysics3d@@QEAAX_K@Z 0000000140040c40 f i CollisionDetectionSystem.obj
 0001:0003fd50       ?reserve@?$Array@UContactPointInfo@reactphysics3d@@@reactphysics3d@@QEAAX_K@Z 0000000140040d50 f i CollisionDetectionSystem.obj
 0001:0003fe70       ?reserve@?$Array@VContactManifold@reactphysics3d@@@reactphysics3d@@QEAAX_K@Z 0000000140040e70 f i CollisionDetectionSystem.obj
 0001:0003ff80       ?reserve@?$Array@VContactPoint@reactphysics3d@@@reactphysics3d@@QEAAX_K@Z 0000000140040f80 f i CollisionDetectionSystem.obj
 0001:000400a0       ?testNarrowPhaseCollision@CollisionDetectionSystem@reactphysics3d@@AEAA_NAEAVNarrowPhaseInput@2@_NAEAVMemoryAllocator@2@@Z 00000001400410a0 f   CollisionDetectionSystem.obj
 0001:00040210       ?updateOverlappingPairs@CollisionDetectionSystem@reactphysics3d@@AEAAXAEBV?$Array@V?$Pair@HH@reactphysics3d@@@2@@Z 0000000140041210 f   CollisionDetectionSystem.obj
 0001:00040750       ??0ConstraintSolverSystem@reactphysics3d@@QEAA@AEAVPhysicsWorld@1@AEAUIslands@1@AEAVRigidBodyComponents@1@AEAVTransformComponents@1@AEAVJointComponents@1@AEAVBallAndSocketJointComponents@1@AEAVFixedJointComponents@1@AEAVHingeJointComponents@1@AEAVSliderJointComponents@1@@Z 0000000140041750 f   ConstraintSolverSystem.obj
 0001:00040850       ?initialize@ConstraintSolverSystem@reactphysics3d@@QEAAXM@Z 0000000140041850 f   ConstraintSolverSystem.obj
 0001:00040930       ?solvePositionConstraints@ConstraintSolverSystem@reactphysics3d@@QEAAXXZ 0000000140041930 f   ConstraintSolverSystem.obj
 0001:00040970       ?solveVelocityConstraints@ConstraintSolverSystem@reactphysics3d@@QEAAXXZ 0000000140041970 f   ConstraintSolverSystem.obj
 0001:000409b0       ??0ContactSolverSystem@reactphysics3d@@QEAA@AEAVMemoryManager@1@AEAVPhysicsWorld@1@AEAUIslands@1@AEAVBodyComponents@1@AEAVRigidBodyComponents@1@AEAVColliderComponents@1@AEAM@Z 00000001400419b0 f   ContactSolverSystem.obj
 0001:00040a10       ?init@ContactSolverSystem@reactphysics3d@@QEAAXPEAV?$Array@VContactManifold@reactphysics3d@@@2@PEAV?$Array@VContactPoint@reactphysics3d@@@2@M@Z 0000000140041a10 f   ContactSolverSystem.obj
 0001:00040af0       ?initializeForIsland@ContactSolverSystem@reactphysics3d@@QEAAXI@Z 0000000140041af0 f   ContactSolverSystem.obj
 0001:000428f0       ?reset@ContactSolverSystem@reactphysics3d@@QEAAXXZ 00000001400438f0 f   ContactSolverSystem.obj
 0001:00042960       ?solve@ContactSolverSystem@reactphysics3d@@QEAAXXZ 0000000140043960 f   ContactSolverSystem.obj
 0001:00044200       ?storeImpulses@ContactSolverSystem@reactphysics3d@@QEAAXXZ 0000000140045200 f   ContactSolverSystem.obj
 0001:00044310       ?warmStart@ContactSolverSystem@reactphysics3d@@AEAAXXZ 0000000140045310 f   ContactSolverSystem.obj
 0001:00045350       ??0DynamicsSystem@reactphysics3d@@QEAA@AEAVPhysicsWorld@1@AEAVBodyComponents@1@AEAVRigidBodyComponents@1@AEAVTransformComponents@1@AEAVColliderComponents@1@AEA_NAEAUVector3@1@@Z 0000000140046350 f   DynamicsSystem.obj
 0001:00045390       ?integrateRigidBodiesPositions@DynamicsSystem@reactphysics3d@@QEAAXM_N@Z 0000000140046390 f   DynamicsSystem.obj
 0001:000457a0       ?integrateRigidBodiesVelocities@DynamicsSystem@reactphysics3d@@QEAAXM@Z 00000001400467a0 f   DynamicsSystem.obj
 0001:00046180       ?resetBodiesForceAndTorque@DynamicsSystem@reactphysics3d@@QEAAXXZ 0000000140047180 f   DynamicsSystem.obj
 0001:000462d0       ?resetSplitVelocities@DynamicsSystem@reactphysics3d@@QEAAXXZ 00000001400472d0 f   DynamicsSystem.obj
 0001:00046420       ?updateBodiesState@DynamicsSystem@reactphysics3d@@QEAAXXZ 0000000140047420 f   DynamicsSystem.obj
 0001:00046b20       ??0SolveBallAndSocketJointSystem@reactphysics3d@@QEAA@AEAVPhysicsWorld@1@AEAVRigidBodyComponents@1@AEAVTransformComponents@1@AEAVJointComponents@1@AEAVBallAndSocketJointComponents@1@@Z 0000000140047b20 f   SolveBallAndSocketJointSystem.obj
 0001:00046b20       ??0SolveFixedJointSystem@reactphysics3d@@QEAA@AEAVPhysicsWorld@1@AEAVRigidBodyComponents@1@AEAVTransformComponents@1@AEAVJointComponents@1@AEAVFixedJointComponents@1@@Z 0000000140047b20 f   SolveFixedJointSystem.obj
 0001:00046b20       ??0SolveHingeJointSystem@reactphysics3d@@QEAA@AEAVPhysicsWorld@1@AEAVRigidBodyComponents@1@AEAVTransformComponents@1@AEAVJointComponents@1@AEAVHingeJointComponents@1@@Z 0000000140047b20 f   SolveHingeJointSystem.obj
 0001:00046b20       ??0SolveSliderJointSystem@reactphysics3d@@QEAA@AEAVPhysicsWorld@1@AEAVRigidBodyComponents@1@AEAVTransformComponents@1@AEAVJointComponents@1@AEAVSliderJointComponents@1@@Z 0000000140047b20 f   SolveSliderJointSystem.obj
 0001:00046b50       ?initBeforeSolve@SolveBallAndSocketJointSystem@reactphysics3d@@QEAAXXZ 0000000140047b50 f   SolveBallAndSocketJointSystem.obj
 0001:00047aa0       ?solvePositionConstraint@SolveBallAndSocketJointSystem@reactphysics3d@@QEAAXXZ 0000000140048aa0 f   SolveBallAndSocketJointSystem.obj
 0001:000497d0       ?solveVelocityConstraint@SolveBallAndSocketJointSystem@reactphysics3d@@QEAAXXZ 000000014004a7d0 f   SolveBallAndSocketJointSystem.obj
 0001:0004a190       ?warmstart@SolveBallAndSocketJointSystem@reactphysics3d@@QEAAXXZ 000000014004b190 f   SolveBallAndSocketJointSystem.obj
 0001:0004a760       ?initBeforeSolve@SolveFixedJointSystem@reactphysics3d@@QEAAXXZ 000000014004b760 f   SolveFixedJointSystem.obj
 0001:0004b7b0       ?solvePositionConstraint@SolveFixedJointSystem@reactphysics3d@@QEAAXXZ 000000014004c7b0 f   SolveFixedJointSystem.obj
 0001:0004d560       ?solveVelocityConstraint@SolveFixedJointSystem@reactphysics3d@@QEAAXXZ 000000014004e560 f   SolveFixedJointSystem.obj
 0001:0004df60       ?warmstart@SolveFixedJointSystem@reactphysics3d@@QEAAXXZ 000000014004ef60 f   SolveFixedJointSystem.obj
 0001:0004e4f0       ?computeCurrentHingeAngle@SolveHingeJointSystem@reactphysics3d@@AEAAMUEntity@2@AEBUQuaternion@2@1@Z 000000014004f4f0 f   SolveHingeJointSystem.obj
 0001:0004ea30       ?initBeforeSolve@SolveHingeJointSystem@reactphysics3d@@QEAAXXZ 000000014004fa30 f   SolveHingeJointSystem.obj
 0001:00050290       ?solvePositionConstraint@SolveHingeJointSystem@reactphysics3d@@QEAAXXZ 0000000140051290 f   SolveHingeJointSystem.obj
 0001:00053090       ?solveVelocityConstraint@SolveHingeJointSystem@reactphysics3d@@QEAAXXZ 0000000140054090 f   SolveHingeJointSystem.obj
 0001:000543f0       ?warmstart@SolveHingeJointSystem@reactphysics3d@@QEAAXXZ 00000001400553f0 f   SolveHingeJointSystem.obj
 0001:00054b00       ?initBeforeSolve@SolveSliderJointSystem@reactphysics3d@@QEAAXXZ 0000000140055b00 f   SolveSliderJointSystem.obj
 0001:000563e0       ?solvePositionConstraint@SolveSliderJointSystem@reactphysics3d@@QEAAXXZ 00000001400573e0 f   SolveSliderJointSystem.obj
 0001:000596c0       ?solveVelocityConstraint@SolveSliderJointSystem@reactphysics3d@@QEAAXXZ 000000014005a6c0 f   SolveSliderJointSystem.obj
 0001:0005ae30       ?warmstart@SolveSliderJointSystem@reactphysics3d@@QEAAXXZ 000000014005be30 f   SolveSliderJointSystem.obj
 0001:0005b640       ??0DebugRenderer@reactphysics3d@@QEAA@AEAVMemoryAllocator@1@@Z 000000014005c640 f   DebugRenderer.obj
 0001:0005b7a0       ??1DebugRenderer@reactphysics3d@@UEAA@XZ 000000014005c7a0 f   DebugRenderer.obj
 0001:0005b820       ??A?$Map@W4DebugItem@DebugRenderer@reactphysics3d@@IU?$hash@W4DebugItem@DebugRenderer@reactphysics3d@@@std@@U?$equal_to@W4DebugItem@DebugRenderer@reactphysics3d@@@5@@reactphysics3d@@QEAAAEAIAEBW4DebugItem@DebugRenderer@1@@Z 000000014005c820 f i DebugRenderer.obj
 0001:0005b940       ??_EDebugRenderer@reactphysics3d@@UEAAPEAXI@Z 000000014005c940 f i DebugRenderer.obj
 0001:0005b940       ??_GDebugRenderer@reactphysics3d@@UEAAPEAXI@Z 000000014005c940 f i DebugRenderer.obj
 0001:0005b9f0       ?add@?$Array@UDebugTriangle@DebugRenderer@reactphysics3d@@@reactphysics3d@@QEAAXAEBUDebugTriangle@DebugRenderer@2@@Z 000000014005c9f0 f i DebugRenderer.obj
 0001:0005ba60       ?add@?$Map@W4DebugItem@DebugRenderer@reactphysics3d@@IU?$hash@W4DebugItem@DebugRenderer@reactphysics3d@@@std@@U?$equal_to@W4DebugItem@DebugRenderer@reactphysics3d@@@5@@reactphysics3d@@QEAA_NAEBV?$Pair@W4DebugItem@DebugRenderer@reactphysics3d@@I@2@_N@Z 000000014005ca60 f i DebugRenderer.obj
 0001:0005bc00       ?computeDebugRenderingPrimitives@DebugRenderer@reactphysics3d@@QEAAXAEBVPhysicsWorld@2@@Z 000000014005cc00 f   DebugRenderer.obj
 0001:0005bf60       ?drawAABB@DebugRenderer@reactphysics3d@@AEAAXAEBVAABB@2@I@Z 000000014005cf60 f   DebugRenderer.obj
 0001:0005c540       ?drawBox@DebugRenderer@reactphysics3d@@AEAAXAEBVTransform@2@PEBVBoxShape@2@II@Z 000000014005d540 f   DebugRenderer.obj
 0001:0005d680       ?drawCapsule@DebugRenderer@reactphysics3d@@AEAAXAEBVTransform@2@MMI@Z 000000014005e680 f   DebugRenderer.obj
 0001:0005e0a0       ?drawCollisionShapeOfCollider@DebugRenderer@reactphysics3d@@AEAAXPEBVCollider@2@@Z 000000014005f0a0 f   DebugRenderer.obj
 0001:0005e290       ?drawConcaveMeshShape@DebugRenderer@reactphysics3d@@AEAAXAEBVTransform@2@PEBVConcaveMeshShape@2@II@Z 000000014005f290 f   DebugRenderer.obj
 0001:0005ebf0       ?drawConvexMesh@DebugRenderer@reactphysics3d@@AEAAXAEBVTransform@2@PEBVConvexMeshShape@2@II@Z 000000014005fbf0 f   DebugRenderer.obj
 0001:0005f560       ?drawHeightFieldShape@DebugRenderer@reactphysics3d@@AEAAXAEBVTransform@2@PEBVHeightFieldShape@2@II@Z 0000000140060560 f   DebugRenderer.obj
 0001:00060200       ?drawSphere@DebugRenderer@reactphysics3d@@AEAAXAEBUVector3@2@MI@Z 0000000140061200 f   DebugRenderer.obj
 0001:00060590       ?onContact@DebugRenderer@reactphysics3d@@UEAAXAEBVCallbackData@CollisionCallback@2@@Z 0000000140061590 f   DebugRenderer.obj
 0001:00060b80       ?reserve@?$Array@UDebugLine@DebugRenderer@reactphysics3d@@@reactphysics3d@@QEAAX_K@Z 0000000140061b80 f i DebugRenderer.obj
 0001:00060c90       ?reserve@?$Array@UDebugTriangle@DebugRenderer@reactphysics3d@@@reactphysics3d@@QEAAX_K@Z 0000000140061c90 f i DebugRenderer.obj
 0001:00060db0       ?reserve@?$Map@W4DebugItem@DebugRenderer@reactphysics3d@@IU?$hash@W4DebugItem@DebugRenderer@reactphysics3d@@@std@@U?$equal_to@W4DebugItem@DebugRenderer@reactphysics3d@@@5@@reactphysics3d@@QEAAX_K@Z 0000000140061db0 f i DebugRenderer.obj
 0001:00061140       ?reset@DebugRenderer@reactphysics3d@@QEAAXXZ 0000000140062140 f   DebugRenderer.obj
 0001:00061150       ??$_Reallocate_grow_by@V<lambda_1>@?1??push_back@?$basic_string@DU?$char_traits@D@std@@V?$allocator@D@2@@std@@QEAAXD@Z@D@?$basic_string@DU?$char_traits@D@std@@V?$allocator@D@2@@std@@AEAAAEAV01@_KV<lambda_1>@?1??push_back@01@QEAAXD@Z@D@Z 0000000140062150 f i DefaultLogger.obj
 0001:000612c0       ??$use_facet@V?$codecvt@DDU_Mbstatet@@@std@@@std@@YAAEBV?$codecvt@DDU_Mbstatet@@@0@AEBVlocale@0@@Z 00000001400622c0 f i DefaultLogger.obj
 0001:00061510       ??1?$basic_filebuf@DU?$char_traits@D@std@@@std@@UEAA@XZ 0000000140062510 f i DefaultLogger.obj
 0001:000615c0       ??_E?$basic_filebuf@DU?$char_traits@D@std@@@std@@UEAAPEAXI@Z 00000001400625c0 f i DefaultLogger.obj
 0001:000615c0       ??_G?$basic_filebuf@DU?$char_traits@D@std@@@std@@UEAAPEAXI@Z 00000001400625c0 f i DefaultLogger.obj
 0001:00061600       ?_Endwrite@?$basic_filebuf@DU?$char_traits@D@std@@@std@@IEAA_NXZ 0000000140062600 f i DefaultLogger.obj
 0001:000616d0       ?_Init@?$basic_filebuf@DU?$char_traits@D@std@@@std@@IEAAXPEAU_iobuf@@W4_Initfl@12@@Z 00000001400626d0 f i DefaultLogger.obj
 0001:000617a0       ?_Initcvt@?$basic_filebuf@DU?$char_traits@D@std@@@std@@IEAAXAEBV?$codecvt@DDU_Mbstatet@@@2@@Z 00000001400627a0 f i DefaultLogger.obj
 0001:00061820       ?_Lock@?$basic_filebuf@DU?$char_traits@D@std@@@std@@UEAAXXZ 0000000140062820 f i DefaultLogger.obj
 0001:00061840       ?_Reset_back@?$basic_filebuf@DU?$char_traits@D@std@@@std@@AEAAXXZ 0000000140062840 f i DefaultLogger.obj
 0001:00061870       ?_Unlock@?$basic_filebuf@DU?$char_traits@D@std@@@std@@UEAAXXZ 0000000140062870 f i DefaultLogger.obj
 0001:00061890       ?close@?$basic_filebuf@DU?$char_traits@D@std@@@std@@QEAAPEAV12@XZ 0000000140062890 f i DefaultLogger.obj
 0001:000619a0       ?do_encoding@codecvt_base@std@@MEBAHXZ 00000001400629a0 f i DefaultLogger.obj
 0001:000619a0       ?do_max_length@codecvt_base@std@@MEBAHXZ 00000001400629a0 f i DefaultLogger.obj
 0001:000619a0       _get_startup_argv_mode     00000001400629a0 f i LIBCMT:argv_mode.obj
 0001:000619b0       ?do_in@?$codecvt@DDU_Mbstatet@@@std@@MEBAHAEAU_Mbstatet@@PEBD1AEAPEBDPEAD3AEAPEAD@Z 00000001400629b0 f i DefaultLogger.obj
 0001:000619b0       ?do_out@?$codecvt@DDU_Mbstatet@@@std@@MEBAHAEAU_Mbstatet@@PEBD1AEAPEBDPEAD3AEAPEAD@Z 00000001400629b0 f i DefaultLogger.obj
 0001:000619d0       ?do_length@?$codecvt@DDU_Mbstatet@@@std@@MEBAHAEAU_Mbstatet@@PEBD1_K@Z 00000001400629d0 f i DefaultLogger.obj
 0001:000619f0       ?do_unshift@?$codecvt@DDU_Mbstatet@@@std@@MEBAHAEAU_Mbstatet@@PEAD1AEAPEAD@Z 00000001400629f0 f i DefaultLogger.obj
 0001:00061a00       ?imbue@?$basic_filebuf@DU?$char_traits@D@std@@@std@@MEAAXAEBVlocale@2@@Z 0000000140062a00 f i DefaultLogger.obj
 0001:00061a30       ?overflow@?$basic_filebuf@DU?$char_traits@D@std@@@std@@MEAAHH@Z 0000000140062a30 f i DefaultLogger.obj
 0001:00061bd0       ?pbackfail@?$basic_filebuf@DU?$char_traits@D@std@@@std@@MEAAHH@Z 0000000140062bd0 f i DefaultLogger.obj
 0001:00061cc0       ?seekoff@?$basic_filebuf@DU?$char_traits@D@std@@@std@@MEAA?AV?$fpos@U_Mbstatet@@@2@_JHH@Z 0000000140062cc0 f i DefaultLogger.obj
 0001:00061d90       ?seekpos@?$basic_filebuf@DU?$char_traits@D@std@@@std@@MEAA?AV?$fpos@U_Mbstatet@@@2@V32@H@Z 0000000140062d90 f i DefaultLogger.obj
 0001:00061e50       ?setbuf@?$basic_filebuf@DU?$char_traits@D@std@@@std@@MEAAPEAV?$basic_streambuf@DU?$char_traits@D@std@@@2@PEAD_J@Z 0000000140062e50 f i DefaultLogger.obj
 0001:00061eb0       ?sync@?$basic_filebuf@DU?$char_traits@D@std@@@std@@MEAAHXZ 0000000140062eb0 f i DefaultLogger.obj
 0001:00061f00       ?uflow@?$basic_filebuf@DU?$char_traits@D@std@@@std@@MEAAHXZ 0000000140062f00 f i DefaultLogger.obj
 0001:000621e0       ?underflow@?$basic_filebuf@DU?$char_traits@D@std@@@std@@MEAAHXZ 00000001400631e0 f i DefaultLogger.obj
 0001:00062250       ?xsgetn@?$basic_filebuf@DU?$char_traits@D@std@@@std@@MEAA_JPEAD_J@Z 0000000140063250 f i DefaultLogger.obj
 0001:00062410       ?xsputn@?$basic_filebuf@DU?$char_traits@D@std@@@std@@MEAA_JPEBD_J@Z 0000000140063410 f i DefaultLogger.obj
 0001:00062550       ??$_Find_last@V?$basic_string@DU?$char_traits@D@std@@V?$allocator@D@2@@std@@@?$_Hash@V?$_Umap_traits@V?$basic_string@DU?$char_traits@D@std@@V?$allocator@D@2@@std@@IV?$_Uhash_compare@V?$basic_string@DU?$char_traits@D@std@@V?$allocator@D@2@@std@@U?$hash@V?$basic_string@DU?$char_traits@D@std@@V?$allocator@D@2@@std@@@2@U?$equal_to@V?$basic_string@DU?$char_traits@D@std@@V?$allocator@D@2@@std@@@2@@2@V?$allocator@U?$pair@$$CBV?$basic_string@DU?$char_traits@D@std@@V?$allocator@D@2@@std@@I@std@@@2@$0A@@std@@@std@@IEBA?AU?$_Hash_find_last_result@PEAU?$_List_node@U?$pair@$$CBV?$basic_string@DU?$char_traits@D@std@@V?$allocator@D@2@@std@@I@std@@PEAX@std@@@1@AEBV?$basic_string@DU?$char_traits@D@std@@V?$allocator@D@2@@1@_K@Z 0000000140063550 f i Zenith_AssetHandler.obj
 0001:00062550       ??$_Find_last@V?$basic_string@DU?$char_traits@D@std@@V?$allocator@D@2@@std@@@?$_Hash@V?$_Umap_traits@V?$basic_string@DU?$char_traits@D@std@@V?$allocator@D@2@@std@@U?$pair@IU?$mat@$03$03M$0A@@glm@@@2@V?$_Uhash_compare@V?$basic_string@DU?$char_traits@D@std@@V?$allocator@D@2@@std@@U?$hash@V?$basic_string@DU?$char_traits@D@std@@V?$allocator@D@2@@std@@@2@U?$equal_to@V?$basic_string@DU?$char_traits@D@std@@V?$allocator@D@2@@std@@@2@@2@V?$allocator@U?$pair@$$CBV?$basic_string@DU?$char_traits@D@std@@V?$allocator@D@2@@std@@U?$pair@IU?$mat@$03$03M$0A@@glm@@@2@@std@@@2@$0A@@std@@@std@@IEBA?AU?$_Hash_find_last_result@PEAU?$_List_node@U?$pair@$$CBV?$basic_string@DU?$char_traits@D@std@@V?$allocator@D@2@@std@@U?$pair@IU?$mat@$03$03M$0A@@glm@@@2@@std@@PEAX@std@@@1@AEBV?$basic_string@DU?$char_traits@D@std@@V?$allocator@D@2@@1@_K@Z 0000000140063550 f i Flux_MeshAnimation.obj
 0001:00062550       ??$_Find_last@V?$basic_string@DU?$char_traits@D@std@@V?$allocator@D@2@@std@@@?$_Hash@V?$_Umap_traits@V?$basic_string@DU?$char_traits@D@std@@V?$allocator@D@2@@std@@U?$pair@I_K@2@V?$_Uhash_compare@V?$basic_string@DU?$char_traits@D@std@@V?$allocator@D@2@@std@@U?$hash@V?$basic_string@DU?$char_traits@D@std@@V?$allocator@D@2@@std@@@2@U?$equal_to@V?$basic_string@DU?$char_traits@D@std@@V?$allocator@D@2@@std@@@2@@2@V?$allocator@U?$pair@$$CBV?$basic_string@DU?$char_traits@D@std@@V?$allocator@D@2@@std@@U?$pair@I_K@2@@std@@@2@$0A@@std@@@std@@IEBA?AU?$_Hash_find_last_result@PEAU?$_List_node@U?$pair@$$CBV?$basic_string@DU?$char_traits@D@std@@V?$allocator@D@2@@std@@U?$pair@I_K@2@@std@@PEAX@std@@@1@AEBV?$basic_string@DU?$char_traits@D@std@@V?$allocator@D@2@@1@_K@Z 0000000140063550 f i Zenith_UnitTests.obj
 0001:00062550       ??$_Find_last@V?$basic_string@DU?$char_traits@D@std@@V?$allocator@D@2@@std@@@?$_Hash@V?$_Umap_traits@V?$basic_string@DU?$char_traits@D@std@@V?$allocator@D@2@@std@@VAnimBone@Flux_MeshAnimation@@V?$_Uhash_compare@V?$basic_string@DU?$char_traits@D@std@@V?$allocator@D@2@@std@@U?$hash@V?$basic_string@DU?$char_traits@D@std@@V?$allocator@D@2@@std@@@2@U?$equal_to@V?$basic_string@DU?$char_traits@D@std@@V?$allocator@D@2@@std@@@2@@2@V?$allocator@U?$pair@$$CBV?$basic_string@DU?$char_traits@D@std@@V?$allocator@D@2@@std@@VAnimBone@Flux_MeshAnimation@@@std@@@2@$0A@@std@@@std@@IEBA?AU?$_Hash_find_last_result@PEAU?$_List_node@U?$pair@$$CBV?$basic_string@DU?$char_traits@D@std@@V?$allocator@D@2@@std@@VAnimBone@Flux_MeshAnimation@@@std@@PEAX@std@@@1@AEBV?$basic_string@DU?$char_traits@D@std@@V?$allocator@D@2@@1@_K@Z 0000000140063550 f i Flux_MeshAnimation.obj
 0001:00062620       ??$_Free_non_head@V?$allocator@U?$_List_node@U?$pair@$$CBV?$basic_string@DU?$char_traits@D@std@@V?$allocator@D@2@@std@@I@std@@PEAX@std@@@std@@@?$_List_node@U?$pair@$$CBV?$basic_string@DU?$char_traits@D@std@@V?$allocator@D@2@@std@@I@std@@PEAX@std@@SAXAEAV?$allocator@U?$_List_node@U?$pair@$$CBV?$basic_string@DU?$char_traits@D@std@@V?$allocator@D@2@@std@@I@std@@PEAX@std@@@1@PEAU01@@Z 0000000140063620 f i Zenith_AssetHandler.obj
 0001:000626c0       ??$emplace@AEBH@?$_Hash@V?$_Uset_traits@HV?$_Uhash_compare@HU?$hash@H@std@@U?$equal_to@H@2@@std@@V?$allocator@H@2@$0A@@std@@@std@@QEAA?AU?$pair@V?$_List_const_iterator@V?$_List_val@U?$_List_simple_types@H@std@@@std@@@std@@_N@1@AEBH@Z 00000001400636c0 f i Zenith_Input.obj
 0001:000626c0       ??$emplace@AEBI@?$_Hash@V?$_Uset_traits@IV?$_Uhash_compare@IU?$hash@I@std@@U?$equal_to@I@2@@std@@V?$allocator@I@2@$0A@@std@@@std@@QEAA?AU?$pair@V?$_List_const_iterator@V?$_List_val@U?$_List_simple_types@I@std@@@std@@@std@@_N@1@AEBI@Z 00000001400636c0 f i Zenith_AssetHandler.obj
 0001:00062990       ??$emplace@U?$pair@$$CBV?$basic_string@DU?$char_traits@D@std@@V?$allocator@D@2@@std@@I@std@@@?$_Hash@V?$_Umap_traits@V?$basic_string@DU?$char_traits@D@std@@V?$allocator@D@2@@std@@IV?$_Uhash_compare@V?$basic_string@DU?$char_traits@D@std@@V?$allocator@D@2@@std@@U?$hash@V?$basic_string@DU?$char_traits@D@std@@V?$allocator@D@2@@std@@@2@U?$equal_to@V?$basic_string@DU?$char_traits@D@std@@V?$allocator@D@2@@std@@@2@@2@V?$allocator@U?$pair@$$CBV?$basic_string@DU?$char_traits@D@std@@V?$allocator@D@2@@std@@I@std@@@2@$0A@@std@@@std@@QEAA?AU?$pair@V?$_List_iterator@V?$_List_val@U?$_List_simple_types@U?$pair@$$CBV?$basic_string@DU?$char_traits@D@std@@V?$allocator@D@2@@std@@I@std@@@std@@@std@@@std@@_N@1@$$QEAU?$pair@$$CBV?$basic_string@DU?$char_traits@D@std@@V?$allocator@D@2@@std@@I@1@@Z 0000000140063990 f i Zenith_AssetHandler.obj
 0001:00062c80       ??$fill@PEAV?$_List_unchecked_const_iterator@V?$_List_val@U?$_List_simple_types@H@std@@@std@@U_Iterator_base0@2@@std@@V12@@std@@YAXQEAV?$_List_unchecked_const_iterator@V?$_List_val@U?$_List_simple_types@H@std@@@std@@U_Iterator_base0@2@@0@0AEBV10@@Z 0000000140063c80 f i Zenith_Input.obj
 0001:00062c80       ??$fill@PEAV?$_List_unchecked_const_iterator@V?$_List_val@U?$_List_simple_types@I@std@@@std@@U_Iterator_base0@2@@std@@V12@@std@@YAXQEAV?$_List_unchecked_const_iterator@V?$_List_val@U?$_List_simple_types@I@std@@@std@@U_Iterator_base0@2@@0@0AEBV10@@Z 0000000140063c80 f i Zenith_AssetHandler.obj
 0001:00062c80       ??$fill@PEAV?$_List_unchecked_iterator@V?$_List_val@U?$_List_simple_types@U?$pair@$$CBII@std@@@std@@@std@@@std@@V12@@std@@YAXQEAV?$_List_unchecked_iterator@V?$_List_val@U?$_List_simple_types@U?$pair@$$CBII@std@@@std@@@std@@@0@0AEBV10@@Z 0000000140063c80 f i Zenith_Entity.obj
 0001:00062c80       ??$fill@PEAV?$_List_unchecked_iterator@V?$_List_val@U?$_List_simple_types@U?$pair@$$CBIV?$Zenith_Vector@UEvent@Zenith_Profiling@@@@@std@@@std@@@std@@@std@@V12@@std@@YAXQEAV?$_List_unchecked_iterator@V?$_List_val@U?$_List_simple_types@U?$pair@$$CBIV?$Zenith_Vector@UEvent@Zenith_Profiling@@@@@std@@@std@@@std@@@0@0AEBV10@@Z 0000000140063c80 f i Zenith_Profiling.obj
 0001:00062c80       ??$fill@PEAV?$_List_unchecked_iterator@V?$_List_val@U?$_List_simple_types@U?$pair@$$CBIVZenith_Entity@@@std@@@std@@@std@@@std@@V12@@std@@YAXQEAV?$_List_unchecked_iterator@V?$_List_val@U?$_List_simple_types@U?$pair@$$CBIVZenith_Entity@@@std@@@std@@@std@@@0@0AEBV10@@Z 0000000140063c80 f i Zenith_Entity.obj
 0001:00062c80       ??$fill@PEAV?$_List_unchecked_iterator@V?$_List_val@U?$_List_simple_types@U?$pair@$$CBV?$basic_string@DU?$char_traits@D@std@@V?$allocator@D@2@@std@@I@std@@@std@@@std@@@std@@V12@@std@@YAXQEAV?$_List_unchecked_iterator@V?$_List_val@U?$_List_simple_types@U?$pair@$$CBV?$basic_string@DU?$char_traits@D@std@@V?$allocator@D@2@@std@@I@std@@@std@@@std@@@0@0AEBV10@@Z 0000000140063c80 f i Zenith_AssetHandler.obj
 0001:00062c80       ??$fill@PEAV?$_List_unchecked_iterator@V?$_List_val@U?$_List_simple_types@U?$pair@$$CBV?$basic_string@DU?$char_traits@D@std@@V?$allocator@D@2@@std@@U?$pair@IU?$mat@$03$03M$0A@@glm@@@2@@std@@@std@@@std@@@std@@V12@@std@@YAXQEAV?$_List_unchecked_iterator@V?$_List_val@U?$_List_simple_types@U?$pair@$$CBV?$basic_string@DU?$char_traits@D@std@@V?$allocator@D@2@@std@@U?$pair@IU?$mat@$03$03M$0A@@glm@@@2@@std@@@std@@@std@@@0@0AEBV10@@Z 0000000140063c80 f i Flux_MeshGeometry.obj
 0001:00062c80       ??$fill@PEAV?$_List_unchecked_iterator@V?$_List_val@U?$_List_simple_types@U?$pair@$$CBV?$basic_string@DU?$char_traits@D@std@@V?$allocator@D@2@@std@@U?$pair@I_K@2@@std@@@std@@@std@@@std@@V12@@std@@YAXQEAV?$_List_unchecked_iterator@V?$_List_val@U?$_List_simple_types@U?$pair@$$CBV?$basic_string@DU?$char_traits@D@std@@V?$allocator@D@2@@std@@U?$pair@I_K@2@@std@@@std@@@std@@@0@0AEBV10@@Z 0000000140063c80 f i Zenith_UnitTests.obj
 0001:00062d10       ??0Flux_MeshGeometry@@QEAA@XZ 0000000140063d10 f i Zenith_AssetHandler.obj
 0001:00062e90       ??1?$_Hash@V?$_Umap_traits@V?$basic_string@DU?$char_traits@D@std@@V?$allocator@D@2@@std@@U?$pair@IU?$mat@$03$03M$0A@@glm@@@2@V?$_Uhash_compare@V?$basic_string@DU?$char_traits@D@std@@V?$allocator@D@2@@std@@U?$hash@V?$basic_string@DU?$char_traits@D@std@@V?$allocator@D@2@@std@@@2@U?$equal_to@V?$basic_string@DU?$char_traits@D@std@@V?$allocator@D@2@@std@@@2@@2@V?$allocator@U?$pair@$$CBV?$basic_string@DU?$char_traits@D@std@@V?$allocator@D@2@@std@@U?$pair@IU?$mat@$03$03M$0A@@glm@@@2@@std@@@2@$0A@@std@@@std@@QEAA@XZ 0000000140063e90 f i Zenith_AssetHandler.obj
 0001:00062f00       ??1?$_Hash@V?$_Umap_traits@IIV?$_Uhash_compare@IU?$hash@I@std@@U?$equal_to@I@2@@std@@V?$allocator@U?$pair@$$CBII@std@@@2@$0A@@std@@@std@@QEAA@XZ 0000000140063f00 f i Zenith_Scene.obj
 0001:00062f00       ??1?$_Hash@V?$_Uset_traits@HV?$_Uhash_compare@HU?$hash@H@std@@U?$equal_to@H@2@@std@@V?$allocator@H@2@$0A@@std@@@std@@QEAA@XZ 0000000140063f00 f i Zenith_Input.obj
 0001:00062f00       ??1?$_Hash@V?$_Uset_traits@IV?$_Uhash_compare@IU?$hash@I@std@@U?$equal_to@I@2@@std@@V?$allocator@I@2@$0A@@std@@@std@@QEAA@XZ 0000000140063f00 f i Zenith_AssetHandler.obj
 0001:00062fb0       ??1?$list@U?$pair@$$CBV?$basic_string@DU?$char_traits@D@std@@V?$allocator@D@2@@std@@U?$pair@IU?$mat@$03$03M$0A@@glm@@@2@@std@@V?$allocator@U?$pair@$$CBV?$basic_string@DU?$char_traits@D@std@@V?$allocator@D@2@@std@@U?$pair@IU?$mat@$03$03M$0A@@glm@@@2@@std@@@2@@std@@QEAA@XZ 0000000140063fb0 f i Zenith_AssetHandler.obj
 0001:00063070       ??1Flux_MeshGeometry@@QEAA@XZ 0000000140064070 f i Zenith_AssetHandler.obj
 0001:000630c0       ??_I@YAXPEAX_K1P6AX0@Z@Z   00000001400640c0 f i Zenith_AssetHandler.obj
 0001:00063120       ?AddMaterial@Zenith_AssetHandler@@SAAEAVFlux_Material@@AEBV?$basic_string@DU?$char_traits@D@std@@V?$allocator@D@2@@std@@@Z 0000000140064120 f   Zenith_AssetHandler.obj
 0001:000632a0       ?AddTexture2D@Zenith_AssetHandler@@SAPEAVZenith_Vulkan_Texture@@AEBV?$basic_string@DU?$char_traits@D@std@@V?$allocator@D@2@@std@@PEBD@Z 00000001400642a0 f   Zenith_AssetHandler.obj
 0001:00063390       ?AddTexture2D@Zenith_AssetHandler@@SAPEAVZenith_Vulkan_Texture@@AEBV?$basic_string@DU?$char_traits@D@std@@V?$allocator@D@2@@std@@PEBXIIIW4ColourFormat@@W4DepthStencilFormat@@_N@Z 0000000140064390 f   Zenith_AssetHandler.obj
 0001:000634c0       ?AddTextureCube@Zenith_AssetHandler@@SAPEAVZenith_Vulkan_Texture@@AEBV?$basic_string@DU?$char_traits@D@std@@V?$allocator@D@2@@std@@PEBD11111@Z 00000001400644c0 f   Zenith_AssetHandler.obj
 0001:000635e0       ?CreateColourAttachment@Zenith_AssetHandler@@SAPEAVZenith_Vulkan_Texture@@AEBV?$basic_string@DU?$char_traits@D@std@@V?$allocator@D@2@@std@@IIW4ColourFormat@@I@Z 00000001400645e0 f   Zenith_AssetHandler.obj
 0001:000636e0       ?CreateDepthStencilAttachment@Zenith_AssetHandler@@SAPEAVZenith_Vulkan_Texture@@AEBV?$basic_string@DU?$char_traits@D@std@@V?$allocator@D@2@@std@@IIW4DepthStencilFormat@@I@Z 00000001400646e0 f   Zenith_AssetHandler.obj
 0001:000637e0       ?CreateDummyTexture@Zenith_AssetHandler@@SAPEAVZenith_Vulkan_Texture@@AEBV?$basic_string@DU?$char_traits@D@std@@V?$allocator@D@2@@std@@@Z 00000001400647e0 f   Zenith_AssetHandler.obj
 0001:00063890       ?GetNextFreeTextureSlot@Zenith_AssetHandler@@CAIXZ 0000000140064890 f   Zenith_AssetHandler.obj
 0001:00063990       ?GetTexture@Zenith_AssetHandler@@SAPEAVZenith_Vulkan_Texture@@AEBV?$basic_string@DU?$char_traits@D@std@@V?$allocator@D@2@@std@@@Z 0000000140064990 f   Zenith_AssetHandler.obj
 0001:00063ac0       ?Reset@Flux_MeshGeometry@@QEAAXXZ 0000000140064ac0 f i Zenith_AssetHandler.obj
 0001:00063ba0       ?_Assign_grow@?$_Hash_vec@V?$allocator@V?$_List_unchecked_const_iterator@V?$_List_val@U?$_List_simple_types@H@std@@@std@@U_Iterator_base0@2@@std@@@std@@@std@@QEAAX_KV?$_List_unchecked_const_iterator@V?$_List_val@U?$_List_simple_types@H@std@@@std@@U_Iterator_base0@2@@2@@Z 0000000140064ba0 f i Zenith_Input.obj
 0001:00063ba0       ?_Assign_grow@?$_Hash_vec@V?$allocator@V?$_List_unchecked_const_iterator@V?$_List_val@U?$_List_simple_types@I@std@@@std@@U_Iterator_base0@2@@std@@@std@@@std@@QEAAX_KV?$_List_unchecked_const_iterator@V?$_List_val@U?$_List_simple_types@I@std@@@std@@U_Iterator_base0@2@@2@@Z 0000000140064ba0 f i Zenith_AssetHandler.obj
 0001:00063ba0       ?_Assign_grow@?$_Hash_vec@V?$allocator@V?$_List_unchecked_iterator@V?$_List_val@U?$_List_simple_types@U?$pair@$$CBII@std@@@std@@@std@@@std@@@std@@@std@@QEAAX_KV?$_List_unchecked_iterator@V?$_List_val@U?$_List_simple_types@U?$pair@$$CBII@std@@@std@@@std@@@2@@Z 0000000140064ba0 f i Zenith_Entity.obj
 0001:00063ba0       ?_Assign_grow@?$_Hash_vec@V?$allocator@V?$_List_unchecked_iterator@V?$_List_val@U?$_List_simple_types@U?$pair@$$CBIV?$Zenith_Vector@UEvent@Zenith_Profiling@@@@@std@@@std@@@std@@@std@@@std@@@std@@QEAAX_KV?$_List_unchecked_iterator@V?$_List_val@U?$_List_simple_types@U?$pair@$$CBIV?$Zenith_Vector@UEvent@Zenith_Profiling@@@@@std@@@std@@@std@@@2@@Z 0000000140064ba0 f i Zenith_Profiling.obj
 0001:00063ba0       ?_Assign_grow@?$_Hash_vec@V?$allocator@V?$_List_unchecked_iterator@V?$_List_val@U?$_List_simple_types@U?$pair@$$CBV?$basic_string@DU?$char_traits@D@std@@V?$allocator@D@2@@std@@I@std@@@std@@@std@@@std@@@std@@@std@@QEAAX_KV?$_List_unchecked_iterator@V?$_List_val@U?$_List_simple_types@U?$pair@$$CBV?$basic_string@DU?$char_traits@D@std@@V?$allocator@D@2@@std@@I@std@@@std@@@std@@@2@@Z 0000000140064ba0 f i Zenith_AssetHandler.obj
 0001:00063ba0       ?_Assign_grow@?$_Hash_vec@V?$allocator@V?$_List_unchecked_iterator@V?$_List_val@U?$_List_simple_types@U?$pair@$$CBV?$basic_string@DU?$char_traits@D@std@@V?$allocator@D@2@@std@@U?$pair@IU?$mat@$03$03M$0A@@glm@@@2@@std@@@std@@@std@@@std@@@std@@@std@@QEAAX_KV?$_List_unchecked_iterator@V?$_List_val@U?$_List_simple_types@U?$pair@$$CBV?$basic_string@DU?$char_traits@D@std@@V?$allocator@D@2@@std@@U?$pair@IU?$mat@$03$03M$0A@@glm@@@2@@std@@@std@@@std@@@2@@Z 0000000140064ba0 f i Flux_MeshGeometry.obj
 0001:00063ba0       ?_Assign_grow@?$_Hash_vec@V?$allocator@V?$_List_unchecked_iterator@V?$_List_val@U?$_List_simple_types@U?$pair@$$CBV?$basic_string@DU?$char_traits@D@std@@V?$allocator@D@2@@std@@U?$pair@I_K@2@@std@@@std@@@std@@@std@@@std@@@std@@QEAAX_KV?$_List_unchecked_iterator@V?$_List_val@U?$_List_simple_types@U?$pair@$$CBV?$basic_string@DU?$char_traits@D@std@@V?$allocator@D@2@@std@@U?$pair@I_K@2@@std@@@std@@@std@@@2@@Z 0000000140064ba0 f i Zenith_UnitTests.obj
 0001:00063ce0       ?_Forced_rehash@?$_Hash@V?$_Umap_traits@V?$basic_string@DU?$char_traits@D@std@@V?$allocator@D@2@@std@@IV?$_Uhash_compare@V?$basic_string@DU?$char_traits@D@std@@V?$allocator@D@2@@std@@U?$hash@V?$basic_string@DU?$char_traits@D@std@@V?$allocator@D@2@@std@@@2@U?$equal_to@V?$basic_string@DU?$char_traits@D@std@@V?$allocator@D@2@@std@@@2@@2@V?$allocator@U?$pair@$$CBV?$basic_string@DU?$char_traits@D@std@@V?$allocator@D@2@@std@@I@std@@@2@$0A@@std@@@std@@IEAAX_K@Z 0000000140064ce0 f i Zenith_AssetHandler.obj
 0001:00063ce0       ?_Forced_rehash@?$_Hash@V?$_Umap_traits@V?$basic_string@DU?$char_traits@D@std@@V?$allocator@D@2@@std@@U?$pair@IU?$mat@$03$03M$0A@@glm@@@2@V?$_Uhash_compare@V?$basic_string@DU?$char_traits@D@std@@V?$allocator@D@2@@std@@U?$hash@V?$basic_string@DU?$char_traits@D@std@@V?$allocator@D@2@@std@@@2@U?$equal_to@V?$basic_string@DU?$char_traits@D@std@@V?$allocator@D@2@@std@@@2@@2@V?$allocator@U?$pair@$$CBV?$basic_string@DU?$char_traits@D@std@@V?$allocator@D@2@@std@@U?$pair@IU?$mat@$03$03M$0A@@glm@@@2@@std@@@2@$0A@@std@@@std@@IEAAX_K@Z 0000000140064ce0 f i Flux_MeshGeometry.obj
 0001:00063ce0       ?_Forced_rehash@?$_Hash@V?$_Umap_traits@V?$basic_string@DU?$char_traits@D@std@@V?$allocator@D@2@@std@@U?$pair@I_K@2@V?$_Uhash_compare@V?$basic_string@DU?$char_traits@D@std@@V?$allocator@D@2@@std@@U?$hash@V?$basic_string@DU?$char_traits@D@std@@V?$allocator@D@2@@std@@@2@U?$equal_to@V?$basic_string@DU?$char_traits@D@std@@V?$allocator@D@2@@std@@@2@@2@V?$allocator@U?$pair@$$CBV?$basic_string@DU?$char_traits@D@std@@V?$allocator@D@2@@std@@U?$pair@I_K@2@@std@@@2@$0A@@std@@@std@@IEAAX_K@Z 0000000140064ce0 f i Zenith_UnitTests.obj
 0001:00063f60       ?_Forced_rehash@?$_Hash@V?$_Uset_traits@HV?$_Uhash_compare@HU?$hash@H@std@@U?$equal_to@H@2@@std@@V?$allocator@H@2@$0A@@std@@@std@@IEAAX_K@Z 0000000140064f60 f i Zenith_Input.obj
 0001:00063f60       ?_Forced_rehash@?$_Hash@V?$_Uset_traits@IV?$_Uhash_compare@IU?$hash@I@std@@U?$equal_to@I@2@@std@@V?$allocator@I@2@$0A@@std@@@std@@IEAAX_K@Z 0000000140064f60 f i Zenith_AssetHandler.obj
 0001:00064120       printf                     0000000140065120 f i Zenith_AssetHandler.obj
 0001:00064170       ??$_Destroy_range@V?$allocator@V?$basic_string@DU?$char_traits@D@std@@V?$allocator@D@2@@std@@@std@@@std@@YAXPEAV?$basic_string@DU?$char_traits@D@std@@V?$allocator@D@2@@0@QEAV10@AEAV?$allocator@V?$basic_string@DU?$char_traits@D@std@@V?$allocator@D@2@@std@@@0@@Z 0000000140065170 f i Zenith_MemoryManagement.obj
 0001:00064200       ??$_Emplace_reallocate@AEBV?$basic_string@DU?$char_traits@D@std@@V?$allocator@D@2@@std@@@?$vector@V?$basic_string@DU?$char_traits@D@std@@V?$allocator@D@2@@std@@V?$allocator@V?$basic_string@DU?$char_traits@D@std@@V?$allocator@D@2@@std@@@2@@std@@AEAAPEAV?$basic_string@DU?$char_traits@D@std@@V?$allocator@D@2@@1@QEAV21@AEBV21@@Z 0000000140065200 f i Zenith_MemoryManagement.obj
 0001:000643d0       ??$_Uninitialized_move@PEAV?$basic_string@DU?$char_traits@D@std@@V?$allocator@D@2@@std@@V?$allocator@V?$basic_string@DU?$char_traits@D@std@@V?$allocator@D@2@@std@@@2@@std@@YAPEAV?$basic_string@DU?$char_traits@D@std@@V?$allocator@D@2@@0@QEAV10@0PEAV10@AEAV?$allocator@V?$basic_string@DU?$char_traits@D@std@@V?$allocator@D@2@@std@@@0@@Z 00000001400653d0 f i Zenith_MemoryManagement.obj
 0001:00064450       ??0LeafNodeBase@Zenith_DebugVariableTree@@QEAA@XZ 0000000140065450 f i Zenith_MemoryManagement.obj
 0001:00064590       ??2@YAPEAX_K@Z             0000000140065590 f   Zenith_MemoryManagement.obj
 0001:00064590       ??_U@YAPEAX_K@Z            0000000140065590 f   Zenith_MemoryManagement.obj
 0001:00064590       ?Allocate@Zenith_MemoryManagement@@SAPEAX_K@Z 0000000140065590 f   Zenith_MemoryManagement.obj
 0001:000645a0       ??3@YAXPEAX@Z              00000001400655a0 f   Zenith_MemoryManagement.obj
 0001:000645a0       ??_V@YAXPEAX@Z             00000001400655a0 f   Zenith_MemoryManagement.obj
 0001:000645a0       ?Deallocate@Zenith_MemoryManagement@@SAXPEAX@Z 00000001400655a0 f   Zenith_MemoryManagement.obj
 0001:000645b0       ??_ELeafNodeBase@Zenith_DebugVariableTree@@UEAAPEAXI@Z 00000001400655b0 f i Zenith_MemoryManagement.obj
 0001:000645b0       ??_GLeafNodeBase@Zenith_DebugVariableTree@@UEAAPEAXI@Z 00000001400655b0 f i Zenith_MemoryManagement.obj
 0001:000645f0       ??_E?$LeafNode@$$CBVZenith_Vulkan_Texture@@@Zenith_DebugVariableTree@@UEAAPEAXI@Z 00000001400655f0 f i Flux_Graphics.obj
 0001:000645f0       ??_E?$LeafNode@_N@Zenith_DebugVariableTree@@UEAAPEAXI@Z 00000001400655f0 f i Flux_AnimatedMeshes.obj
 0001:000645f0       ??_EPfnLeafNode@Zenith_DebugVariableTree@@UEAAPEAXI@Z 00000001400655f0 f i Zenith_Main.obj
 0001:000645f0       ??_ETextNode@Zenith_DebugVariableTree@@UEAAPEAXI@Z 00000001400655f0 f i Zenith_MemoryManagement.obj
 0001:000645f0       ??_G?$LeafNode@$$CBVZenith_Vulkan_Texture@@@Zenith_DebugVariableTree@@UEAAPEAXI@Z 00000001400655f0 f i Flux_Graphics.obj
 0001:000645f0       ??_G?$LeafNode@_N@Zenith_DebugVariableTree@@UEAAPEAXI@Z 00000001400655f0 f i Flux_AnimatedMeshes.obj
 0001:000645f0       ??_GPfnLeafNode@Zenith_DebugVariableTree@@UEAAPEAXI@Z 00000001400655f0 f i Zenith_Main.obj
 0001:000645f0       ??_GTextNode@Zenith_DebugVariableTree@@UEAAPEAXI@Z 00000001400655f0 f i Zenith_MemoryManagement.obj
 0001:00064630       ?Initialise@Zenith_MemoryManagement@@SAXXZ 0000000140065630 f   Zenith_MemoryManagement.obj
 0001:000648b0       ?Reallocate@Zenith_MemoryManagement@@SAPEAXPEAX_K@Z 00000001400658b0 f   Zenith_MemoryManagement.obj
 0001:000648c0       ?_Buy_raw@?$vector@V?$basic_string@DU?$char_traits@D@std@@V?$allocator@D@2@@std@@V?$allocator@V?$basic_string@DU?$char_traits@D@std@@V?$allocator@D@2@@std@@@2@@std@@AEAAX_K@Z 00000001400658c0 f i Zenith_MemoryManagement.obj
 0001:00064950       ?_Tidy@?$vector@V?$basic_string@DU?$char_traits@D@std@@V?$allocator@D@2@@std@@V?$allocator@V?$basic_string@DU?$char_traits@D@std@@V?$allocator@D@2@@std@@@2@@std@@AEAAXXZ 0000000140065950 f i Zenith_MemoryManagement.obj
 0001:000649c0       ?_Xlength@?$vector@NV?$allocator@N@std@@@std@@CAXXZ 00000001400659c0 f i Zenith_UnitTests.obj
 0001:000649c0       ?_Xlength@?$vector@P6AXXZV?$allocator@P6AXXZ@std@@@std@@CAXXZ 00000001400659c0 f i Flux_Graphics.obj
 0001:000649c0       ?_Xlength@?$vector@PEAULeafNodeBase@Zenith_DebugVariableTree@@V?$allocator@PEAULeafNodeBase@Zenith_DebugVariableTree@@@std@@@std@@CAXXZ 00000001400659c0 f i Zenith_DebugVariables.obj
 0001:000649c0       ?_Xlength@?$vector@PEAUNode@Zenith_DebugVariableTree@@V?$allocator@PEAUNode@Zenith_DebugVariableTree@@@std@@@std@@CAXXZ 00000001400659c0 f i Zenith_DebugVariables.obj
 0001:000649c0       ?_Xlength@?$vector@U?$vec@$02M$0A@@glm@@V?$allocator@U?$vec@$02M$0A@@glm@@@std@@@std@@CAXXZ 00000001400659c0 f i zenithtools:Zenith_Tools_TerrainExport.obj
 0001:000649c0       ?_Xlength@?$vector@UAttachmentDescription@vk@@V?$allocator@UAttachmentDescription@vk@@@std@@@std@@CAXXZ 00000001400659c0 f i Zenith_Vulkan_Pipeline.obj
 0001:000649c0       ?_Xlength@?$vector@UAttachmentReference@vk@@V?$allocator@UAttachmentReference@vk@@@std@@@std@@CAXXZ 00000001400659c0 f i Zenith_Vulkan_Pipeline.obj
 0001:000649c0       ?_Xlength@?$vector@UDeviceQueueCreateInfo@vk@@V?$allocator@UDeviceQueueCreateInfo@vk@@@std@@@std@@CAXXZ 00000001400659c0 f i Zenith_Vulkan.obj
 0001:000649c0       ?_Xlength@?$vector@UQueueFamilyProperties@vk@@V?$allocator@UQueueFamilyProperties@vk@@@std@@@std@@CAXXZ 00000001400659c0 f i Zenith_Vulkan.obj
 0001:000649c0       ?_Xlength@?$vector@USurfaceFormatKHR@vk@@V?$allocator@USurfaceFormatKHR@vk@@@std@@@std@@CAXXZ 00000001400659c0 f i Zenith_Vulkan_Swapchain.obj
 0001:000649c0       ?_Xlength@?$vector@UVertexInputAttributeDescription@vk@@V?$allocator@UVertexInputAttributeDescription@vk@@@std@@@std@@CAXXZ 00000001400659c0 f i Zenith_Vulkan_Pipeline.obj
 0001:000649c0       ?_Xlength@?$vector@UVertexInputBindingDescription@vk@@V?$allocator@UVertexInputBindingDescription@vk@@@std@@@std@@CAXXZ 00000001400659c0 f i Zenith_Vulkan_Pipeline.obj
 0001:000649c0       ?_Xlength@?$vector@U_Find_file_handle@filesystem@std@@V?$allocator@U_Find_file_handle@filesystem@std@@@3@@std@@CAXXZ 00000001400659c0 f i zenithtools:Zenith_Tools_MeshExport.obj
 0001:000649c0       ?_Xlength@?$vector@V?$basic_string@DU?$char_traits@D@std@@V?$allocator@D@2@@std@@V?$allocator@V?$basic_string@DU?$char_traits@D@std@@V?$allocator@D@2@@std@@@2@@std@@CAXXZ 00000001400659c0 f i Zenith_MemoryManagement.obj
 0001:000649c0       ?_Xlength@?$vector@VCommandBuffer@vk@@V?$allocator@VCommandBuffer@vk@@@std@@@std@@CAXXZ 00000001400659c0 f i Zenith_Vulkan.obj
 0001:000649c0       ?_Xlength@?$vector@VImage@vk@@V?$allocator@VImage@vk@@@std@@@std@@CAXXZ 00000001400659c0 f i Zenith_Vulkan_Swapchain.obj
 0001:000649c0       ?_Xlength@?$vector@VImageView@vk@@V?$allocator@VImageView@vk@@@std@@@std@@CAXXZ 00000001400659c0 f i Zenith_Vulkan_Swapchain.obj
 0001:000649c0       ?_Xlength@?$vector@VPhysicalDevice@vk@@V?$allocator@VPhysicalDevice@vk@@@std@@@std@@CAXXZ 00000001400659c0 f i Zenith_Vulkan.obj
 0001:000649c0       ?_Xlength@?$vector@VSemaphore@vk@@V?$allocator@VSemaphore@vk@@@std@@@std@@CAXXZ 00000001400659c0 f i Zenith_Vulkan_CommandBuffer.obj
 0001:000649c0       ?_Xlength@?$vector@W4PresentModeKHR@vk@@V?$allocator@W4PresentModeKHR@vk@@@std@@@std@@CAXXZ 00000001400659c0 f i Zenith_Vulkan_Swapchain.obj
 0001:000649e0       ?deallocate@?$allocator@V?$basic_string@DU?$char_traits@D@std@@V?$allocator@D@2@@std@@@std@@QEAAXQEAV?$basic_string@DU?$char_traits@D@std@@V?$allocator@D@2@@2@_K@Z 00000001400659e0 f i Zenith_MemoryManagement.obj
 0001:00064a30       ?CreateThread@Zenith_Multithreading@@SAXPEBDP6AXPEBX@Z1@Z 0000000140065a30 f   Zenith_Multithreading.obj
 0001:00064a40       ?GetCurrentThreadID@Zenith_Multithreading@@SAIXZ 0000000140065a40 f   Zenith_Multithreading.obj
 0001:00064a50       ?RegisterThread@Zenith_Multithreading@@SAXXZ 0000000140065a50 f   Zenith_Multithreading.obj
 0001:00064a70       ?RenderImGui@@YAXXZ        0000000140065a70 f   Zenith_Core.obj
 0001:00065510       ?TraverseTree@@YAXPEAUNode@Zenith_DebugVariableTree@@I@Z 0000000140066510 f   Zenith_Core.obj
 0001:000655d0       ?Zenith_MainLoop@Zenith_Core@@SAXXZ 00000001400665d0 f   Zenith_Core.obj
 0001:000657e0       ?insert@?$basic_string@DU?$char_traits@D@std@@V?$allocator@D@2@@std@@QEAAAEAV12@_KQEBD0@Z 00000001400667e0 f i Zenith_Core.obj
 0001:000658d0       ??0format_error@std@@QEAA@AEBV01@@Z 00000001400668d0 f i Zenith_DebugVariables.obj
 0001:00065910       ?_Grow@?$_Fmt_iterator_buffer@V?$back_insert_iterator@V?$basic_string@DU?$char_traits@D@std@@V?$allocator@D@2@@std@@@std@@DU_Fmt_buffer_traits@2@@std@@EEAAX_K@Z 0000000140066910 f i Zenith_DebugVariables.obj
 0001:00065960       ?name@ErrorCategoryImpl@vk@@UEBAPEBDXZ 0000000140066960 f i Zenith_DebugVariables.obj
 0001:00065970       ?message@ErrorCategoryImpl@vk@@UEBA?AV?$basic_string@DU?$char_traits@D@std@@V?$allocator@D@2@@std@@H@Z 0000000140066970 f i Zenith_DebugVariables.obj
 0001:00065990       ??$?RD@_Precision_checker@std@@QEBA_KD@Z 0000000140066990 f i Zenith_DebugVariables.obj
 0001:00065990       ??$?RM@_Precision_checker@std@@QEBA_KM@Z 0000000140066990 f i Zenith_DebugVariables.obj
 0001:00065990       ??$?RN@_Precision_checker@std@@QEBA_KN@Z 0000000140066990 f i Zenith_DebugVariables.obj
 0001:00065990       ??$?RO@_Precision_checker@std@@QEBA_KO@Z 0000000140066990 f i Zenith_DebugVariables.obj
 0001:00065990       ??$?RPEBD@_Precision_checker@std@@QEBA_KQEBD@Z 0000000140066990 f i Zenith_DebugVariables.obj
 0001:00065990       ??$?RPEBX@_Precision_checker@std@@QEBA_KQEBX@Z 0000000140066990 f i Zenith_DebugVariables.obj
 0001:00065990       ??$?RUmonostate@std@@@_Precision_checker@std@@QEBA_KUmonostate@1@@Z 0000000140066990 f i Zenith_DebugVariables.obj
 0001:00065990       ??$?RV?$basic_string_view@DU?$char_traits@D@std@@@std@@@_Precision_checker@std@@QEBA_KV?$basic_string_view@DU?$char_traits@D@std@@@1@@Z 0000000140066990 f i Zenith_DebugVariables.obj
 0001:00065990       ??$?RVhandle@?$basic_format_arg@V?$basic_format_context@V?$back_insert_iterator@V?$_Fmt_buffer@D@std@@@std@@D@std@@@std@@@_Precision_checker@std@@QEBA_KVhandle@?$basic_format_arg@V?$basic_format_context@V?$back_insert_iterator@V?$_Fmt_buffer@D@std@@@std@@D@std@@@1@@Z 0000000140066990 f i Zenith_DebugVariables.obj
 0001:00065990       ??$?R_N@_Precision_checker@std@@QEBA_K_N@Z 0000000140066990 f i Zenith_DebugVariables.obj
 0001:000659b0       ??$?RD@_Width_checker@std@@QEBA_KD@Z 00000001400669b0 f i Zenith_DebugVariables.obj
 0001:000659b0       ??$?RM@_Width_checker@std@@QEBA_KM@Z 00000001400669b0 f i Zenith_DebugVariables.obj
 0001:000659b0       ??$?RN@_Width_checker@std@@QEBA_KN@Z 00000001400669b0 f i Zenith_DebugVariables.obj
 0001:000659b0       ??$?RO@_Width_checker@std@@QEBA_KO@Z 00000001400669b0 f i Zenith_DebugVariables.obj
 0001:000659b0       ??$?RPEBD@_Width_checker@std@@QEBA_KQEBD@Z 00000001400669b0 f i Zenith_DebugVariables.obj
 0001:000659b0       ??$?RPEBX@_Width_checker@std@@QEBA_KQEBX@Z 00000001400669b0 f i Zenith_DebugVariables.obj
 0001:000659b0       ??$?RUmonostate@std@@@_Width_checker@std@@QEBA_KUmonostate@1@@Z 00000001400669b0 f i Zenith_DebugVariables.obj
 0001:000659b0       ??$?RV?$basic_string_view@DU?$char_traits@D@std@@@std@@@_Width_checker@std@@QEBA_KV?$basic_string_view@DU?$char_traits@D@std@@@1@@Z 00000001400669b0 f i Zenith_DebugVariables.obj
 0001:000659b0       ??$?RVhandle@?$basic_format_arg@V?$basic_format_context@V?$back_insert_iterator@V?$_Fmt_buffer@D@std@@@std@@D@std@@@std@@@_Width_checker@std@@QEBA_KVhandle@?$basic_format_arg@V?$basic_format_context@V?$back_insert_iterator@V?$_Fmt_buffer@D@std@@@std@@D@std@@@1@@Z 00000001400669b0 f i Zenith_DebugVariables.obj
 0001:000659b0       ??$?R_N@_Width_checker@std@@QEBA_K_N@Z 00000001400669b0 f i Zenith_DebugVariables.obj
 0001:000659d0       ??$?RH@?$_Arg_formatter@V?$back_insert_iterator@V?$_Fmt_buffer@D@std@@@std@@D@std@@QEAA?AV?$back_insert_iterator@V?$_Fmt_buffer@D@std@@@1@H@Z 00000001400669d0 f i Zenith_DebugVariables.obj
 0001:00065a20       ??$?RH@?$_Default_arg_formatter@V?$back_insert_iterator@V?$_Fmt_buffer@D@std@@@std@@D@std@@QEHAA?AV?$back_insert_iterator@V?$_Fmt_buffer@D@std@@@1@H@Z 0000000140066a20 f i Zenith_DebugVariables.obj
 0001:00065b50       ??$_Assign_counted_range@PEBV?$basic_string@DU?$char_traits@D@std@@V?$allocator@D@2@@std@@@?$vector@V?$basic_string@DU?$char_traits@D@std@@V?$allocator@D@2@@std@@V?$allocator@V?$basic_string@DU?$char_traits@D@std@@V?$allocator@D@2@@std@@@2@@std@@AEAAXPEBV?$basic_string@DU?$char_traits@D@std@@V?$allocator@D@2@@1@_K@Z 0000000140066b50 f i Zenith_DebugVariables.obj
 0001:00065d30       ??$_Emplace_reallocate@AEBQ6AXXZ@?$vector@P6AXXZV?$allocator@P6AXXZ@std@@@std@@AEAAPEAP6AXXZQEAP6AXXZAEBQ6AXXZ@Z 0000000140066d30 f i Flux_Graphics.obj
 0001:00065d30       ??$_Emplace_reallocate@AEBQEAULeafNodeBase@Zenith_DebugVariableTree@@@?$vector@PEAULeafNodeBase@Zenith_DebugVariableTree@@V?$allocator@PEAULeafNodeBase@Zenith_DebugVariableTree@@@std@@@std@@AEAAPEAPEAULeafNodeBase@Zenith_DebugVariableTree@@QEAPEAU23@AEBQEAU23@@Z 0000000140066d30 f i Zenith_DebugVariables.obj
 0001:00065d30       ??$_Emplace_reallocate@AEBQEAUNode@Zenith_DebugVariableTree@@@?$vector@PEAUNode@Zenith_DebugVariableTree@@V?$allocator@PEAUNode@Zenith_DebugVariableTree@@@std@@@std@@AEAAPEAPEAUNode@Zenith_DebugVariableTree@@QEAPEAU23@AEBQEAU23@@Z 0000000140066d30 f i Zenith_DebugVariables.obj
 0001:00065d30       ??$_Emplace_reallocate@AEBUAttachmentReference@vk@@@?$vector@UAttachmentReference@vk@@V?$allocator@UAttachmentReference@vk@@@std@@@std@@AEAAPEAUAttachmentReference@vk@@QEAU23@AEBU23@@Z 0000000140066d30 f i Zenith_Vulkan_Pipeline.obj
 0001:00065d30       ??$_Emplace_reallocate@AEBVCommandBuffer@vk@@@?$vector@VCommandBuffer@vk@@V?$allocator@VCommandBuffer@vk@@@std@@@std@@AEAAPEAVCommandBuffer@vk@@QEAV23@AEBV23@@Z 0000000140066d30 f i Zenith_Vulkan.obj
 0001:00065ee0       ??$_Emplace_reallocate@V?$basic_string@DU?$char_traits@D@std@@V?$allocator@D@2@@std@@@?$vector@V?$basic_string@DU?$char_traits@D@std@@V?$allocator@D@2@@std@@V?$allocator@V?$basic_string@DU?$char_traits@D@std@@V?$allocator@D@2@@std@@@2@@std@@AEAAPEAV?$basic_string@DU?$char_traits@D@std@@V?$allocator@D@2@@1@QEAV21@$$QEAV21@@Z 0000000140066ee0 f i Zenith_DebugVariables.obj
 0001:000660a0       ??$_Floating_to_chars@$00N@std@@YA?AUto_chars_result@0@PEADQEADNW4chars_format@0@H@Z 00000001400670a0 f i Zenith_DebugVariables.obj
 0001:00066210       ??$_Floating_to_chars@$01N@std@@YA?AUto_chars_result@0@PEADQEADNW4chars_format@0@H@Z 0000000140067210 f i Zenith_DebugVariables.obj
 0001:000663b0       ??$_Floating_to_chars@$0A@N@std@@YA?AUto_chars_result@0@PEADQEADNW4chars_format@0@H@Z 00000001400673b0 f i Zenith_DebugVariables.obj
 0001:00066510       ??$_Floating_to_chars_fixed_precision@N@std@@YA?AUto_chars_result@0@QEAD0NH@Z 0000000140067510 f i Zenith_DebugVariables.obj
 0001:00066570       ??$_Floating_to_chars_general_precision@M@std@@YA?AUto_chars_result@0@PEADQEADMH@Z 0000000140067570 f i Zenith_DebugVariables.obj
 0001:00066870       ??$_Floating_to_chars_general_precision@N@std@@YA?AUto_chars_result@0@PEADQEADNH@Z 0000000140067870 f i Zenith_DebugVariables.obj
 0001:00066b90       ??$_Floating_to_chars_hex_precision@M@std@@YA?AUto_chars_result@0@PEADQEADMH@Z 0000000140067b90 f i Zenith_DebugVariables.obj
 0001:00066da0       ??$_Floating_to_chars_hex_precision@N@std@@YA?AUto_chars_result@0@PEADQEADNH@Z 0000000140067da0 f i Zenith_DebugVariables.obj
 0001:00066fe0       ??$_Floating_to_chars_hex_shortest@M@std@@YA?AUto_chars_result@0@PEADQEADM@Z 0000000140067fe0 f i Zenith_DebugVariables.obj
 0001:00067180       ??$_Floating_to_chars_hex_shortest@N@std@@YA?AUto_chars_result@0@PEADQEADN@Z 0000000140068180 f i Zenith_DebugVariables.obj
 0001:00067320       ??$_Floating_to_chars_ryu@M@std@@YA?AUto_chars_result@0@QEAD0MW4chars_format@0@@Z 0000000140068320 f i Zenith_DebugVariables.obj
 0001:00067430       ??$_Floating_to_chars_scientific_precision@N@std@@YA?AUto_chars_result@0@QEAD0NH@Z 0000000140068430 f i Zenith_DebugVariables.obj
 0001:00067490       ??$_Fmt_write@DV?$back_insert_iterator@V?$_Fmt_buffer@D@std@@@std@@@std@@YA?AV?$back_insert_iterator@V?$_Fmt_buffer@D@std@@@0@V10@V?$basic_string_view@DU?$char_traits@D@std@@@0@AEBU?$_Basic_format_specs@D@0@V_Lazy_locale@0@@Z 0000000140068490 f i Zenith_DebugVariables.obj
 0001:000676a0       ??$_Fmt_write@DV?$back_insert_iterator@V?$_Fmt_buffer@D@std@@@std@@@std@@YA?AV?$back_insert_iterator@V?$_Fmt_buffer@D@std@@@0@V10@_NU?$_Basic_format_specs@D@0@V_Lazy_locale@0@@Z 00000001400686a0 f i Zenith_DebugVariables.obj
 0001:00067930       ??$_Fmt_write@DV?$back_insert_iterator@V?$_Fmt_buffer@D@std@@@std@@M@std@@YA?AV?$back_insert_iterator@V?$_Fmt_buffer@D@std@@@0@V10@MAEBU?$_Basic_format_specs@D@0@V_Lazy_locale@0@@Z 0000000140068930 f i Zenith_DebugVariables.obj
 0001:00068210       ??$_Fmt_write@DV?$back_insert_iterator@V?$_Fmt_buffer@D@std@@@std@@N@std@@YA?AV?$back_insert_iterator@V?$_Fmt_buffer@D@std@@@0@V10@NAEBU?$_Basic_format_specs@D@0@V_Lazy_locale@0@@Z 0000000140069210 f i Zenith_DebugVariables.obj
 0001:00068210       ??$_Fmt_write@DV?$back_insert_iterator@V?$_Fmt_buffer@D@std@@@std@@O@std@@YA?AV?$back_insert_iterator@V?$_Fmt_buffer@D@std@@@0@V10@OAEBU?$_Basic_format_specs@D@0@V_Lazy_locale@0@@Z 0000000140069210 f i Zenith_DebugVariables.obj
 0001:000688e0       ??$_Get_arg@V?$basic_format_context@V?$back_insert_iterator@V?$_Fmt_buffer@D@std@@@std@@D@std@@@std@@YA?AV?$basic_format_arg@V?$basic_format_context@V?$back_insert_iterator@V?$_Fmt_buffer@D@std@@@std@@D@std@@@0@AEBV?$basic_format_context@V?$back_insert_iterator@V?$_Fmt_buffer@D@std@@@std@@D@0@_K@Z 00000001400698e0 f i Zenith_DebugVariables.obj
 0001:00068ab0       ??$_Get_dynamic_specs@V_Precision_checker@std@@V?$basic_format_arg@V?$basic_format_context@V?$back_insert_iterator@V?$_Fmt_buffer@D@std@@@std@@D@std@@@2@@std@@YAHV?$basic_format_arg@V?$basic_format_context@V?$back_insert_iterator@V?$_Fmt_buffer@D@std@@@std@@D@std@@@0@@Z 0000000140069ab0 f i Zenith_DebugVariables.obj
 0001:00068c50       ??$_Get_dynamic_specs@V_Width_checker@std@@V?$basic_format_arg@V?$basic_format_context@V?$back_insert_iterator@V?$_Fmt_buffer@D@std@@@std@@D@std@@@2@@std@@YAHV?$basic_format_arg@V?$basic_format_context@V?$back_insert_iterator@V?$_Fmt_buffer@D@std@@@std@@D@std@@@0@@Z 0000000140069c50 f i Zenith_DebugVariables.obj
 0001:00068df0       ??$_Integer_to_chars@E@std@@YA?AUto_chars_result@0@PEADQEADEH@Z 0000000140069df0 f i Zenith_DebugVariables.obj
 0001:00069000       ??$_Integer_to_chars@H@std@@YA?AUto_chars_result@0@PEADQEADHH@Z 000000014006a000 f i Zenith_DebugVariables.obj
 0001:00069230       ??$_Integer_to_chars@I@std@@YA?AUto_chars_result@0@PEADQEADIH@Z 000000014006a230 f i Zenith_DebugVariables.obj
 0001:00069430       ??$_Integer_to_chars@_J@std@@YA?AUto_chars_result@0@PEADQEAD_JH@Z 000000014006a430 f i Zenith_DebugVariables.obj
 0001:00069680       ??$_Integer_to_chars@_K@std@@YA?AUto_chars_result@0@PEADQEAD_KH@Z 000000014006a680 f i Zenith_DebugVariables.obj
 0001:00069890       ??$_Large_integer_to_chars@D@std@@YA?AU?$pair@PEADW4errc@std@@@0@QEAD0IH@Z 000000014006a890 f i Zenith_DebugVariables.obj
 0001:00069a50       ??$_On_type@D@?$_Specs_checker@V?$_Specs_handler@V?$basic_format_parse_context@D@std@@V?$basic_format_context@V?$back_insert_iterator@V?$_Fmt_buffer@D@std@@@std@@D@2@@std@@@std@@QEAAXD@Z 000000014006aa50 f i Zenith_DebugVariables.obj
 0001:00069d00       ??$_Parse_arg_id@DAEAU?$_Id_adapter@D@std@@@std@@YAPEBDPEBD0AEAU?$_Id_adapter@D@0@@Z 000000014006ad00 f i Zenith_DebugVariables.obj
 0001:00069df0       ??$_Parse_arg_id@DU?$_Precision_adapter@DAEAV?$_Specs_checker@V?$_Specs_handler@V?$basic_format_parse_context@D@std@@V?$basic_format_context@V?$back_insert_iterator@V?$_Fmt_buffer@D@std@@@std@@D@2@@std@@@std@@@std@@@std@@YAPEBDPEBD0$$QEAU?$_Precision_adapter@DAEAV?$_Specs_checker@V?$_Specs_handler@V?$basic_format_parse_context@D@std@@V?$basic_format_context@V?$back_insert_iterator@V?$_Fmt_buffer@D@std@@@std@@D@2@@std@@@std@@@0@@Z 000000014006adf0 f i Zenith_DebugVariables.obj
 0001:00069f90       ??$_Parse_format_specs@DAEAV?$_Specs_checker@V?$_Specs_handler@V?$basic_format_parse_context@D@std@@V?$basic_format_context@V?$back_insert_iterator@V?$_Fmt_buffer@D@std@@@std@@D@2@@std@@@std@@@std@@YAPEBDPEBD0AEAV?$_Specs_checker@V?$_Specs_handler@V?$basic_format_parse_context@D@std@@V?$basic_format_context@V?$back_insert_iterator@V?$_Fmt_buffer@D@std@@@std@@D@2@@std@@@0@@Z 000000014006af90 f i Zenith_DebugVariables.obj
 0001:0006a330       ??$_Parse_format_string@DAEAU?$_Format_handler@D@std@@@std@@YAXV?$basic_string_view@DU?$char_traits@D@std@@@0@AEAU?$_Format_handler@D@0@@Z 000000014006b330 f i Zenith_DebugVariables.obj
 0001:0006a4b0       ??$_Parse_replacement_field@DAEAU?$_Format_handler@D@std@@@std@@YAPEBDPEBD0AEAU?$_Format_handler@D@0@@Z 000000014006b4b0 f i Zenith_DebugVariables.obj
 0001:0006a6d0       ??$_Parse_width@DAEAV?$_Specs_checker@V?$_Specs_handler@V?$basic_format_parse_context@D@std@@V?$basic_format_context@V?$back_insert_iterator@V?$_Fmt_buffer@D@std@@@std@@D@2@@std@@@std@@@std@@YAPEBDPEBD0AEAV?$_Specs_checker@V?$_Specs_handler@V?$basic_format_parse_context@D@std@@V?$basic_format_context@V?$back_insert_iterator@V?$_Fmt_buffer@D@std@@@std@@D@2@@std@@@0@@Z 000000014006b6d0 f i Zenith_DebugVariables.obj
 0001:0006a8b0       ??$_Reallocate_grow_by@V<lambda_1>@?1??reserve@?$basic_string@DU?$char_traits@D@std@@V?$allocator@D@2@@std@@QEAAX_K@Z@$$V@?$basic_string@DU?$char_traits@D@std@@V?$allocator@D@2@@std@@AEAAAEAV01@_KV<lambda_1>@?1??reserve@01@QEAAX0@Z@@Z 000000014006b8b0 f i Zenith_DebugVariables.obj
 0001:0006aa00       ??$_Visit@U?$_Arg_formatter@V?$back_insert_iterator@V?$_Fmt_buffer@D@std@@@std@@D@std@@@?$basic_format_arg@V?$basic_format_context@V?$back_insert_iterator@V?$_Fmt_buffer@D@std@@@std@@D@std@@@std@@QEAA?A_T$$QEAU?$_Arg_formatter@V?$back_insert_iterator@V?$_Fmt_buffer@D@std@@@std@@D@1@@Z 000000014006ba00 f i Zenith_DebugVariables.obj
 0001:0006af00       ??$_Visit@U?$_Default_arg_formatter@V?$back_insert_iterator@V?$_Fmt_buffer@D@std@@@std@@D@std@@@?$basic_format_arg@V?$basic_format_context@V?$back_insert_iterator@V?$_Fmt_buffer@D@std@@@std@@D@std@@@std@@QEAA?A_T$$QEAU?$_Default_arg_formatter@V?$back_insert_iterator@V?$_Fmt_buffer@D@std@@@std@@D@1@@Z 000000014006bf00 f i Zenith_DebugVariables.obj
 0001:0006b700       ??$_Widen_and_copy@DV?$back_insert_iterator@V?$_Fmt_buffer@D@std@@@std@@@std@@YA?AV?$back_insert_iterator@V?$_Fmt_buffer@D@std@@@0@PEBDQEBDV10@@Z 000000014006c700 f i Zenith_DebugVariables.obj
 0001:0006b790       ??$_Write_aligned@V?$back_insert_iterator@V?$_Fmt_buffer@D@std@@@std@@U?$_Basic_format_specs@D@2@AEAV<lambda_1>@?1???$_Fmt_write@DV?$back_insert_iterator@V?$_Fmt_buffer@D@std@@@std@@@2@YA?AV12@V12@QEBXAEBU32@V_Lazy_locale@2@@Z@@std@@YA?AV?$back_insert_iterator@V?$_Fmt_buffer@D@std@@@0@V10@HAEBU?$_Basic_format_specs@D@0@W4_Fmt_align@0@AEAV<lambda_1>@?1???$_Fmt_write@DV?$back_insert_iterator@V?$_Fmt_buffer@D@std@@@std@@@0@YA?AV10@0QEBX1V_Lazy_locale@0@@Z@@Z 000000014006c790 f i Zenith_DebugVariables.obj
 0001:0006b900       ??$_Write_aligned@V?$back_insert_iterator@V?$_Fmt_buffer@D@std@@@std@@U?$_Basic_format_specs@D@2@AEAV<lambda_1>@?1???$_Fmt_write@DV?$back_insert_iterator@V?$_Fmt_buffer@D@std@@@std@@M@2@YA?AV12@V12@MAEBU32@V_Lazy_locale@2@@Z@@std@@YA?AV?$back_insert_iterator@V?$_Fmt_buffer@D@std@@@0@V10@HAEBU?$_Basic_format_specs@D@0@W4_Fmt_align@0@AEAV<lambda_1>@?1???$_Fmt_write@DV?$back_insert_iterator@V?$_Fmt_buffer@D@std@@@std@@M@0@YA?AV10@0M1V_Lazy_locale@0@@Z@@Z 000000014006c900 f i Zenith_DebugVariables.obj
 0001:0006b900       ??$_Write_aligned@V?$back_insert_iterator@V?$_Fmt_buffer@D@std@@@std@@U?$_Basic_format_specs@D@2@AEAV<lambda_1>@?1???$_Fmt_write@DV?$back_insert_iterator@V?$_Fmt_buffer@D@std@@@std@@N@2@YA?AV12@V12@NAEBU32@V_Lazy_locale@2@@Z@@std@@YA?AV?$back_insert_iterator@V?$_Fmt_buffer@D@std@@@0@V10@HAEBU?$_Basic_format_specs@D@0@W4_Fmt_align@0@AEAV<lambda_1>@?1???$_Fmt_write@DV?$back_insert_iterator@V?$_Fmt_buffer@D@std@@@std@@N@0@YA?AV10@0N1V_Lazy_locale@0@@Z@@Z 000000014006c900 f i Zenith_DebugVariables.obj
 0001:0006b900       ??$_Write_aligned@V?$back_insert_iterator@V?$_Fmt_buffer@D@std@@@std@@U?$_Basic_format_specs@D@2@AEAV<lambda_1>@?1???$_Fmt_write@DV?$back_insert_iterator@V?$_Fmt_buffer@D@std@@@std@@O@2@YA?AV12@V12@OAEBU32@V_Lazy_locale@2@@Z@@std@@YA?AV?$back_insert_iterator@V?$_Fmt_buffer@D@std@@@0@V10@HAEBU?$_Basic_format_specs@D@0@W4_Fmt_align@0@AEAV<lambda_1>@?1???$_Fmt_write@DV?$back_insert_iterator@V?$_Fmt_buffer@D@std@@@std@@O@0@YA?AV10@0O1V_Lazy_locale@0@@Z@@Z 000000014006c900 f i Zenith_DebugVariables.obj
 0001:0006ba70       ??$_Write_aligned@V?$back_insert_iterator@V?$_Fmt_buffer@D@std@@@std@@U?$_Basic_format_specs@D@2@AEAV<lambda_1>@?1???$_Write_integral@DV?$back_insert_iterator@V?$_Fmt_buffer@D@std@@@std@@E@2@YA?AV12@V12@EU32@V_Lazy_locale@2@@Z@@std@@YA?AV?$back_insert_iterator@V?$_Fmt_buffer@D@std@@@0@V10@HAEBU?$_Basic_format_specs@D@0@W4_Fmt_align@0@AEAV<lambda_1>@?1???$_Write_integral@DV?$back_insert_iterator@V?$_Fmt_buffer@D@std@@@std@@E@0@YA?AV10@0EU20@V_Lazy_locale@0@@Z@@Z 000000014006ca70 f i Zenith_DebugVariables.obj
 0001:0006ba70       ??$_Write_aligned@V?$back_insert_iterator@V?$_Fmt_buffer@D@std@@@std@@U?$_Basic_format_specs@D@2@AEAV<lambda_1>@?1???$_Write_integral@DV?$back_insert_iterator@V?$_Fmt_buffer@D@std@@@std@@I@2@YA?AV12@V12@IU32@V_Lazy_locale@2@@Z@@std@@YA?AV?$back_insert_iterator@V?$_Fmt_buffer@D@std@@@0@V10@HAEBU?$_Basic_format_specs@D@0@W4_Fmt_align@0@AEAV<lambda_1>@?1???$_Write_integral@DV?$back_insert_iterator@V?$_Fmt_buffer@D@std@@@std@@I@0@YA?AV10@0IU20@V_Lazy_locale@0@@Z@@Z 000000014006ca70 f i Zenith_DebugVariables.obj
 0001:0006ba70       ??$_Write_aligned@V?$back_insert_iterator@V?$_Fmt_buffer@D@std@@@std@@U?$_Basic_format_specs@D@2@AEAV<lambda_1>@?1???$_Write_integral@DV?$back_insert_iterator@V?$_Fmt_buffer@D@std@@@std@@_K@2@YA?AV12@V12@_KU32@V_Lazy_locale@2@@Z@@std@@YA?AV?$back_insert_iterator@V?$_Fmt_buffer@D@std@@@0@V10@HAEBU?$_Basic_format_specs@D@0@W4_Fmt_align@0@AEAV<lambda_1>@?1???$_Write_integral@DV?$back_insert_iterator@V?$_Fmt_buffer@D@std@@@std@@_K@0@YA?AV10@0_KU20@V_Lazy_locale@0@@Z@@Z 000000014006ca70 f i Zenith_DebugVariables.obj
 0001:0006bbe0       ??$_Write_aligned@V?$back_insert_iterator@V?$_Fmt_buffer@D@std@@@std@@U?$_Basic_format_specs@D@2@AEAV<lambda_1>@?1???$_Write_integral@DV?$back_insert_iterator@V?$_Fmt_buffer@D@std@@@std@@H@2@YA?AV12@V12@HU32@V_Lazy_locale@2@@Z@@std@@YA?AV?$back_insert_iterator@V?$_Fmt_buffer@D@std@@@0@V10@HAEBU?$_Basic_format_specs@D@0@W4_Fmt_align@0@AEAV<lambda_1>@?1???$_Write_integral@DV?$back_insert_iterator@V?$_Fmt_buffer@D@std@@@std@@H@0@YA?AV10@0HU20@V_Lazy_locale@0@@Z@@Z 000000014006cbe0 f i Zenith_DebugVariables.obj
 0001:0006bd50       ??$_Write_aligned@V?$back_insert_iterator@V?$_Fmt_buffer@D@std@@@std@@U?$_Basic_format_specs@D@2@AEAV<lambda_1>@?1???$_Write_integral@DV?$back_insert_iterator@V?$_Fmt_buffer@D@std@@@std@@_J@2@YA?AV12@V12@_JU32@V_Lazy_locale@2@@Z@@std@@YA?AV?$back_insert_iterator@V?$_Fmt_buffer@D@std@@@0@V10@HAEBU?$_Basic_format_specs@D@0@W4_Fmt_align@0@AEAV<lambda_1>@?1???$_Write_integral@DV?$back_insert_iterator@V?$_Fmt_buffer@D@std@@@std@@_J@0@YA?AV10@0_JU20@V_Lazy_locale@0@@Z@@Z 000000014006cd50 f i Zenith_DebugVariables.obj
 0001:0006bec0       ??$_Write_aligned@V?$back_insert_iterator@V?$_Fmt_buffer@D@std@@@std@@U?$_Basic_format_specs@D@2@V<lambda_1>@?1???$_Fmt_write@DV?$back_insert_iterator@V?$_Fmt_buffer@D@std@@@std@@@2@YA?AV12@V12@V?$basic_string_view@DU?$char_traits@D@std@@@2@AEBU32@V_Lazy_locale@2@@Z@@std@@YA?AV?$back_insert_iterator@V?$_Fmt_buffer@D@std@@@0@V10@HAEBU?$_Basic_format_specs@D@0@W4_Fmt_align@0@$$QEAV<lambda_1>@?1???$_Fmt_write@DV?$back_insert_iterator@V?$_Fmt_buffer@D@std@@@std@@@0@YA?AV10@0V?$basic_string_view@DU?$char_traits@D@std@@@0@1V_Lazy_locale@0@@Z@@Z 000000014006cec0 f i Zenith_DebugVariables.obj
 0001:0006c080       ??$_Write_integral@DV?$back_insert_iterator@V?$_Fmt_buffer@D@std@@@std@@E@std@@YA?AV?$back_insert_iterator@V?$_Fmt_buffer@D@std@@@0@V10@EU?$_Basic_format_specs@D@0@V_Lazy_locale@0@@Z 000000014006d080 f i Zenith_DebugVariables.obj
 0001:0006c540       ??$_Write_integral@DV?$back_insert_iterator@V?$_Fmt_buffer@D@std@@@std@@H@std@@YA?AV?$back_insert_iterator@V?$_Fmt_buffer@D@std@@@0@V10@HU?$_Basic_format_specs@D@0@V_Lazy_locale@0@@Z 000000014006d540 f i Zenith_DebugVariables.obj
 0001:0006ca10       ??$_Write_integral@DV?$back_insert_iterator@V?$_Fmt_buffer@D@std@@@std@@I@std@@YA?AV?$back_insert_iterator@V?$_Fmt_buffer@D@std@@@0@V10@IU?$_Basic_format_specs@D@0@V_Lazy_locale@0@@Z 000000014006da10 f i Zenith_DebugVariables.obj
 0001:0006ced0       ??$_Write_integral@DV?$back_insert_iterator@V?$_Fmt_buffer@D@std@@@std@@_J@std@@YA?AV?$back_insert_iterator@V?$_Fmt_buffer@D@std@@@0@V10@_JU?$_Basic_format_specs@D@0@V_Lazy_locale@0@@Z 000000014006ded0 f i Zenith_DebugVariables.obj
 0001:0006d3a0       ??$_Write_integral@DV?$back_insert_iterator@V?$_Fmt_buffer@D@std@@@std@@_K@std@@YA?AV?$back_insert_iterator@V?$_Fmt_buffer@D@std@@@0@V10@_KU?$_Basic_format_specs@D@0@V_Lazy_locale@0@@Z 000000014006e3a0 f i Zenith_DebugVariables.obj
 0001:0006d860       ??$_Write_separated_integer@DV?$back_insert_iterator@V?$_Fmt_buffer@D@std@@@std@@@std@@YA?AV?$back_insert_iterator@V?$_Fmt_buffer@D@std@@@0@PEBDQEBDV?$basic_string_view@DU?$char_traits@D@std@@@0@DHV10@@Z 000000014006e860 f i Zenith_DebugVariables.obj
 0001:0006da00       ??$__append_c_digits@D@std@@YAXIIQEAD@Z 000000014006ea00 f i Zenith_DebugVariables.obj
 0001:0006dab0       ??$__append_n_digits@D@std@@YAXIIQEAD@Z 000000014006eab0 f i Zenith_DebugVariables.obj
 0001:0006dbc0       ??$__append_nine_digits@D@std@@YAXIQEAD@Z 000000014006ebc0 f i Zenith_DebugVariables.obj
 0001:0006dc60       ??$__d2fixed_buffered_n@D@std@@YA?AU?$pair@PEADW4errc@std@@@0@PEADQEADNI@Z 000000014006ec60 f i Zenith_DebugVariables.obj
 0001:0006e230       ??$__d2s_buffered_n@D@std@@YA?AU?$pair@PEADW4errc@std@@@0@QEAD0NW4chars_format@0@@Z 000000014006f230 f i Zenith_DebugVariables.obj
 0001:0006e3f0       ??$__to_chars@D@std@@YA?AU?$pair@PEADW4errc@std@@@0@QEAD0U__floating_decimal_32@0@W4chars_format@0@II@Z 000000014006f3f0 f i Zenith_DebugVariables.obj
 0001:0006e7b0       ??$__to_chars@D@std@@YA?AU?$pair@PEADW4errc@std@@@0@QEAD0U__floating_decimal_64@0@W4chars_format@0@N@Z 000000014006f7b0 f i Zenith_DebugVariables.obj
 0001:0006ee80       ??$vformat@$0A@@std@@YA?AV?$basic_string@DU?$char_traits@D@std@@V?$allocator@D@2@@0@V?$basic_string_view@DU?$char_traits@D@std@@@0@V?$basic_format_args@V?$basic_format_context@V?$back_insert_iterator@V?$_Fmt_buffer@D@std@@@std@@D@std@@@0@@Z 000000014006fe80 f i Zenith_DebugVariables.obj
 0001:0006f040       ??0CompressionExhaustedEXTError@vk@@QEAA@AEBV01@@Z 0000000140070040 f i Zenith_DebugVariables.obj
 0001:0006f040       ??0DeviceLostError@vk@@QEAA@AEBV01@@Z 0000000140070040 f i Zenith_DebugVariables.obj
 0001:0006f040       ??0ExtensionNotPresentError@vk@@QEAA@AEBV01@@Z 0000000140070040 f i Zenith_DebugVariables.obj
 0001:0006f040       ??0FeatureNotPresentError@vk@@QEAA@AEBV01@@Z 0000000140070040 f i Zenith_DebugVariables.obj
 0001:0006f040       ??0FormatNotSupportedError@vk@@QEAA@AEBV01@@Z 0000000140070040 f i Zenith_DebugVariables.obj
 0001:0006f040       ??0FragmentationError@vk@@QEAA@AEBV01@@Z 0000000140070040 f i Zenith_DebugVariables.obj
 0001:0006f040       ??0FragmentedPoolError@vk@@QEAA@AEBV01@@Z 0000000140070040 f i Zenith_DebugVariables.obj
 0001:0006f040       ??0ImageUsageNotSupportedKHRError@vk@@QEAA@AEBV01@@Z 0000000140070040 f i Zenith_DebugVariables.obj
 0001:0006f040       ??0IncompatibleDisplayKHRError@vk@@QEAA@AEBV01@@Z 0000000140070040 f i Zenith_DebugVariables.obj
 0001:0006f040       ??0IncompatibleDriverError@vk@@QEAA@AEBV01@@Z 0000000140070040 f i Zenith_DebugVariables.obj
 0001:0006f040       ??0InitializationFailedError@vk@@QEAA@AEBV01@@Z 0000000140070040 f i Zenith_DebugVariables.obj
 0001:0006f040       ??0InvalidDrmFormatModifierPlaneLayoutEXTError@vk@@QEAA@AEBV01@@Z 0000000140070040 f i Zenith_DebugVariables.obj
 0001:0006f040       ??0InvalidExternalHandleError@vk@@QEAA@AEBV01@@Z 0000000140070040 f i Zenith_DebugVariables.obj
 0001:0006f040       ??0InvalidOpaqueCaptureAddressError@vk@@QEAA@AEBV01@@Z 0000000140070040 f i Zenith_DebugVariables.obj
 0001:0006f040       ??0InvalidShaderNVError@vk@@QEAA@AEBV01@@Z 0000000140070040 f i Zenith_DebugVariables.obj
 0001:0006f040       ??0InvalidVideoStdParametersKHRError@vk@@QEAA@AEBV01@@Z 0000000140070040 f i Zenith_DebugVariables.obj
 0001:0006f040       ??0LayerNotPresentError@vk@@QEAA@AEBV01@@Z 0000000140070040 f i Zenith_DebugVariables.obj
 0001:0006f040       ??0MemoryMapFailedError@vk@@QEAA@AEBV01@@Z 0000000140070040 f i Zenith_DebugVariables.obj
 0001:0006f040       ??0NativeWindowInUseKHRError@vk@@QEAA@AEBV01@@Z 0000000140070040 f i Zenith_DebugVariables.obj
 0001:0006f040       ??0NotPermittedKHRError@vk@@QEAA@AEBV01@@Z 0000000140070040 f i Zenith_DebugVariables.obj
 0001:0006f040       ??0OutOfDateKHRError@vk@@QEAA@AEBV01@@Z 0000000140070040 f i Zenith_DebugVariables.obj
 0001:0006f040       ??0OutOfDeviceMemoryError@vk@@QEAA@AEBV01@@Z 0000000140070040 f i Zenith_DebugVariables.obj
 0001:0006f040       ??0OutOfHostMemoryError@vk@@QEAA@AEBV01@@Z 0000000140070040 f i Zenith_DebugVariables.obj
 0001:0006f040       ??0OutOfPoolMemoryError@vk@@QEAA@AEBV01@@Z 0000000140070040 f i Zenith_DebugVariables.obj
 0001:0006f040       ??0SurfaceLostKHRError@vk@@QEAA@AEBV01@@Z 0000000140070040 f i Zenith_DebugVariables.obj
 0001:0006f040       ??0TooManyObjectsError@vk@@QEAA@AEBV01@@Z 0000000140070040 f i Zenith_DebugVariables.obj
 0001:0006f040       ??0UnknownError@vk@@QEAA@AEBV01@@Z 0000000140070040 f i Zenith_DebugVariables.obj
 0001:0006f040       ??0ValidationFailedEXTError@vk@@QEAA@AEBV01@@Z 0000000140070040 f i Zenith_DebugVariables.obj
 0001:0006f040       ??0VideoPictureLayoutNotSupportedKHRError@vk@@QEAA@AEBV01@@Z 0000000140070040 f i Zenith_DebugVariables.obj
 0001:0006f040       ??0VideoProfileCodecNotSupportedKHRError@vk@@QEAA@AEBV01@@Z 0000000140070040 f i Zenith_DebugVariables.obj
 0001:0006f040       ??0VideoProfileFormatNotSupportedKHRError@vk@@QEAA@AEBV01@@Z 0000000140070040 f i Zenith_DebugVariables.obj
 0001:0006f040       ??0VideoProfileOperationNotSupportedKHRError@vk@@QEAA@AEBV01@@Z 0000000140070040 f i Zenith_DebugVariables.obj
 0001:0006f040       ??0VideoStdVersionNotSupportedKHRError@vk@@QEAA@AEBV01@@Z 0000000140070040 f i Zenith_DebugVariables.obj
 0001:0006f070       ??0CompressionExhaustedEXTError@vk@@QEAA@PEBD@Z 0000000140070070 f i Zenith_DebugVariables.obj
 0001:0006f140       ??0DeviceLostError@vk@@QEAA@PEBD@Z 0000000140070140 f i Zenith_DebugVariables.obj
 0001:0006f210       ??0Error@vk@@QEAA@AEBV01@@Z 0000000140070210 f i Zenith_DebugVariables.obj
 0001:0006f220       ??0ExtensionNotPresentError@vk@@QEAA@PEBD@Z 0000000140070220 f i Zenith_DebugVariables.obj
 0001:0006f2f0       ??0FeatureNotPresentError@vk@@QEAA@PEBD@Z 00000001400702f0 f i Zenith_DebugVariables.obj
 0001:0006f3c0       ??0FormatNotSupportedError@vk@@QEAA@PEBD@Z 00000001400703c0 f i Zenith_DebugVariables.obj
 0001:0006f490       ??0FragmentationError@vk@@QEAA@PEBD@Z 0000000140070490 f i Zenith_DebugVariables.obj
 0001:0006f560       ??0FragmentedPoolError@vk@@QEAA@PEBD@Z 0000000140070560 f i Zenith_DebugVariables.obj
 0001:0006f630       ??0ImageUsageNotSupportedKHRError@vk@@QEAA@PEBD@Z 0000000140070630 f i Zenith_DebugVariables.obj
 0001:0006f700       ??0IncompatibleDisplayKHRError@vk@@QEAA@PEBD@Z 0000000140070700 f i Zenith_DebugVariables.obj
 0001:0006f7d0       ??0IncompatibleDriverError@vk@@QEAA@PEBD@Z 00000001400707d0 f i Zenith_DebugVariables.obj
 0001:0006f8a0       ??0InitializationFailedError@vk@@QEAA@PEBD@Z 00000001400708a0 f i Zenith_DebugVariables.obj
 0001:0006f970       ??0InvalidDrmFormatModifierPlaneLayoutEXTError@vk@@QEAA@PEBD@Z 0000000140070970 f i Zenith_DebugVariables.obj
 0001:0006fa40       ??0InvalidExternalHandleError@vk@@QEAA@PEBD@Z 0000000140070a40 f i Zenith_DebugVariables.obj
 0001:0006fb10       ??0InvalidOpaqueCaptureAddressError@vk@@QEAA@PEBD@Z 0000000140070b10 f i Zenith_DebugVariables.obj
 0001:0006fbe0       ??0InvalidShaderNVError@vk@@QEAA@PEBD@Z 0000000140070be0 f i Zenith_DebugVariables.obj
 0001:0006fcb0       ??0InvalidVideoStdParametersKHRError@vk@@QEAA@PEBD@Z 0000000140070cb0 f i Zenith_DebugVariables.obj
 0001:0006fd80       ??0LayerNotPresentError@vk@@QEAA@PEBD@Z 0000000140070d80 f i Zenith_DebugVariables.obj
 0001:0006fe50       ??0MemoryMapFailedError@vk@@QEAA@PEBD@Z 0000000140070e50 f i Zenith_DebugVariables.obj
 0001:0006ff20       ??0NativeWindowInUseKHRError@vk@@QEAA@PEBD@Z 0000000140070f20 f i Zenith_DebugVariables.obj
 0001:0006fff0       ??0NotPermittedKHRError@vk@@QEAA@PEBD@Z 0000000140070ff0 f i Zenith_DebugVariables.obj
 0001:000700c0       ??0OutOfDateKHRError@vk@@QEAA@PEBD@Z 00000001400710c0 f i Zenith_DebugVariables.obj
 0001:00070190       ??0OutOfDeviceMemoryError@vk@@QEAA@PEBD@Z 0000000140071190 f i Zenith_DebugVariables.obj
 0001:00070260       ??0OutOfHostMemoryError@vk@@QEAA@PEBD@Z 0000000140071260 f i Zenith_DebugVariables.obj
 0001:00070330       ??0OutOfPoolMemoryError@vk@@QEAA@PEBD@Z 0000000140071330 f i Zenith_DebugVariables.obj
 0001:00070400       ??0SurfaceLostKHRError@vk@@QEAA@PEBD@Z 0000000140071400 f i Zenith_DebugVariables.obj
 0001:000704d0       ??0SystemError@vk@@QEAA@AEBV01@@Z 00000001400714d0 f i Zenith_DebugVariables.obj
 0001:00070540       ??0SystemError@vk@@QEAA@Verror_code@std@@PEBD@Z 0000000140071540 f i Zenith_DebugVariables.obj
 0001:00070590       ??0TooManyObjectsError@vk@@QEAA@PEBD@Z 0000000140071590 f i Zenith_DebugVariables.obj
 0001:00070660       ??0UnknownError@vk@@QEAA@PEBD@Z 0000000140071660 f i Zenith_DebugVariables.obj
 0001:00070730       ??0ValidationFailedEXTError@vk@@QEAA@PEBD@Z 0000000140071730 f i Zenith_DebugVariables.obj
 0001:00070800       ??0VideoPictureLayoutNotSupportedKHRError@vk@@QEAA@PEBD@Z 0000000140071800 f i Zenith_DebugVariables.obj
 0001:000708d0       ??0VideoProfileCodecNotSupportedKHRError@vk@@QEAA@PEBD@Z 00000001400718d0 f i Zenith_DebugVariables.obj
 0001:000709a0       ??0VideoProfileFormatNotSupportedKHRError@vk@@QEAA@PEBD@Z 00000001400719a0 f i Zenith_DebugVariables.obj
 0001:00070a70       ??0VideoProfileOperationNotSupportedKHRError@vk@@QEAA@PEBD@Z 0000000140071a70 f i Zenith_DebugVariables.obj
 0001:00070b40       ??0VideoStdVersionNotSupportedKHRError@vk@@QEAA@PEBD@Z 0000000140071b40 f i Zenith_DebugVariables.obj
 0001:00070c10       ??0format_error@std@@QEAA@PEBD@Z 0000000140071c10 f i Zenith_DebugVariables.obj
 0001:00070c60       ??0system_error@std@@QEAA@Verror_code@1@PEBD@Z 0000000140071c60 f i Zenith_DebugVariables.obj
 0001:00070d20       ??1CompressionExhaustedEXTError@vk@@UEAA@XZ 0000000140071d20 f i Zenith_DebugVariables.obj
 0001:00070d20       ??1DeviceLostError@vk@@UEAA@XZ 0000000140071d20 f i Zenith_DebugVariables.obj
 0001:00070d20       ??1ExtensionNotPresentError@vk@@UEAA@XZ 0000000140071d20 f i Zenith_DebugVariables.obj
 0001:00070d20       ??1FeatureNotPresentError@vk@@UEAA@XZ 0000000140071d20 f i Zenith_DebugVariables.obj
 0001:00070d20       ??1FormatNotSupportedError@vk@@UEAA@XZ 0000000140071d20 f i Zenith_DebugVariables.obj
 0001:00070d20       ??1FragmentationError@vk@@UEAA@XZ 0000000140071d20 f i Zenith_DebugVariables.obj
 0001:00070d20       ??1FragmentedPoolError@vk@@UEAA@XZ 0000000140071d20 f i Zenith_DebugVariables.obj
 0001:00070d20       ??1ImageUsageNotSupportedKHRError@vk@@UEAA@XZ 0000000140071d20 f i Zenith_DebugVariables.obj
 0001:00070d20       ??1IncompatibleDisplayKHRError@vk@@UEAA@XZ 0000000140071d20 f i Zenith_DebugVariables.obj
 0001:00070d20       ??1IncompatibleDriverError@vk@@UEAA@XZ 0000000140071d20 f i Zenith_DebugVariables.obj
 0001:00070d20       ??1InitializationFailedError@vk@@UEAA@XZ 0000000140071d20 f i Zenith_DebugVariables.obj
 0001:00070d20       ??1InvalidDrmFormatModifierPlaneLayoutEXTError@vk@@UEAA@XZ 0000000140071d20 f i Zenith_DebugVariables.obj
 0001:00070d20       ??1InvalidExternalHandleError@vk@@UEAA@XZ 0000000140071d20 f i Zenith_DebugVariables.obj
 0001:00070d20       ??1InvalidOpaqueCaptureAddressError@vk@@UEAA@XZ 0000000140071d20 f i Zenith_DebugVariables.obj
 0001:00070d20       ??1InvalidShaderNVError@vk@@UEAA@XZ 0000000140071d20 f i Zenith_DebugVariables.obj
 0001:00070d20       ??1InvalidVideoStdParametersKHRError@vk@@UEAA@XZ 0000000140071d20 f i Zenith_DebugVariables.obj
 0001:00070d20       ??1LayerNotPresentError@vk@@UEAA@XZ 0000000140071d20 f i Zenith_DebugVariables.obj
 0001:00070d20       ??1MemoryMapFailedError@vk@@UEAA@XZ 0000000140071d20 f i Zenith_DebugVariables.obj
 0001:00070d20       ??1NativeWindowInUseKHRError@vk@@UEAA@XZ 0000000140071d20 f i Zenith_DebugVariables.obj
 0001:00070d20       ??1NotPermittedKHRError@vk@@UEAA@XZ 0000000140071d20 f i Zenith_DebugVariables.obj
 0001:00070d20       ??1OutOfDateKHRError@vk@@UEAA@XZ 0000000140071d20 f i Zenith_DebugVariables.obj
 0001:00070d20       ??1OutOfDeviceMemoryError@vk@@UEAA@XZ 0000000140071d20 f i Zenith_DebugVariables.obj
 0001:00070d20       ??1OutOfHostMemoryError@vk@@UEAA@XZ 0000000140071d20 f i Zenith_DebugVariables.obj
 0001:00070d20       ??1OutOfPoolMemoryError@vk@@UEAA@XZ 0000000140071d20 f i Zenith_DebugVariables.obj
 0001:00070d20       ??1SurfaceLostKHRError@vk@@UEAA@XZ 0000000140071d20 f i Zenith_DebugVariables.obj
 0001:00070d20       ??1SystemError@vk@@UEAA@XZ 0000000140071d20 f i Zenith_DebugVariables.obj
 0001:00070d20       ??1TooManyObjectsError@vk@@UEAA@XZ 0000000140071d20 f i Zenith_DebugVariables.obj
 0001:00070d20       ??1UnknownError@vk@@UEAA@XZ 0000000140071d20 f i Zenith_DebugVariables.obj
 0001:00070d20       ??1ValidationFailedEXTError@vk@@UEAA@XZ 0000000140071d20 f i Zenith_DebugVariables.obj
 0001:00070d20       ??1VideoPictureLayoutNotSupportedKHRError@vk@@UEAA@XZ 0000000140071d20 f i Zenith_DebugVariables.obj
 0001:00070d20       ??1VideoProfileCodecNotSupportedKHRError@vk@@UEAA@XZ 0000000140071d20 f i Zenith_DebugVariables.obj
 0001:00070d20       ??1VideoProfileFormatNotSupportedKHRError@vk@@UEAA@XZ 0000000140071d20 f i Zenith_DebugVariables.obj
 0001:00070d20       ??1VideoProfileOperationNotSupportedKHRError@vk@@UEAA@XZ 0000000140071d20 f i Zenith_DebugVariables.obj
 0001:00070d20       ??1VideoStdVersionNotSupportedKHRError@vk@@UEAA@XZ 0000000140071d20 f i Zenith_DebugVariables.obj
 0001:00070d40       ??E?$_Grapheme_break_property_iterator@D@std@@QEAAAEAV01@XZ 0000000140071d40 f i Zenith_DebugVariables.obj
 0001:00071080       ??R<lambda_1>@?1???$_Fmt_write@DV?$back_insert_iterator@V?$_Fmt_buffer@D@std@@@std@@@std@@YA?AV?$back_insert_iterator@V?$_Fmt_buffer@D@std@@@1@V21@QEBXAEBU?$_Basic_format_specs@D@1@V_Lazy_locale@1@@Z@QEBA@0@Z 0000000140072080 f i Zenith_DebugVariables.obj
 0001:00071180       ??R<lambda_1>@?1???$_Fmt_write@DV?$back_insert_iterator@V?$_Fmt_buffer@D@std@@@std@@M@std@@YA?AV?$back_insert_iterator@V?$_Fmt_buffer@D@std@@@1@V21@MAEBU?$_Basic_format_specs@D@1@V_Lazy_locale@1@@Z@QEBA@0@Z 0000000140072180 f i Zenith_DebugVariables.obj
 0001:00071180       ??R<lambda_1>@?1???$_Fmt_write@DV?$back_insert_iterator@V?$_Fmt_buffer@D@std@@@std@@N@std@@YA?AV?$back_insert_iterator@V?$_Fmt_buffer@D@std@@@1@V21@NAEBU?$_Basic_format_specs@D@1@V_Lazy_locale@1@@Z@QEBA@0@Z 0000000140072180 f i Zenith_DebugVariables.obj
 0001:00071180       ??R<lambda_1>@?1???$_Fmt_write@DV?$back_insert_iterator@V?$_Fmt_buffer@D@std@@@std@@O@std@@YA?AV?$back_insert_iterator@V?$_Fmt_buffer@D@std@@@1@V21@OAEBU?$_Basic_format_specs@D@1@V_Lazy_locale@1@@Z@QEBA@0@Z 0000000140072180 f i Zenith_DebugVariables.obj
 0001:00071500       ??R<lambda_1>@?1???$_Write_integral@DV?$back_insert_iterator@V?$_Fmt_buffer@D@std@@@std@@E@std@@YA?AV?$back_insert_iterator@V?$_Fmt_buffer@D@std@@@1@V21@EU?$_Basic_format_specs@D@1@V_Lazy_locale@1@@Z@QEBA@0@Z 0000000140072500 f i Zenith_DebugVariables.obj
 0001:00071500       ??R<lambda_1>@?1???$_Write_integral@DV?$back_insert_iterator@V?$_Fmt_buffer@D@std@@@std@@I@std@@YA?AV?$back_insert_iterator@V?$_Fmt_buffer@D@std@@@1@V21@IU?$_Basic_format_specs@D@1@V_Lazy_locale@1@@Z@QEBA@0@Z 0000000140072500 f i Zenith_DebugVariables.obj
 0001:00071500       ??R<lambda_1>@?1???$_Write_integral@DV?$back_insert_iterator@V?$_Fmt_buffer@D@std@@@std@@_K@std@@YA?AV?$back_insert_iterator@V?$_Fmt_buffer@D@std@@@1@V21@_KU?$_Basic_format_specs@D@1@V_Lazy_locale@1@@Z@QEBA@0@Z 0000000140072500 f i Zenith_DebugVariables.obj
 0001:00071710       ??R<lambda_1>@?1???$_Write_integral@DV?$back_insert_iterator@V?$_Fmt_buffer@D@std@@@std@@H@std@@YA?AV?$back_insert_iterator@V?$_Fmt_buffer@D@std@@@1@V21@HU?$_Basic_format_specs@D@1@V_Lazy_locale@1@@Z@QEBA@0@Z 0000000140072710 f i Zenith_DebugVariables.obj
 0001:00071950       ??R<lambda_1>@?1???$_Write_integral@DV?$back_insert_iterator@V?$_Fmt_buffer@D@std@@@std@@_J@std@@YA?AV?$back_insert_iterator@V?$_Fmt_buffer@D@std@@@1@V21@_JU?$_Basic_format_specs@D@1@V_Lazy_locale@1@@Z@QEBA@0@Z 0000000140072950 f i Zenith_DebugVariables.obj
 0001:00071b90       ??R?$_Arg_formatter@V?$back_insert_iterator@V?$_Fmt_buffer@D@std@@@std@@D@std@@QEAA?AV?$back_insert_iterator@V?$_Fmt_buffer@D@std@@@1@Vhandle@?$basic_format_arg@V?$basic_format_context@V?$back_insert_iterator@V?$_Fmt_buffer@D@std@@@std@@D@std@@@1@@Z 0000000140072b90 f i Zenith_DebugVariables.obj
 0001:00071b9c       ??_ECompressionExhaustedEXTError@vk@@W7EAAPEAXI@Z 0000000140072b9c f i Zenith_DebugVariables.obj
 0001:00071b9c       ??_EDeviceLostError@vk@@W7EAAPEAXI@Z 0000000140072b9c f i Zenith_DebugVariables.obj
 0001:00071b9c       ??_EExtensionNotPresentError@vk@@W7EAAPEAXI@Z 0000000140072b9c f i Zenith_DebugVariables.obj
 0001:00071b9c       ??_EFeatureNotPresentError@vk@@W7EAAPEAXI@Z 0000000140072b9c f i Zenith_DebugVariables.obj
 0001:00071b9c       ??_EFormatNotSupportedError@vk@@W7EAAPEAXI@Z 0000000140072b9c f i Zenith_DebugVariables.obj
 0001:00071b9c       ??_EFragmentationError@vk@@W7EAAPEAXI@Z 0000000140072b9c f i Zenith_DebugVariables.obj
 0001:00071b9c       ??_EFragmentedPoolError@vk@@W7EAAPEAXI@Z 0000000140072b9c f i Zenith_DebugVariables.obj
 0001:00071b9c       ??_EImageUsageNotSupportedKHRError@vk@@W7EAAPEAXI@Z 0000000140072b9c f i Zenith_DebugVariables.obj
 0001:00071b9c       ??_EIncompatibleDisplayKHRError@vk@@W7EAAPEAXI@Z 0000000140072b9c f i Zenith_DebugVariables.obj
 0001:00071b9c       ??_EIncompatibleDriverError@vk@@W7EAAPEAXI@Z 0000000140072b9c f i Zenith_DebugVariables.obj
 0001:00071b9c       ??_EInitializationFailedError@vk@@W7EAAPEAXI@Z 0000000140072b9c f i Zenith_DebugVariables.obj
 0001:00071b9c       ??_EInvalidDrmFormatModifierPlaneLayoutEXTError@vk@@W7EAAPEAXI@Z 0000000140072b9c f i Zenith_DebugVariables.obj
 0001:00071b9c       ??_EInvalidExternalHandleError@vk@@W7EAAPEAXI@Z 0000000140072b9c f i Zenith_DebugVariables.obj
 0001:00071b9c       ??_EInvalidOpaqueCaptureAddressError@vk@@W7EAAPEAXI@Z 0000000140072b9c f i Zenith_DebugVariables.obj
 0001:00071b9c       ??_EInvalidShaderNVError@vk@@W7EAAPEAXI@Z 0000000140072b9c f i Zenith_DebugVariables.obj
 0001:00071b9c       ??_EInvalidVideoStdParametersKHRError@vk@@W7EAAPEAXI@Z 0000000140072b9c f i Zenith_DebugVariables.obj
 0001:00071b9c       ??_ELayerNotPresentError@vk@@W7EAAPEAXI@Z 0000000140072b9c f i Zenith_DebugVariables.obj
 0001:00071b9c       ??_EMemoryMapFailedError@vk@@W7EAAPEAXI@Z 0000000140072b9c f i Zenith_DebugVariables.obj
 0001:00071b9c       ??_ENativeWindowInUseKHRError@vk@@W7EAAPEAXI@Z 0000000140072b9c f i Zenith_DebugVariables.obj
 0001:00071b9c       ??_ENotPermittedKHRError@vk@@W7EAAPEAXI@Z 0000000140072b9c f i Zenith_DebugVariables.obj
 0001:00071b9c       ??_EOutOfDateKHRError@vk@@W7EAAPEAXI@Z 0000000140072b9c f i Zenith_DebugVariables.obj
 0001:00071b9c       ??_EOutOfDeviceMemoryError@vk@@W7EAAPEAXI@Z 0000000140072b9c f i Zenith_DebugVariables.obj
 0001:00071b9c       ??_EOutOfHostMemoryError@vk@@W7EAAPEAXI@Z 0000000140072b9c f i Zenith_DebugVariables.obj
 0001:00071b9c       ??_EOutOfPoolMemoryError@vk@@W7EAAPEAXI@Z 0000000140072b9c f i Zenith_DebugVariables.obj
 0001:00071b9c       ??_ESurfaceLostKHRError@vk@@W7EAAPEAXI@Z 0000000140072b9c f i Zenith_DebugVariables.obj
 0001:00071b9c       ??_ESystemError@vk@@W7EAAPEAXI@Z 0000000140072b9c f i Zenith_DebugVariables.obj
 0001:00071b9c       ??_ETooManyObjectsError@vk@@W7EAAPEAXI@Z 0000000140072b9c f i Zenith_DebugVariables.obj
 0001:00071b9c       ??_EUnknownError@vk@@W7EAAPEAXI@Z 0000000140072b9c f i Zenith_DebugVariables.obj
 0001:00071b9c       ??_EValidationFailedEXTError@vk@@W7EAAPEAXI@Z 0000000140072b9c f i Zenith_DebugVariables.obj
 0001:00071b9c       ??_EVideoPictureLayoutNotSupportedKHRError@vk@@W7EAAPEAXI@Z 0000000140072b9c f i Zenith_DebugVariables.obj
 0001:00071b9c       ??_EVideoProfileCodecNotSupportedKHRError@vk@@W7EAAPEAXI@Z 0000000140072b9c f i Zenith_DebugVariables.obj
 0001:00071b9c       ??_EVideoProfileFormatNotSupportedKHRError@vk@@W7EAAPEAXI@Z 0000000140072b9c f i Zenith_DebugVariables.obj
 0001:00071b9c       ??_EVideoProfileOperationNotSupportedKHRError@vk@@W7EAAPEAXI@Z 0000000140072b9c f i Zenith_DebugVariables.obj
 0001:00071b9c       ??_EVideoStdVersionNotSupportedKHRError@vk@@W7EAAPEAXI@Z 0000000140072b9c f i Zenith_DebugVariables.obj
 0001:00071bb0       ??_ECompressionExhaustedEXTError@vk@@UEAAPEAXI@Z 0000000140072bb0 f i Zenith_DebugVariables.obj
 0001:00071bb0       ??_EDeviceLostError@vk@@UEAAPEAXI@Z 0000000140072bb0 f i Zenith_DebugVariables.obj
 0001:00071bb0       ??_EExtensionNotPresentError@vk@@UEAAPEAXI@Z 0000000140072bb0 f i Zenith_DebugVariables.obj
 0001:00071bb0       ??_EFeatureNotPresentError@vk@@UEAAPEAXI@Z 0000000140072bb0 f i Zenith_DebugVariables.obj
 0001:00071bb0       ??_EFormatNotSupportedError@vk@@UEAAPEAXI@Z 0000000140072bb0 f i Zenith_DebugVariables.obj
 0001:00071bb0       ??_EFragmentationError@vk@@UEAAPEAXI@Z 0000000140072bb0 f i Zenith_DebugVariables.obj
 0001:00071bb0       ??_EFragmentedPoolError@vk@@UEAAPEAXI@Z 0000000140072bb0 f i Zenith_DebugVariables.obj
 0001:00071bb0       ??_EImageUsageNotSupportedKHRError@vk@@UEAAPEAXI@Z 0000000140072bb0 f i Zenith_DebugVariables.obj
 0001:00071bb0       ??_EIncompatibleDisplayKHRError@vk@@UEAAPEAXI@Z 0000000140072bb0 f i Zenith_DebugVariables.obj
 0001:00071bb0       ??_EIncompatibleDriverError@vk@@UEAAPEAXI@Z 0000000140072bb0 f i Zenith_DebugVariables.obj
 0001:00071bb0       ??_EInitializationFailedError@vk@@UEAAPEAXI@Z 0000000140072bb0 f i Zenith_DebugVariables.obj
 0001:00071bb0       ??_EInvalidDrmFormatModifierPlaneLayoutEXTError@vk@@UEAAPEAXI@Z 0000000140072bb0 f i Zenith_DebugVariables.obj
 0001:00071bb0       ??_EInvalidExternalHandleError@vk@@UEAAPEAXI@Z 0000000140072bb0 f i Zenith_DebugVariables.obj
 0001:00071bb0       ??_EInvalidOpaqueCaptureAddressError@vk@@UEAAPEAXI@Z 0000000140072bb0 f i Zenith_DebugVariables.obj
 0001:00071bb0       ??_EInvalidShaderNVError@vk@@UEAAPEAXI@Z 0000000140072bb0 f i Zenith_DebugVariables.obj
 0001:00071bb0       ??_EInvalidVideoStdParametersKHRError@vk@@UEAAPEAXI@Z 0000000140072bb0 f i Zenith_DebugVariables.obj
 0001:00071bb0       ??_ELayerNotPresentError@vk@@UEAAPEAXI@Z 0000000140072bb0 f i Zenith_DebugVariables.obj
 0001:00071bb0       ??_EMemoryMapFailedError@vk@@UEAAPEAXI@Z 0000000140072bb0 f i Zenith_DebugVariables.obj
 0001:00071bb0       ??_ENativeWindowInUseKHRError@vk@@UEAAPEAXI@Z 0000000140072bb0 f i Zenith_DebugVariables.obj
 0001:00071bb0       ??_ENotPermittedKHRError@vk@@UEAAPEAXI@Z 0000000140072bb0 f i Zenith_DebugVariables.obj
 0001:00071bb0       ??_EOutOfDateKHRError@vk@@UEAAPEAXI@Z 0000000140072bb0 f i Zenith_DebugVariables.obj
 0001:00071bb0       ??_EOutOfDeviceMemoryError@vk@@UEAAPEAXI@Z 0000000140072bb0 f i Zenith_DebugVariables.obj
 0001:00071bb0       ??_EOutOfHostMemoryError@vk@@UEAAPEAXI@Z 0000000140072bb0 f i Zenith_DebugVariables.obj
 0001:00071bb0       ??_EOutOfPoolMemoryError@vk@@UEAAPEAXI@Z 0000000140072bb0 f i Zenith_DebugVariables.obj
 0001:00071bb0       ??_ESurfaceLostKHRError@vk@@UEAAPEAXI@Z 0000000140072bb0 f i Zenith_DebugVariables.obj
 0001:00071bb0       ??_ESystemError@vk@@UEAAPEAXI@Z 0000000140072bb0 f i Zenith_DebugVariables.obj
 0001:00071bb0       ??_ETooManyObjectsError@vk@@UEAAPEAXI@Z 0000000140072bb0 f i Zenith_DebugVariables.obj
 0001:00071bb0       ??_EUnknownError@vk@@UEAAPEAXI@Z 0000000140072bb0 f i Zenith_DebugVariables.obj
 0001:00071bb0       ??_EValidationFailedEXTError@vk@@UEAAPEAXI@Z 0000000140072bb0 f i Zenith_DebugVariables.obj
 0001:00071bb0       ??_EVideoPictureLayoutNotSupportedKHRError@vk@@UEAAPEAXI@Z 0000000140072bb0 f i Zenith_DebugVariables.obj
 0001:00071bb0       ??_EVideoProfileCodecNotSupportedKHRError@vk@@UEAAPEAXI@Z 0000000140072bb0 f i Zenith_DebugVariables.obj
 0001:00071bb0       ??_EVideoProfileFormatNotSupportedKHRError@vk@@UEAAPEAXI@Z 0000000140072bb0 f i Zenith_DebugVariables.obj
 0001:00071bb0       ??_EVideoProfileOperationNotSupportedKHRError@vk@@UEAAPEAXI@Z 0000000140072bb0 f i Zenith_DebugVariables.obj
 0001:00071bb0       ??_EVideoStdVersionNotSupportedKHRError@vk@@UEAAPEAXI@Z 0000000140072bb0 f i Zenith_DebugVariables.obj
 0001:00071bb0       ??_GCompressionExhaustedEXTError@vk@@UEAAPEAXI@Z 0000000140072bb0 f i Zenith_DebugVariables.obj
 0001:00071bb0       ??_GDeviceLostError@vk@@UEAAPEAXI@Z 0000000140072bb0 f i Zenith_DebugVariables.obj
 0001:00071bb0       ??_GExtensionNotPresentError@vk@@UEAAPEAXI@Z 0000000140072bb0 f i Zenith_DebugVariables.obj
 0001:00071bb0       ??_GFeatureNotPresentError@vk@@UEAAPEAXI@Z 0000000140072bb0 f i Zenith_DebugVariables.obj
 0001:00071bb0       ??_GFormatNotSupportedError@vk@@UEAAPEAXI@Z 0000000140072bb0 f i Zenith_DebugVariables.obj
 0001:00071bb0       ??_GFragmentationError@vk@@UEAAPEAXI@Z 0000000140072bb0 f i Zenith_DebugVariables.obj
 0001:00071bb0       ??_GFragmentedPoolError@vk@@UEAAPEAXI@Z 0000000140072bb0 f i Zenith_DebugVariables.obj
 0001:00071bb0       ??_GImageUsageNotSupportedKHRError@vk@@UEAAPEAXI@Z 0000000140072bb0 f i Zenith_DebugVariables.obj
 0001:00071bb0       ??_GIncompatibleDisplayKHRError@vk@@UEAAPEAXI@Z 0000000140072bb0 f i Zenith_DebugVariables.obj
 0001:00071bb0       ??_GIncompatibleDriverError@vk@@UEAAPEAXI@Z 0000000140072bb0 f i Zenith_DebugVariables.obj
 0001:00071bb0       ??_GInitializationFailedError@vk@@UEAAPEAXI@Z 0000000140072bb0 f i Zenith_DebugVariables.obj
 0001:00071bb0       ??_GInvalidDrmFormatModifierPlaneLayoutEXTError@vk@@UEAAPEAXI@Z 0000000140072bb0 f i Zenith_DebugVariables.obj
 0001:00071bb0       ??_GInvalidExternalHandleError@vk@@UEAAPEAXI@Z 0000000140072bb0 f i Zenith_DebugVariables.obj
 0001:00071bb0       ??_GInvalidOpaqueCaptureAddressError@vk@@UEAAPEAXI@Z 0000000140072bb0 f i Zenith_DebugVariables.obj
 0001:00071bb0       ??_GInvalidShaderNVError@vk@@UEAAPEAXI@Z 0000000140072bb0 f i Zenith_DebugVariables.obj
 0001:00071bb0       ??_GInvalidVideoStdParametersKHRError@vk@@UEAAPEAXI@Z 0000000140072bb0 f i Zenith_DebugVariables.obj
 0001:00071bb0       ??_GLayerNotPresentError@vk@@UEAAPEAXI@Z 0000000140072bb0 f i Zenith_DebugVariables.obj
 0001:00071bb0       ??_GMemoryMapFailedError@vk@@UEAAPEAXI@Z 0000000140072bb0 f i Zenith_DebugVariables.obj
 0001:00071bb0       ??_GNativeWindowInUseKHRError@vk@@UEAAPEAXI@Z 0000000140072bb0 f i Zenith_DebugVariables.obj
 0001:00071bb0       ??_GNotPermittedKHRError@vk@@UEAAPEAXI@Z 0000000140072bb0 f i Zenith_DebugVariables.obj
 0001:00071bb0       ??_GOutOfDateKHRError@vk@@UEAAPEAXI@Z 0000000140072bb0 f i Zenith_DebugVariables.obj
 0001:00071bb0       ??_GOutOfDeviceMemoryError@vk@@UEAAPEAXI@Z 0000000140072bb0 f i Zenith_DebugVariables.obj
 0001:00071bb0       ??_GOutOfHostMemoryError@vk@@UEAAPEAXI@Z 0000000140072bb0 f i Zenith_DebugVariables.obj
 0001:00071bb0       ??_GOutOfPoolMemoryError@vk@@UEAAPEAXI@Z 0000000140072bb0 f i Zenith_DebugVariables.obj
 0001:00071bb0       ??_GSurfaceLostKHRError@vk@@UEAAPEAXI@Z 0000000140072bb0 f i Zenith_DebugVariables.obj
 0001:00071bb0       ??_GSystemError@vk@@UEAAPEAXI@Z 0000000140072bb0 f i Zenith_DebugVariables.obj
 0001:00071bb0       ??_GTooManyObjectsError@vk@@UEAAPEAXI@Z 0000000140072bb0 f i Zenith_DebugVariables.obj
 0001:00071bb0       ??_GUnknownError@vk@@UEAAPEAXI@Z 0000000140072bb0 f i Zenith_DebugVariables.obj
 0001:00071bb0       ??_GValidationFailedEXTError@vk@@UEAAPEAXI@Z 0000000140072bb0 f i Zenith_DebugVariables.obj
 0001:00071bb0       ??_GVideoPictureLayoutNotSupportedKHRError@vk@@UEAAPEAXI@Z 0000000140072bb0 f i Zenith_DebugVariables.obj
 0001:00071bb0       ??_GVideoProfileCodecNotSupportedKHRError@vk@@UEAAPEAXI@Z 0000000140072bb0 f i Zenith_DebugVariables.obj
 0001:00071bb0       ??_GVideoProfileFormatNotSupportedKHRError@vk@@UEAAPEAXI@Z 0000000140072bb0 f i Zenith_DebugVariables.obj
 0001:00071bb0       ??_GVideoProfileOperationNotSupportedKHRError@vk@@UEAAPEAXI@Z 0000000140072bb0 f i Zenith_DebugVariables.obj
 0001:00071bb0       ??_GVideoStdVersionNotSupportedKHRError@vk@@UEAAPEAXI@Z 0000000140072bb0 f i Zenith_DebugVariables.obj
 0001:00071c00       ?AddLeafNode@Zenith_DebugVariableTree@@QEAAXPEAULeafNodeBase@1@AEAV?$vector@V?$basic_string@DU?$char_traits@D@std@@V?$allocator@D@2@@std@@V?$allocator@V?$basic_string@DU?$char_traits@D@std@@V?$allocator@D@2@@std@@@2@@std@@@Z 0000000140072c00 f   Zenith_DebugVariables.obj
 0001:00071e40       ?ImGuiDisplay@?$LeafNode@$$CBVZenith_Vulkan_Texture@@@Zenith_DebugVariableTree@@UEAAXXZ 0000000140072e40 f   Zenith_DebugVariables.obj
 0001:000720e0       ?ImGuiDisplay@?$LeafNode@_N@Zenith_DebugVariableTree@@UEAAXXZ 00000001400730e0 f   Zenith_DebugVariables.obj
 0001:00072100       ?ImGuiDisplay@?$LeafNodeWithRange@II@Zenith_DebugVariableTree@@UEAAXXZ 0000000140073100 f   Zenith_DebugVariables.obj
 0001:00072140       ?ImGuiDisplay@?$LeafNodeWithRange@MM@Zenith_DebugVariableTree@@UEAAXXZ 0000000140073140 f   Zenith_DebugVariables.obj
 0001:00072190       ?ImGuiDisplay@?$LeafNodeWithRange@U?$vec@$02M$0A@@glm@@M@Zenith_DebugVariableTree@@UEAAXXZ 0000000140073190 f   Zenith_DebugVariables.obj
 0001:000721e0       ?ImGuiDisplay@?$LeafNodeWithRange@U?$vec@$03M$0A@@glm@@M@Zenith_DebugVariableTree@@UEAAXXZ 00000001400731e0 f   Zenith_DebugVariables.obj
 0001:00072230       ?ImGuiDisplay@PfnLeafNode@Zenith_DebugVariableTree@@UEAAXXZ 0000000140073230 f   Zenith_DebugVariables.obj
 0001:00072280       ?ImGuiDisplay@TextNode@Zenith_DebugVariableTree@@UEAAXXZ 0000000140073280 f   Zenith_DebugVariables.obj
 0001:000722a0       ?TryAddNode@Zenith_DebugVariableTree@@QEAAXPEAUNode@1@0AEAV?$vector@V?$basic_string@DU?$char_traits@D@std@@V?$allocator@D@2@@std@@V?$allocator@V?$basic_string@DU?$char_traits@D@std@@V?$allocator@D@2@@std@@@2@@std@@IIAEA_NAEAPEAU21@@Z 00000001400732a0 f   Zenith_DebugVariables.obj
 0001:00072580       ?_Change_array@?$vector@V?$basic_string@DU?$char_traits@D@std@@V?$allocator@D@2@@std@@V?$allocator@V?$basic_string@DU?$char_traits@D@std@@V?$allocator@D@2@@std@@@2@@std@@AEAAXQEAV?$basic_string@DU?$char_traits@D@std@@V?$allocator@D@2@@2@_K1@Z 0000000140073580 f i Zenith_DebugVariables.obj
 0001:00072620       ?_Decode_utf@std@@YA?AU?$_Decode_result@D@1@PEBD0AEA_U@Z 0000000140073620 f i Zenith_DebugVariables.obj
 0001:000727c0       ?_On_replacement_field@?$_Format_handler@D@std@@QEAAX_KPEBD@Z 00000001400737c0 f i Zenith_DebugVariables.obj
 0001:00072870       ?_On_text@?$_Format_handler@D@std@@QEAAXPEBD0@Z 0000000140073870 f i Zenith_DebugVariables.obj
 0001:00072900       ?_Throw_format_error@std@@YAXQEBD@Z 0000000140073900 f i Zenith_DebugVariables.obj
 0001:00072930       ?__append_d_digits@std@@YAXIIQEAD@Z 0000000140073930 f i Zenith_DebugVariables.obj
 0001:00072a40       ?__d2d@std@@YA?AU__floating_decimal_64@1@_KI@Z 0000000140073a40 f i Zenith_DebugVariables.obj
 0001:00072ff0       ?__d2exp_buffered_n@std@@YA?AUto_chars_result@1@PEADQEADNI@Z 0000000140073ff0 f i Zenith_DebugVariables.obj
 0001:000738b0       ?__decimalLength9@std@@YAII@Z 00000001400748b0 f i Zenith_DebugVariables.obj
 0001:00073920       ?__f2d@std@@YA?AU__floating_decimal_32@1@II@Z 0000000140074920 f i Zenith_DebugVariables.obj
 0001:00073e80       ?__mulShift_mod1e9@std@@YAI_KQEB_KH@Z 0000000140074e80 f i Zenith_DebugVariables.obj
 0001:00073f50       ?__multipleOfPowerOf5@std@@YA_NII@Z 0000000140074f50 f i Zenith_DebugVariables.obj
 0001:00073f90       ?__multipleOfPowerOf5@std@@YA_N_KI@Z 0000000140074f90 f i Zenith_DebugVariables.obj
 0001:00073ff0       ?deallocate@?$allocator@N@std@@QEAAXQEAN_K@Z 0000000140074ff0 f i Zenith_UnitTests.obj
 0001:00073ff0       ?deallocate@?$allocator@P6AXXZ@std@@QEAAXQEAP6AXXZ_K@Z 0000000140074ff0 f i Flux_Graphics.obj
 0001:00073ff0       ?deallocate@?$allocator@PEAULeafNodeBase@Zenith_DebugVariableTree@@@std@@QEAAXQEAPEAULeafNodeBase@Zenith_DebugVariableTree@@_K@Z 0000000140074ff0 f i Zenith_DebugVariables.obj
 0001:00073ff0       ?deallocate@?$allocator@PEAUNode@Zenith_DebugVariableTree@@@std@@QEAAXQEAPEAUNode@Zenith_DebugVariableTree@@_K@Z 0000000140074ff0 f i Zenith_DebugVariables.obj
 0001:00073ff0       ?deallocate@?$allocator@UAttachmentReference@vk@@@std@@QEAAXQEAUAttachmentReference@vk@@_K@Z 0000000140074ff0 f i Zenith_Vulkan_Pipeline.obj
 0001:00073ff0       ?deallocate@?$allocator@USurfaceFormatKHR@vk@@@std@@QEAAXQEAUSurfaceFormatKHR@vk@@_K@Z 0000000140074ff0 f i Zenith_Vulkan_Swapchain.obj
 0001:00073ff0       ?deallocate@?$allocator@U_Find_file_handle@filesystem@std@@@std@@QEAAXQEAU_Find_file_handle@filesystem@2@_K@Z 0000000140074ff0 f i zenithtools:Zenith_Tools_MeshExport.obj
 0001:00073ff0       ?deallocate@?$allocator@VCommandBuffer@vk@@@std@@QEAAXQEAVCommandBuffer@vk@@_K@Z 0000000140074ff0 f i Zenith_Vulkan.obj
 0001:00073ff0       ?deallocate@?$allocator@VImage@vk@@@std@@QEAAXQEAVImage@vk@@_K@Z 0000000140074ff0 f i Zenith_Vulkan_Swapchain.obj
 0001:00073ff0       ?deallocate@?$allocator@VImageView@vk@@@std@@QEAAXQEAVImageView@vk@@_K@Z 0000000140074ff0 f i Zenith_Vulkan_Swapchain.obj
 0001:00073ff0       ?deallocate@?$allocator@VPhysicalDevice@vk@@@std@@QEAAXQEAVPhysicalDevice@vk@@_K@Z 0000000140074ff0 f i Zenith_Vulkan.obj
 0001:00073ff0       ?deallocate@?$allocator@VSemaphore@vk@@@std@@QEAAXQEAVSemaphore@vk@@_K@Z 0000000140074ff0 f i Zenith_Vulkan_CommandBuffer.obj
 0001:00074040       ?make_error_code@vk@@YA?AVerror_code@std@@W4Result@1@@Z 0000000140075040 f i Zenith_DebugVariables.obj
 0001:000740c0       ?throwResultException@detail@vk@@YAXW4Result@2@PEBD@Z 00000001400750c0 f i Zenith_DebugVariables.obj
 0001:00074600       ?to_chars@std@@YA?AUto_chars_result@1@QEAD0M@Z 0000000140075600 f i Zenith_DebugVariables.obj
 0001:00074780       ?to_string@vk@@YA?AV?$basic_string@DU?$char_traits@D@std@@V?$allocator@D@2@@std@@W4Result@1@@Z 0000000140075780 f i Zenith_DebugVariables.obj
 0001:00075400       ?what@SystemError@vk@@UEBAPEBDXZ 0000000140076400 f i Zenith_DebugVariables.obj
 0001:00075414       ?what@SystemError@vk@@W7EBAPEBDXZ 0000000140076414 f i Zenith_DebugVariables.obj
 0001:00075420       ??$rotate@N$0A@@glm@@YA?AU?$mat@$03$03N$0A@@0@AEBU10@NAEBU?$vec@$02N$0A@@0@@Z 0000000140076420 f i Zenith_CameraComponent.obj
 0001:00075830       ??0Zenith_CameraComponent@@QEAA@AEAVZenith_Entity@@@Z 0000000140076830 f   Zenith_CameraComponent.obj
 0001:000758a0       ?BuildProjectionMatrix@Zenith_CameraComponent@@QEBAXAEAU?$mat@$03$03M$0A@@glm@@@Z 00000001400768a0 f   Zenith_CameraComponent.obj
 0001:00075b10       ?BuildViewMatrix@Zenith_CameraComponent@@QEBAXAEAU?$mat@$03$03M$0A@@glm@@@Z 0000000140076b10 f   Zenith_CameraComponent.obj
 0001:00075da0       ?GetFacingDir@Zenith_CameraComponent@@QEBAXAEAU?$vec@$02M$0A@@glm@@@Z 0000000140076da0 f   Zenith_CameraComponent.obj
 0001:00075e30       ?GetPosition@Zenith_CameraComponent@@QEAAXAEAU?$vec@$03M$0A@@glm@@@Z 0000000140076e30 f   Zenith_CameraComponent.obj
 0001:00075e50       ?GetPosition@Zenith_CameraComponent@@QEBAXAEAU?$vec@$02M$0A@@glm@@@Z 0000000140076e50 f   Zenith_CameraComponent.obj
 0001:00075e60       ?InitialisePerspective@Zenith_CameraComponent@@QEAAXAEBU?$vec@$02M$0A@@glm@@MMMMMM@Z 0000000140076e60 f   Zenith_CameraComponent.obj
 0001:00075ec0       ?call@?$compute_inverse@$03$03M$0A@$0A@@detail@glm@@SA?AU?$mat@$03$03M$0A@@3@AEBU43@@Z 0000000140076ec0 f i Zenith_CameraComponent.obj
 0001:00076590       ?call@?$mul4x4@M$0A@$0A@@detail@glm@@SA?AU?$mat@$03$03M$0A@@3@AEBU43@0@Z 0000000140077590 f i Zenith_CameraComponent.obj
 0001:00076ae0       ?call@?$mul4x4@N$0A@$0A@@detail@glm@@SA?AU?$mat@$03$03N$0A@@3@AEBU43@0@Z 0000000140077ae0 f i Zenith_CameraComponent.obj
 0001:00076f80       ??$GetComponentFromEntity@VZenith_TransformComponent@@@Zenith_Scene@@QEAAAEAVZenith_TransformComponent@@I@Z 0000000140077f80 f i Zenith_ColliderComponent.obj
 0001:00077180       ??$GetTypeID@VZenith_TransformComponent@@@TypeIDGenerator@Zenith_Scene@@SAIXZ 0000000140078180 f i Zenith_ColliderComponent.obj
 0001:000771f0       ??1Zenith_Entity@@QEAA@XZ  00000001400781f0 f i Zenith_ColliderComponent.obj
 0001:00077250       ??_E?$Zenith_ComponentPool@VZenith_TerrainComponent@@@@UEAAPEAXI@Z 0000000140078250 f i Zenith_ColliderComponent.obj
 0001:00077250       ??_G?$Zenith_ComponentPool@VZenith_TerrainComponent@@@@UEAAPEAXI@Z 0000000140078250 f i Zenith_ColliderComponent.obj
 0001:000772c0       ??_E?$Zenith_ComponentPool@VZenith_TransformComponent@@@@UEAAPEAXI@Z 00000001400782c0 f i Zenith_ColliderComponent.obj
 0001:000772c0       ??_G?$Zenith_ComponentPool@VZenith_TransformComponent@@@@UEAAPEAXI@Z 00000001400782c0 f i Zenith_ColliderComponent.obj
 0001:00077330       ?IsVisible@Zenith_TerrainComponent@@QEBA?B_NMAEBVZenith_CameraComponent@@@Z 0000000140078330 f   Zenith_TerrainComponent.obj
 0001:00077400       ??$scale@M$0A@@glm@@YA?AU?$mat@$03$03M$0A@@0@AEBU10@AEBU?$vec@$02M$0A@@0@@Z 0000000140078400 f i Zenith_TransformComponent.obj
 0001:00077520       ??0Zenith_TransformComponent@@QEAA@AEBV?$basic_string@DU?$char_traits@D@std@@V?$allocator@D@2@@std@@AEAVZenith_Entity@@@Z 0000000140078520 f   Zenith_TransformComponent.obj
 0001:000775b0       ??1Zenith_TransformComponent@@QEAA@XZ 00000001400785b0 f   Zenith_TransformComponent.obj
 0001:00077620       ?BuildModelMatrix@Zenith_TransformComponent@@QEAAXAEAU?$mat@$03$03M$0A@@glm@@@Z 0000000140078620 f   Zenith_TransformComponent.obj
 0001:00077ac0       ??$AddComponent@VZenith_TransformComponent@@AEBV?$basic_string@DU?$char_traits@D@std@@V?$allocator@D@2@@std@@@Zenith_Entity@@QEAAAEAVZenith_TransformComponent@@AEBV?$basic_string@DU?$char_traits@D@std@@V?$allocator@D@2@@std@@@Z 0000000140078ac0 f i Zenith_Entity.obj
 0001:00077bf0       ??$CreateComponent@VZenith_TransformComponent@@AEBV?$basic_string@DU?$char_traits@D@std@@V?$allocator@D@2@@std@@AEAVZenith_Entity@@@Zenith_Scene@@QEAAAEAVZenith_TransformComponent@@IAEBV?$basic_string@DU?$char_traits@D@std@@V?$allocator@D@2@@std@@AEAVZenith_Entity@@@Z 0000000140078bf0 f i Zenith_Entity.obj
 0001:00077ea0       ??$_Insert_range_unchecked@V?$_List_unchecked_const_iterator@V?$_List_val@U?$_List_simple_types@U?$pair@$$CBII@std@@@std@@@std@@U_Iterator_base0@2@@std@@V12@@?$_Hash@V?$_Umap_traits@IIV?$_Uhash_compare@IU?$hash@I@std@@U?$equal_to@I@2@@std@@V?$allocator@U?$pair@$$CBII@std@@@2@$0A@@std@@@std@@IEAAXV?$_List_unchecked_const_iterator@V?$_List_val@U?$_List_simple_types@U?$pair@$$CBII@std@@@std@@@std@@U_Iterator_base0@2@@1@V21@@Z 0000000140078ea0 f i Zenith_Entity.obj
 0001:000780e0       ??$_Try_emplace@AEBI$$V@?$_Hash@V?$_Umap_traits@IIV?$_Uhash_compare@IU?$hash@I@std@@U?$equal_to@I@2@@std@@V?$allocator@U?$pair@$$CBII@std@@@2@$0A@@std@@@std@@IEAA?AU?$pair@PEAU?$_List_node@U?$pair@$$CBII@std@@PEAX@std@@_N@1@AEBI@Z 00000001400790e0 f i Zenith_Entity.obj
 0001:00078310       ??$emplace@U?$pair@$$CBIVZenith_Entity@@@std@@@?$_Hash@V?$_Umap_traits@IVZenith_Entity@@V?$_Uhash_compare@IU?$hash@I@std@@U?$equal_to@I@2@@std@@V?$allocator@U?$pair@$$CBIVZenith_Entity@@@std@@@3@$0A@@std@@@std@@QEAA?AU?$pair@V?$_List_iterator@V?$_List_val@U?$_List_simple_types@U?$pair@$$CBIVZenith_Entity@@@std@@@std@@@std@@@std@@_N@1@$$QEAU?$pair@$$CBIVZenith_Entity@@@1@@Z 0000000140079310 f i Zenith_Entity.obj
 0001:00078640       ?CreateEntity@Zenith_Scene@@QEAAIXZ 0000000140079640 f i Zenith_Entity.obj
 0001:00078840       ?Initialise@Zenith_Entity@@QEAAXPEAVZenith_Scene@@AEBV?$basic_string@DU?$char_traits@D@std@@V?$allocator@D@2@@std@@@Z 0000000140079840 f   Zenith_Entity.obj
 0001:00078900       ?_Forced_rehash@?$_Hash@V?$_Umap_traits@IIV?$_Uhash_compare@IU?$hash@I@std@@U?$equal_to@I@2@@std@@V?$allocator@U?$pair@$$CBII@std@@@2@$0A@@std@@@std@@IEAAX_K@Z 0000000140079900 f i Zenith_Entity.obj
 0001:00078ac0       ?_Forced_rehash@?$_Hash@V?$_Umap_traits@IVZenith_Entity@@V?$_Uhash_compare@IU?$hash@I@std@@U?$equal_to@I@2@@std@@V?$allocator@U?$pair@$$CBIVZenith_Entity@@@std@@@3@$0A@@std@@@std@@IEAAX_K@Z 0000000140079ac0 f i Zenith_Entity.obj
 0001:00078d70       ?_Rehash_for_1@?$_Hash@V?$_Umap_traits@IIV?$_Uhash_compare@IU?$hash@I@std@@U?$equal_to@I@2@@std@@V?$allocator@U?$pair@$$CBII@std@@@2@$0A@@std@@@std@@IEAAXXZ 0000000140079d70 f i Zenith_Entity.obj
 0001:00078e80       ??$GetAllOfComponentType@VZenith_ModelComponent@@@Zenith_Scene@@QEAAXAEAV?$Zenith_Vector@PEAVZenith_ModelComponent@@@@@Z 0000000140079e80 f i Zenith_Scene.obj
 0001:00079080       ??$GetAllOfComponentType@VZenith_ScriptComponent@@@Zenith_Scene@@QEAAXAEAV?$Zenith_Vector@PEAVZenith_ScriptComponent@@@@@Z 000000014007a080 f i Zenith_Scene.obj
 0001:00079280       ??$GetComponentFromEntity@VZenith_CameraComponent@@@Zenith_Scene@@QEAAAEAVZenith_CameraComponent@@I@Z 000000014007a280 f i Zenith_Scene.obj
 0001:00079480       ??$GetTypeID@VZenith_CameraComponent@@@TypeIDGenerator@Zenith_Scene@@SAIXZ 000000014007a480 f i Zenith_Scene.obj
 0001:000794f0       ??0Zenith_Scene@@QEAA@XZ   000000014007a4f0 f   Zenith_Scene.obj
 0001:000796a0       ??1?$Zenith_Vector@VZenith_ModelComponent@@@@QEAA@XZ 000000014007a6a0 f i Zenith_Scene.obj
 0001:00079750       ??1?$Zenith_Vector@VZenith_ScriptComponent@@@@QEAA@XZ 000000014007a750 f i Zenith_Scene.obj
 0001:000797c0       ??1?$_Hash@V?$_Umap_traits@IVZenith_Entity@@V?$_Uhash_compare@IU?$hash@I@std@@U?$equal_to@I@2@@std@@V?$allocator@U?$pair@$$CBIVZenith_Entity@@@std@@@3@$0A@@std@@@std@@QEAA@XZ 000000014007a7c0 f i Zenith_Scene.obj
 0001:00079830       ??1?$list@U?$pair@$$CBIVZenith_Entity@@@std@@V?$allocator@U?$pair@$$CBIVZenith_Entity@@@std@@@2@@std@@QEAA@XZ 000000014007a830 f i Zenith_Scene.obj
 0001:000798a0       ??_E?$Zenith_ComponentPool@VZenith_CameraComponent@@@@UEAAPEAXI@Z 000000014007a8a0 f i Zenith_Scene.obj
 0001:000798a0       ??_G?$Zenith_ComponentPool@VZenith_CameraComponent@@@@UEAAPEAXI@Z 000000014007a8a0 f i Zenith_Scene.obj
 0001:00079910       ??_E?$Zenith_ComponentPool@VZenith_ModelComponent@@@@UEAAPEAXI@Z 000000014007a910 f i Zenith_Scene.obj
 0001:00079910       ??_G?$Zenith_ComponentPool@VZenith_ModelComponent@@@@UEAAPEAXI@Z 000000014007a910 f i Zenith_Scene.obj
 0001:00079950       ??_E?$Zenith_ComponentPool@VZenith_ScriptComponent@@@@UEAAPEAXI@Z 000000014007a950 f i Zenith_Scene.obj
 0001:00079950       ??_G?$Zenith_ComponentPool@VZenith_ScriptComponent@@@@UEAAPEAXI@Z 000000014007a950 f i Zenith_Scene.obj
 0001:00079990       ?AnimUpdateTask@@YAXPEAX@Z 000000014007a990 f   Zenith_Scene.obj
 0001:00079bd0       ?GetEntityByID@Zenith_Scene@@QEAA?AVZenith_Entity@@I@Z 000000014007abd0 f   Zenith_Scene.obj
 0001:00079cb0       ?GetMainCamera@Zenith_Scene@@QEAAAEAVZenith_CameraComponent@@XZ 000000014007acb0 f   Zenith_Scene.obj
 0001:00079de0       ??1Zenith_Vulkan_Pipeline@@QEAA@XZ 000000014007ade0 f   Zenith_Vulkan_Pipeline.obj
 0001:00079de0       ?Reset@Zenith_Scene@@QEAAXXZ 000000014007ade0 f   Zenith_Scene.obj
 0001:00079df0       ?SetMainCameraEntity@Zenith_Scene@@QEAAXAEAVZenith_Entity@@@Z 000000014007adf0 f   Zenith_Scene.obj
 0001:00079e00       ?Update@Zenith_Scene@@SAXM@Z 000000014007ae00 f   Zenith_Scene.obj
 0001:00079ef0       ?WaitForUpdateComplete@Zenith_Scene@@SAXXZ 000000014007aef0 f   Zenith_Scene.obj
 0001:00079f20       ??0Flux_TargetSetup@@QEAA@AEBU0@@Z 000000014007af20 f i Flux_AnimatedMeshes.obj
 0001:00079fd0       ??1Flux_TargetSetup@@QEAA@XZ 000000014007afd0 f i Flux_AnimatedMeshes.obj
 0001:0007a040       ??4Flux_BufferLayout@@QEAAAEAV0@AEBV0@@Z 000000014007b040 f i Flux_AnimatedMeshes.obj
 0001:0007a0b0       ?Initialise@Flux_AnimatedMeshes@@SAXXZ 000000014007b0b0 f   Flux_AnimatedMeshes.obj
 0001:0007aaf0       ?PushBack@?$Zenith_Vector@UFlux_BufferElement@@@@QEAAXAEBUFlux_BufferElement@@@Z 000000014007baf0 f i Flux_AnimatedMeshes.obj
 0001:0007ab80       ?Render@Flux_AnimatedMeshes@@SAXPEAX@Z 000000014007bb80 f   Flux_AnimatedMeshes.obj
 0001:0007b6d0       ?SubmitRenderTask@Flux_AnimatedMeshes@@SAXXZ 000000014007c6d0 f   Flux_AnimatedMeshes.obj
 0001:0007b6e0       ?WaitForRenderTask@Flux_AnimatedMeshes@@SAXXZ 000000014007c6e0 f   Flux_AnimatedMeshes.obj
 0001:0007b710       ?Initialise@Flux_DeferredShading@@SAXXZ 000000014007c710 f   Flux_DeferredShading.obj
 0001:0007bd60       ?Render@Flux_DeferredShading@@SAXPEAX@Z 000000014007cd60 f   Flux_DeferredShading.obj
 0001:0007c780       ?SubmitRenderTask@Flux_DeferredShading@@SAXXZ 000000014007d780 f   Flux_DeferredShading.obj
 0001:0007c790       ?WaitForRenderTask@Flux_DeferredShading@@SAXXZ 000000014007d790 f   Flux_DeferredShading.obj
 0001:0007c7c0       ?EarlyInitialise@Flux@@SAXXZ 000000014007d7c0 f   Flux.obj
 0001:0007c7e0       ?LateInitialise@Flux@@SAXXZ 000000014007d7e0 f   Flux.obj
 0001:0007c840       ?OnResChange@Flux@@SAXXZ   000000014007d840 f   Flux.obj
 0001:0007c880       ?RegisterBindlessTexture@Flux@@SAXPEAVZenith_Vulkan_Texture@@I@Z 000000014007d880 f   Flux.obj
 0001:0007c890       ??0?$vector@V?$basic_string@DU?$char_traits@D@std@@V?$allocator@D@2@@std@@V?$allocator@V?$basic_string@DU?$char_traits@D@std@@V?$allocator@D@2@@std@@@2@@std@@QEAA@V?$initializer_list@V?$basic_string@DU?$char_traits@D@std@@V?$allocator@D@2@@std@@@1@AEBV?$allocator@V?$basic_string@DU?$char_traits@D@std@@V?$allocator@D@2@@std@@@1@@Z 000000014007d890 f i Flux_Graphics.obj
 0001:0007c930       ??1Zenith_Vulkan_Buffer@@QEAA@XZ 000000014007d930 f i Flux_Graphics.obj
 0001:0007c940       ??_E?$LeafNodeWithRange@II@Zenith_DebugVariableTree@@UEAAPEAXI@Z 000000014007d940 f i Flux_Graphics.obj
 0001:0007c940       ??_E?$LeafNodeWithRange@MM@Zenith_DebugVariableTree@@UEAAPEAXI@Z 000000014007d940 f i Flux_Fog.obj
 0001:0007c940       ??_E?$LeafNodeWithRange@U?$vec@$02M$0A@@glm@@M@Zenith_DebugVariableTree@@UEAAPEAXI@Z 000000014007d940 f i Flux_Graphics.obj
 0001:0007c940       ??_E?$LeafNodeWithRange@U?$vec@$03M$0A@@glm@@M@Zenith_DebugVariableTree@@UEAAPEAXI@Z 000000014007d940 f i Flux_Graphics.obj
 0001:0007c940       ??_G?$LeafNodeWithRange@II@Zenith_DebugVariableTree@@UEAAPEAXI@Z 000000014007d940 f i Flux_Graphics.obj
 0001:0007c940       ??_G?$LeafNodeWithRange@MM@Zenith_DebugVariableTree@@UEAAPEAXI@Z 000000014007d940 f i Flux_Fog.obj
 0001:0007c940       ??_G?$LeafNodeWithRange@U?$vec@$02M$0A@@glm@@M@Zenith_DebugVariableTree@@UEAAPEAXI@Z 000000014007d940 f i Flux_Graphics.obj
 0001:0007c940       ??_G?$LeafNodeWithRange@U?$vec@$03M$0A@@glm@@M@Zenith_DebugVariableTree@@UEAAPEAXI@Z 000000014007d940 f i Flux_Graphics.obj
 0001:0007c980       ?AddBoolean@Zenith_DebugVariables@@SAXV?$vector@V?$basic_string@DU?$char_traits@D@std@@V?$allocator@D@2@@std@@V?$allocator@V?$basic_string@DU?$char_traits@D@std@@V?$allocator@D@2@@std@@@2@@std@@AEA_N@Z 000000014007d980 f i Flux_Graphics.obj
 0001:0007ca50       ?AddUInt32@Zenith_DebugVariables@@SAXV?$vector@V?$basic_string@DU?$char_traits@D@std@@V?$allocator@D@2@@std@@V?$allocator@V?$basic_string@DU?$char_traits@D@std@@V?$allocator@D@2@@std@@@2@@std@@AEAIII@Z 000000014007da50 f i Flux_Graphics.obj
 0001:0007cb20       ?GetAspectRatio@Flux_Graphics@@SAMXZ 000000014007db20 f   Flux_Graphics.obj
 0001:0007cb40       ?GetDepthStencilTexture@Flux_Graphics@@SAAEAVZenith_Vulkan_Texture@@XZ 000000014007db40 f   Flux_Graphics.obj
 0001:0007cb50       ?GetFOV@Flux_Graphics@@SAMXZ 000000014007db50 f   Flux_Graphics.obj
 0001:0007cb70       ?GetFarPlane@Flux_Graphics@@SAMXZ 000000014007db70 f   Flux_Graphics.obj
 0001:0007cb90       ?GetGBufferTexture@Flux_Graphics@@SAAEAVZenith_Vulkan_Texture@@W4MRTIndex@@@Z 000000014007db90 f   Flux_Graphics.obj
 0001:0007cbb0       ?Initialise@Flux_Graphics@@SAXXZ 000000014007dbb0 f   Flux_Graphics.obj
 0001:0007d6b0       ?InitialiseRenderTargets@Flux_Graphics@@SAXXZ 000000014007e6b0 f   Flux_Graphics.obj
 0001:0007da30       ?UploadFrameConstants@Flux_Graphics@@SAXXZ 000000014007ea30 f   Flux_Graphics.obj
 0001:0007dca0       ?AssignDepthStencil@Flux_TargetSetup@@QEAAXPEAUFlux_RenderAttachment@@@Z 000000014007eca0 f   Flux_RenderTargets.obj
 0001:0007dcb0       ?Build@Flux_RenderAttachmentBuilder@@QEAAXAEAUFlux_RenderAttachment@@W4RenderTargetType@@AEBV?$basic_string@DU?$char_traits@D@std@@V?$allocator@D@2@@std@@@Z 000000014007ecb0 f   Flux_RenderTargets.obj
 0001:0007ddd0       ?GetNumColourAttachments@Flux_TargetSetup@@QEAA?BIXZ 000000014007edd0 f   Flux_RenderTargets.obj
 0001:0007de00       ?Initialise@Flux_Fog@@SAXXZ 000000014007ee00 f   Flux_Fog.obj
 0001:0007e880       ?Render@Flux_Fog@@SAXPEAX@Z 000000014007f880 f   Flux_Fog.obj
 0001:0007eda0       ?SubmitRenderTask@Flux_Fog@@SAXXZ 000000014007fda0 f   Flux_Fog.obj
 0001:0007edb0       ?WaitForRenderTask@Flux_Fog@@SAXXZ 000000014007fdb0 f   Flux_Fog.obj
 0001:0007ede0       ??$toMat4@M$0A@@glm@@YA?AU?$mat@$03$03M$0A@@0@AEBU?$qua@M$0A@@0@@Z 000000014007fde0 f i Flux_MeshAnimation.obj
 0001:0007ef90       ??$translate@M$0A@@glm@@YA?AU?$mat@$03$03M$0A@@0@AEBU10@AEBU?$vec@$02M$0A@@0@@Z 000000014007ff90 f i Flux_MeshAnimation.obj
 0001:0007f130       ?CalculateBoneTransform@Flux_MeshAnimation@@QEAAXQEBUNode@1@AEBU?$mat@$03$03M$0A@@glm@@_N@Z 0000000140080130 f   Flux_MeshAnimation.obj
 0001:0007f5c0       ?InterpolatePosition@AnimBone@Flux_MeshAnimation@@AEAA?AU?$mat@$03$03M$0A@@glm@@M@Z 00000001400805c0 f i Flux_MeshAnimation.obj
 0001:0007f710       ?InterpolateRotation@AnimBone@Flux_MeshAnimation@@AEAA?AU?$mat@$03$03M$0A@@glm@@M@Z 0000000140080710 f i Flux_MeshAnimation.obj
 0001:0007fb70       ?InterpolateScaling@AnimBone@Flux_MeshAnimation@@AEAA?AU?$mat@$03$03M$0A@@glm@@M@Z 0000000140080b70 f i Flux_MeshAnimation.obj
 0001:0007fcc0       ??$?6I$0A@@Zenith_DataStream@@QEAAXAEBI@Z 0000000140080cc0 f i Flux_MeshGeometry.obj
 0001:0007fd50       ??$?6V?$basic_string@DU?$char_traits@D@std@@V?$allocator@D@2@@std@@U?$pair@IU?$mat@$03$03M$0A@@glm@@@1@@Zenith_DataStream@@QEAAXV?$unordered_map@V?$basic_string@DU?$char_traits@D@std@@V?$allocator@D@2@@std@@U?$pair@IU?$mat@$03$03M$0A@@glm@@@2@U?$hash@V?$basic_string@DU?$char_traits@D@std@@V?$allocator@D@2@@std@@@2@U?$equal_to@V?$basic_string@DU?$char_traits@D@std@@V?$allocator@D@2@@std@@@2@V?$allocator@U?$pair@$$CBV?$basic_string@DU?$char_traits@D@std@@V?$allocator@D@2@@std@@U?$pair@IU?$mat@$03$03M$0A@@glm@@@2@@std@@@2@@std@@@Z 0000000140080d50 f i Flux_MeshGeometry.obj
 0001:0007ffc0       ??$_Insert_range_unchecked@V?$_List_unchecked_const_iterator@V?$_List_val@U?$_List_simple_types@U?$pair@$$CBV?$basic_string@DU?$char_traits@D@std@@V?$allocator@D@2@@std@@U?$pair@IU?$mat@$03$03M$0A@@glm@@@2@@std@@@std@@@std@@U_Iterator_base0@2@@std@@V12@@?$_Hash@V?$_Umap_traits@V?$basic_string@DU?$char_traits@D@std@@V?$allocator@D@2@@std@@U?$pair@IU?$mat@$03$03M$0A@@glm@@@2@V?$_Uhash_compare@V?$basic_string@DU?$char_traits@D@std@@V?$allocator@D@2@@std@@U?$hash@V?$basic_string@DU?$char_traits@D@std@@V?$allocator@D@2@@std@@@2@U?$equal_to@V?$basic_string@DU?$char_traits@D@std@@V?$allocator@D@2@@std@@@2@@2@V?$allocator@U?$pair@$$CBV?$basic_string@DU?$char_traits@D@std@@V?$allocator@D@2@@std@@U?$pair@IU?$mat@$03$03M$0A@@glm@@@2@@std@@@2@$0A@@std@@@std@@IEAAXV?$_List_unchecked_const_iterator@V?$_List_val@U?$_List_simple_types@U?$pair@$$CBV?$basic_string@DU?$char_traits@D@std@@V?$allocator@D@2@@std@@U?$pair@IU?$mat@$03$03M$0A@@glm@@@2@@std@@@std@@@std@@U_Iterator_base0@2@@1@V21@@Z 0000000140080fc0 f i Flux_MeshGeometry.obj
 0001:00080260       ??$emplace@U?$pair@$$CBV?$basic_string@DU?$char_traits@D@std@@V?$allocator@D@2@@std@@U?$pair@IU?$mat@$03$03M$0A@@glm@@@2@@std@@@?$_Hash@V?$_Umap_traits@V?$basic_string@DU?$char_traits@D@std@@V?$allocator@D@2@@std@@U?$pair@IU?$mat@$03$03M$0A@@glm@@@2@V?$_Uhash_compare@V?$basic_string@DU?$char_traits@D@std@@V?$allocator@D@2@@std@@U?$hash@V?$basic_string@DU?$char_traits@D@std@@V?$allocator@D@2@@std@@@2@U?$equal_to@V?$basic_string@DU?$char_traits@D@std@@V?$allocator@D@2@@std@@@2@@2@V?$allocator@U?$pair@$$CBV?$basic_string@DU?$char_traits@D@std@@V?$allocator@D@2@@std@@U?$pair@IU?$mat@$03$03M$0A@@glm@@@2@@std@@@2@$0A@@std@@@std@@QEAA?AU?$pair@V?$_List_iterator@V?$_List_val@U?$_List_simple_types@U?$pair@$$CBV?$basic_string@DU?$char_traits@D@std@@V?$allocator@D@2@@std@@U?$pair@IU?$mat@$03$03M$0A@@glm@@@2@@std@@@std@@@std@@@std@@_N@1@$$QEAU?$pair@$$CBV?$basic_string@DU?$char_traits@D@std@@V?$allocator@D@2@@std@@U?$pair@IU?$mat@$03$03M$0A@@glm@@@2@@1@@Z 0000000140081260 f i Flux_MeshGeometry.obj
 0001:000804e0       ??0?$basic_ifstream@DU?$char_traits@D@std@@@std@@QEAA@PEBDHH@Z 00000001400814e0 f i Flux_MeshGeometry.obj
 0001:00080790       ??_D?$basic_ifstream@DU?$char_traits@D@std@@@std@@QEAAXXZ 0000000140081790 f i Flux_MeshGeometry.obj
 0001:00080824       ??_E?$basic_ifstream@DU?$char_traits@D@std@@@std@@$4PPPPPPPM@A@EAAPEAXI@Z 0000000140081824 f i Flux_MeshGeometry.obj
 0001:00080830       ??_E?$basic_ifstream@DU?$char_traits@D@std@@@std@@UEAAPEAXI@Z 0000000140081830 f i Flux_MeshGeometry.obj
 0001:00080830       ??_G?$basic_ifstream@DU?$char_traits@D@std@@@std@@UEAAPEAXI@Z 0000000140081830 f i Flux_MeshGeometry.obj
 0001:00080870       ?CalculateOffsetsAndStrides@Flux_BufferLayout@@QEAAXXZ 0000000140081870 f i Flux_MeshGeometry.obj
 0001:00080900       ?Export@Flux_MeshGeometry@@QEAAXPEBD@Z 0000000140081900 f   Flux_MeshGeometry.obj
 0001:00080d80       ?GenerateBitangents@Flux_MeshGeometry@@QEAAXXZ 0000000140081d80 f   Flux_MeshGeometry.obj
 0001:00080e40       ?GenerateFullscreenQuad@Flux_MeshGeometry@@SAXAEAV1@@Z 0000000140081e40 f   Flux_MeshGeometry.obj
 0001:00080fc0       ?GenerateLayoutAndVertexData@Flux_MeshGeometry@@QEAAXXZ 0000000140081fc0 f   Flux_MeshGeometry.obj
 0001:000817f0       ?GenerateNormals@Flux_MeshGeometry@@QEAAXXZ 00000001400827f0 f   Flux_MeshGeometry.obj
 0001:00081a60       ?GenerateTangents@Flux_MeshGeometry@@QEAAXXZ 0000000140082a60 f   Flux_MeshGeometry.obj
 0001:00081d70       ?_Ipfx@?$basic_istream@DU?$char_traits@D@std@@@std@@QEAA_N_N@Z 0000000140082d70 f i Flux_MeshGeometry.obj
 0001:00081fb0       ?_Rehash_for_1@?$_Hash@V?$_Umap_traits@V?$basic_string@DU?$char_traits@D@std@@V?$allocator@D@2@@std@@U?$pair@IU?$mat@$03$03M$0A@@glm@@@2@V?$_Uhash_compare@V?$basic_string@DU?$char_traits@D@std@@V?$allocator@D@2@@std@@U?$hash@V?$basic_string@DU?$char_traits@D@std@@V?$allocator@D@2@@std@@@2@U?$equal_to@V?$basic_string@DU?$char_traits@D@std@@V?$allocator@D@2@@std@@@2@@2@V?$allocator@U?$pair@$$CBV?$basic_string@DU?$char_traits@D@std@@V?$allocator@D@2@@std@@U?$pair@IU?$mat@$03$03M$0A@@glm@@@2@@std@@@2@$0A@@std@@@std@@IEAAXXZ 0000000140082fb0 f i Flux_MeshGeometry.obj
 0001:00081fb0       ?_Rehash_for_1@?$_Hash@V?$_Umap_traits@V?$basic_string@DU?$char_traits@D@std@@V?$allocator@D@2@@std@@U?$pair@I_K@2@V?$_Uhash_compare@V?$basic_string@DU?$char_traits@D@std@@V?$allocator@D@2@@std@@U?$hash@V?$basic_string@DU?$char_traits@D@std@@V?$allocator@D@2@@std@@@2@U?$equal_to@V?$basic_string@DU?$char_traits@D@std@@V?$allocator@D@2@@std@@@2@@2@V?$allocator@U?$pair@$$CBV?$basic_string@DU?$char_traits@D@std@@V?$allocator@D@2@@std@@U?$pair@I_K@2@@std@@@2@$0A@@std@@@std@@IEAAXXZ 0000000140082fb0 f i Zenith_UnitTests.obj
 0001:00082080       ?read@?$basic_istream@DU?$char_traits@D@std@@@std@@QEAAAEAV12@PEAD_J@Z 0000000140083080 f i Flux_MeshGeometry.obj
 0001:000821c0       ?seekg@?$basic_istream@DU?$char_traits@D@std@@@std@@QEAAAEAV12@V?$fpos@U_Mbstatet@@@2@@Z 00000001400831c0 f i Flux_MeshGeometry.obj
 0001:000823c0       ?snextc@?$basic_streambuf@DU?$char_traits@D@std@@@std@@QEAAHXZ 00000001400833c0 f i Flux_MeshGeometry.obj
 0001:00082470       ?tellg@?$basic_istream@DU?$char_traits@D@std@@@std@@QEAA?AV?$fpos@U_Mbstatet@@@2@XZ 0000000140083470 f i Flux_MeshGeometry.obj
 0001:00082540       ?Initialise@Flux_Particles@@SAXXZ 0000000140083540 f   Flux_Particles.obj
 0001:00083070       ?Render@Flux_Particles@@SAXPEAX@Z 0000000140084070 f   Flux_Particles.obj
 0001:00083670       ?SubmitRenderTask@Flux_Particles@@SAXXZ 0000000140084670 f   Flux_Particles.obj
 0001:00083680       ?WaitForRenderTask@Flux_Particles@@SAXXZ 0000000140084680 f   Flux_Particles.obj
 0001:000836b0       ?Initialise@Flux_Quads@@SAXXZ 00000001400846b0 f   Flux_Quads.obj
 0001:000840e0       ?Render@Flux_Quads@@SAXPEAX@Z 00000001400850e0 f   Flux_Quads.obj
 0001:00084630       ?SubmitRenderTask@Flux_Quads@@SAXXZ 0000000140085630 f   Flux_Quads.obj
 0001:00084640       ?UploadQuad@Flux_Quads@@SAXAEBUQuad@1@@Z 0000000140085640 f   Flux_Quads.obj
 0001:00084690       ?WaitForRenderTask@Flux_Quads@@SAXXZ 0000000140085690 f   Flux_Quads.obj
 0001:000846c0       ?Initialise@Flux_SDFs@@SAXXZ 00000001400856c0 f   Flux_SDFs.obj
 0001:00084e70       ?Render@Flux_SDFs@@SAXPEAX@Z 0000000140085e70 f   Flux_SDFs.obj
 0001:00085410       ?SubmitRenderTask@Flux_SDFs@@SAXXZ 0000000140086410 f   Flux_SDFs.obj
 0001:00085420       ?WaitForRenderTask@Flux_SDFs@@SAXXZ 0000000140086420 f   Flux_SDFs.obj
 0001:00085450       ??$lookAtLH@M$0A@@glm@@YA?AU?$mat@$03$03M$0A@@0@AEBU?$vec@$02M$0A@@0@00@Z 0000000140086450 f i Flux_Shadows.obj
 0001:000856c0       ?GetCSMTargetSetup@Flux_Shadows@@SAAEAUFlux_TargetSetup@@I@Z 00000001400866c0 f   Flux_Shadows.obj
 0001:000856e0       ?GetCSMTexture@Flux_Shadows@@SAAEAVZenith_Vulkan_Texture@@I@Z 00000001400866e0 f   Flux_Shadows.obj
 0001:00085700       ?GetShadowMatrixBuffer@Flux_Shadows@@SAAEAVFlux_DynamicConstantBuffer@@I@Z 0000000140086700 f   Flux_Shadows.obj
 0001:00085720       ?GetSunViewProjMatrix@Flux_Shadows@@SA?AU?$mat@$03$03M$0A@@glm@@I@Z 0000000140086720 f   Flux_Shadows.obj
 0001:00085760       ?Initialise@Flux_Shadows@@SAXXZ 0000000140086760 f   Flux_Shadows.obj
 0001:00085d80       ?Render@Flux_Shadows@@SAXPEAX@Z 0000000140086d80 f   Flux_Shadows.obj
 0001:00086090       ?SubmitRenderTask@Flux_Shadows@@SAXXZ 0000000140087090 f   Flux_Shadows.obj
 0001:000860a0       ?UpdateShadowMatrices@Flux_Shadows@@CAXXZ 00000001400870a0 f   Flux_Shadows.obj
 0001:00086850       ?WaitForRenderTask@Flux_Shadows@@SAXXZ 0000000140087850 f   Flux_Shadows.obj
 0001:00086880       ?Initialise@Flux_Skybox@@SAXXZ 0000000140087880 f   Flux_Skybox.obj
 0001:00086f40       ?Render@Flux_Skybox@@SAXPEAX@Z 0000000140087f40 f   Flux_Skybox.obj
 0001:000873b0       ?SubmitRenderTask@Flux_Skybox@@SAXXZ 00000001400883b0 f   Flux_Skybox.obj
 0001:000873c0       ?WaitForRenderTask@Flux_Skybox@@SAXXZ 00000001400883c0 f   Flux_Skybox.obj
 0001:000873f0       ??0Flux_PipelineSpecification@@QEAA@XZ 00000001400883f0 f i Flux_StaticMeshes.obj
 0001:00087550       ??4Flux_VertexInputDescription@@QEAAAEAU0@AEBU0@@Z 0000000140088550 f i Flux_StaticMeshes.obj
 0001:00087610       ?GetShadowPipeline@Flux_StaticMeshes@@SAAEAVZenith_Vulkan_Pipeline@@XZ 0000000140088610 f   Flux_StaticMeshes.obj
 0001:00087620       ?Initialise@Flux_StaticMeshes@@SAXXZ 0000000140088620 f   Flux_StaticMeshes.obj
 0001:000881d0       ?RenderToGBuffer@Flux_StaticMeshes@@SAXPEAX@Z 00000001400891d0 f   Flux_StaticMeshes.obj
 0001:00088c80       ?RenderToShadowMap@Flux_StaticMeshes@@SAXAEAVFlux_CommandList@@@Z 0000000140089c80 f   Flux_StaticMeshes.obj
 0001:00089110       ?SubmitRenderToGBufferTask@Flux_StaticMeshes@@SAXXZ 000000014008a110 f   Flux_StaticMeshes.obj
 0001:00089120       ?WaitForRenderToGBufferTask@Flux_StaticMeshes@@SAXXZ 000000014008a120 f   Flux_StaticMeshes.obj
 0001:00089150       ??$GetAllOfComponentType@VZenith_TerrainComponent@@@Zenith_Scene@@QEAAXAEAV?$Zenith_Vector@PEAVZenith_TerrainComponent@@@@@Z 000000014008a150 f i Flux_Terrain.obj
 0001:00089350       ??0Flux_VertexInputDescription@@QEAA@XZ 000000014008a350 f i Flux_Terrain.obj
 0001:000893b0       ?AddFloat@Zenith_DebugVariables@@SAXV?$vector@V?$basic_string@DU?$char_traits@D@std@@V?$allocator@D@2@@std@@V?$allocator@V?$basic_string@DU?$char_traits@D@std@@V?$allocator@D@2@@std@@@2@@std@@AEAMMM@Z 000000014008a3b0 f i Flux_Terrain.obj
 0001:000894a0       ?Initialise@Flux_Terrain@@SAXXZ 000000014008a4a0 f   Flux_Terrain.obj
 0001:0008a250       ?RenderToGBuffer@Flux_Terrain@@SAXPEAX@Z 000000014008b250 f   Flux_Terrain.obj
 0001:0008ad90       ?SubmitRenderToGBufferTask@Flux_Terrain@@SAXXZ 000000014008bd90 f   Flux_Terrain.obj
 0001:0008ada0       ?WaitForRenderToGBufferTask@Flux_Terrain@@SAXXZ 000000014008bda0 f   Flux_Terrain.obj
 0001:0008add0       ??$GetAllOfComponentType@VZenith_TextComponent@@@Zenith_Scene@@QEAAXAEAV?$Zenith_Vector@PEAVZenith_TextComponent@@@@@Z 000000014008bdd0 f i Flux_Text.obj
 0001:0008afd0       ??1Zenith_TextComponent@@QEAA@XZ 000000014008bfd0 f i Flux_Text.obj
 0001:0008b200       ??_E?$Zenith_ComponentPool@VZenith_TextComponent@@@@UEAAPEAXI@Z 000000014008c200 f i Flux_Text.obj
 0001:0008b200       ??_G?$Zenith_ComponentPool@VZenith_TextComponent@@@@UEAAPEAXI@Z 000000014008c200 f i Flux_Text.obj
 0001:0008b270       ?Initialise@Flux_Text@@SAXXZ 000000014008c270 f   Flux_Text.obj
 0001:0008bea0       ?Render@Flux_Text@@SAXPEAX@Z 000000014008cea0 f   Flux_Text.obj
 0001:0008c3d0       ?SubmitRenderTask@Flux_Text@@SAXXZ 000000014008d3d0 f   Flux_Text.obj
 0001:0008c3e0       ?UploadChars@Flux_Text@@SAIXZ 000000014008d3e0 f   Flux_Text.obj
 0001:0008c970       ?WaitForRenderTask@Flux_Text@@SAXXZ 000000014008d970 f   Flux_Text.obj
 0001:0008c9a0       ?Initialise@Flux_Water@@SAXXZ 000000014008d9a0 f   Flux_Water.obj
 0001:0008d430       ?Render@Flux_Water@@SAXPEAX@Z 000000014008e430 f   Flux_Water.obj
 0001:0008da60       ?SubmitRenderTask@Flux_Water@@SAXXZ 000000014008ea60 f   Flux_Water.obj
 0001:0008da70       ?WaitForRenderTask@Flux_Water@@SAXXZ 000000014008ea70 f   Flux_Water.obj
 0001:0008daa0       ?BeginFrame@Zenith_Input@@SAXXZ 000000014008eaa0 f   Zenith_Input.obj
 0001:0008dab0       ?GetMousePosition@Zenith_Input@@SAXAEAU?$vec@$01N$0A@@glm@@@Z 000000014008eab0 f   Zenith_Input.obj
 0001:0008dac0       ?IsKeyDown@Zenith_Input@@SA_NH@Z 000000014008eac0 f   Zenith_Input.obj
 0001:0008dad0       ?KeyPressedCallback@Zenith_Input@@SAXH@Z 000000014008ead0 f   Zenith_Input.obj
 0001:0008db00       ?WasKeyPressedThisFrame@Zenith_Input@@SA_NH@Z 000000014008eb00 f   Zenith_Input.obj
 0001:0008dbc0       ?_Unchecked_erase@?$_Hash@V?$_Uset_traits@HV?$_Uhash_compare@HU?$hash@H@std@@U?$equal_to@H@2@@std@@V?$allocator@H@2@$0A@@std@@@std@@AEAAPEAU?$_List_node@HPEAX@2@PEAU32@QEAU32@@Z 000000014008ebc0 f i Zenith_Input.obj
 0001:0008dd80       ?clear@?$_Hash@V?$_Uset_traits@HV?$_Uhash_compare@HU?$hash@H@std@@U?$equal_to@H@2@@std@@V?$allocator@H@2@$0A@@std@@@std@@QEAAXXZ 000000014008ed80 f i Zenith_Input.obj
 0001:0008de40       ?Initialise@Zenith_Physics@@SAXXZ 000000014008ee40 f   Zenith_Physics.obj
 0001:0008df40       ?Update@Zenith_Physics@@SAXM@Z 000000014008ef40 f   Zenith_Physics.obj
 0001:0008dfd0       ??$emplace@U?$pair@$$CBIV?$Zenith_Vector@UEvent@Zenith_Profiling@@@@@std@@@?$_Hash@V?$_Umap_traits@IV?$Zenith_Vector@UEvent@Zenith_Profiling@@@@V?$_Uhash_compare@IU?$hash@I@std@@U?$equal_to@I@2@@std@@V?$allocator@U?$pair@$$CBIV?$Zenith_Vector@UEvent@Zenith_Profiling@@@@@std@@@3@$0A@@std@@@std@@QEAA?AU?$pair@V?$_List_iterator@V?$_List_val@U?$_List_simple_types@U?$pair@$$CBIV?$Zenith_Vector@UEvent@Zenith_Profiling@@@@@std@@@std@@@std@@@std@@_N@1@$$QEAU?$pair@$$CBIV?$Zenith_Vector@UEvent@Zenith_Profiling@@@@@1@@Z 000000014008efd0 f i Zenith_Profiling.obj
 0001:0008e2c0       ??1?$list@U?$pair@$$CBIV?$Zenith_Vector@UEvent@Zenith_Profiling@@@@@std@@V?$allocator@U?$pair@$$CBIV?$Zenith_Vector@UEvent@Zenith_Profiling@@@@@std@@@2@@std@@QEAA@XZ 000000014008f2c0 f i Zenith_Profiling.obj
 0001:0008e340       ?BeginFrame@Zenith_Profiling@@SAXXZ 000000014008f340 f   Zenith_Profiling.obj
 0001:0008e450       ?BeginProfile@Zenith_Profiling@@SAXW4Zenith_ProfileIndex@@@Z 000000014008f450 f   Zenith_Profiling.obj
 0001:0008e510       ?EndFrame@Zenith_Profiling@@SAXXZ 000000014008f510 f   Zenith_Profiling.obj
 0001:0008e580       ?EndProfile@Zenith_Profiling@@SAXW4Zenith_ProfileIndex@@@Z 000000014008f580 f   Zenith_Profiling.obj
 0001:0008e820       ?GetCurrentIndex@Zenith_Profiling@@SA?BW4Zenith_ProfileIndex@@XZ 000000014008f820 f   Zenith_Profiling.obj
 0001:0008e890       ?GetEvents@Zenith_Profiling@@SAAEBV?$unordered_map@IV?$Zenith_Vector@UEvent@Zenith_Profiling@@@@U?$hash@I@std@@U?$equal_to@I@3@V?$allocator@U?$pair@$$CBIV?$Zenith_Vector@UEvent@Zenith_Profiling@@@@@std@@@3@@std@@XZ 000000014008f890 f   Zenith_Profiling.obj
 0001:0008e8a0       ?Initialise@Zenith_Profiling@@SAXXZ 000000014008f8a0 f   Zenith_Profiling.obj
 0001:0008e970       ?RegisterThread@Zenith_Profiling@@SAXXZ 000000014008f970 f   Zenith_Profiling.obj
 0001:0008eb20       ?RenderToImGui@Zenith_Profiling@@SAXXZ 000000014008fb20 f   Zenith_Profiling.obj
 0001:0008f1f0       ?_Forced_rehash@?$_Hash@V?$_Umap_traits@IV?$Zenith_Vector@UEvent@Zenith_Profiling@@@@V?$_Uhash_compare@IU?$hash@I@std@@U?$equal_to@I@2@@std@@V?$allocator@U?$pair@$$CBIV?$Zenith_Vector@UEvent@Zenith_Profiling@@@@@std@@@3@$0A@@std@@@std@@IEAAX_K@Z 00000001400901f0 f i Zenith_Profiling.obj
 0001:0008f3b0       ?_Unchecked_erase@?$_Hash@V?$_Umap_traits@IV?$Zenith_Vector@UEvent@Zenith_Profiling@@@@V?$_Uhash_compare@IU?$hash@I@std@@U?$equal_to@I@2@@std@@V?$allocator@U?$pair@$$CBIV?$Zenith_Vector@UEvent@Zenith_Profiling@@@@@std@@@3@$0A@@std@@@std@@AEAAPEAU?$_List_node@U?$pair@$$CBIV?$Zenith_Vector@UEvent@Zenith_Profiling@@@@@std@@PEAX@2@PEAU32@QEAU32@@Z 00000001400903b0 f i Zenith_Profiling.obj
 0001:0008f5c0       ?clear@?$_Hash@V?$_Umap_traits@IV?$Zenith_Vector@UEvent@Zenith_Profiling@@@@V?$_Uhash_compare@IU?$hash@I@std@@U?$equal_to@I@2@@std@@V?$allocator@U?$pair@$$CBIV?$Zenith_Vector@UEvent@Zenith_Profiling@@@@@std@@@3@$0A@@std@@@std@@QEAAXXZ 00000001400905c0 f i Zenith_Profiling.obj
 0001:0008f690       ?now@steady_clock@chrono@std@@SA?AV?$time_point@Usteady_clock@chrono@std@@V?$duration@_JU?$ratio@$00$0DLJKMKAA@@std@@@23@@23@XZ 0000000140090690 f i Zenith_Profiling.obj
 0001:0008f770       snprintf                   0000000140090770 f i Zenith_Profiling.obj
 0001:0008f7d0       ?Inititalise@Zenith_TaskSystem@@SAXXZ 00000001400907d0 f   Zenith_TaskSystem.obj
 0001:0008fb20       ?SubmitTask@Zenith_TaskSystem@@SAXQEAVZenith_Task@@@Z 0000000140090b20 f   Zenith_TaskSystem.obj
 0001:0008fc70       ??$?5V?$basic_string@DU?$char_traits@D@std@@V?$allocator@D@2@@std@@U?$pair@I_K@1@@Zenith_DataStream@@QEAAXAEAV?$unordered_map@V?$basic_string@DU?$char_traits@D@std@@V?$allocator@D@2@@std@@U?$pair@I_K@2@U?$hash@V?$basic_string@DU?$char_traits@D@std@@V?$allocator@D@2@@std@@@2@U?$equal_to@V?$basic_string@DU?$char_traits@D@std@@V?$allocator@D@2@@std@@@2@V?$allocator@U?$pair@$$CBV?$basic_string@DU?$char_traits@D@std@@V?$allocator@D@2@@std@@U?$pair@I_K@2@@std@@@2@@std@@@Z 0000000140090c70 f i Zenith_UnitTests.obj
 0001:0008ff60       ??$?6V?$basic_string@DU?$char_traits@D@std@@V?$allocator@D@2@@std@@U?$pair@I_K@1@@Zenith_DataStream@@QEAAXV?$unordered_map@V?$basic_string@DU?$char_traits@D@std@@V?$allocator@D@2@@std@@U?$pair@I_K@2@U?$hash@V?$basic_string@DU?$char_traits@D@std@@V?$allocator@D@2@@std@@@2@U?$equal_to@V?$basic_string@DU?$char_traits@D@std@@V?$allocator@D@2@@std@@@2@V?$allocator@U?$pair@$$CBV?$basic_string@DU?$char_traits@D@std@@V?$allocator@D@2@@std@@U?$pair@I_K@2@@std@@@2@@std@@@Z 0000000140090f60 f i Zenith_UnitTests.obj
 0001:000901b0       ??$_Allocate_at_least_helper@V?$allocator@N@std@@@std@@YAPEANAEAV?$allocator@N@0@AEA_K@Z 00000001400911b0 f i Zenith_UnitTests.obj
 0001:00090230       ??$_Emplace_reallocate@AEBN@?$vector@NV?$allocator@N@std@@@std@@AEAAPEANQEANAEBN@Z 0000000140091230 f i Zenith_UnitTests.obj
 0001:000903b0       ??$_Free_non_head@V?$allocator@U?$_List_node@U?$pair@$$CBV?$basic_string@DU?$char_traits@D@std@@V?$allocator@D@2@@std@@U?$pair@I_K@2@@std@@PEAX@std@@@std@@@?$_List_node@U?$pair@$$CBV?$basic_string@DU?$char_traits@D@std@@V?$allocator@D@2@@std@@U?$pair@I_K@2@@std@@PEAX@std@@SAXAEAV?$allocator@U?$_List_node@U?$pair@$$CBV?$basic_string@DU?$char_traits@D@std@@V?$allocator@D@2@@std@@U?$pair@I_K@2@@std@@PEAX@std@@@1@PEAU01@@Z 00000001400913b0 f i Zenith_UnitTests.obj
 0001:00090450       ??$_Insert_range_unchecked@PEBU?$pair@$$CBV?$basic_string@DU?$char_traits@D@std@@V?$allocator@D@2@@std@@U?$pair@I_K@2@@std@@PEBU12@@?$_Hash@V?$_Umap_traits@V?$basic_string@DU?$char_traits@D@std@@V?$allocator@D@2@@std@@U?$pair@I_K@2@V?$_Uhash_compare@V?$basic_string@DU?$char_traits@D@std@@V?$allocator@D@2@@std@@U?$hash@V?$basic_string@DU?$char_traits@D@std@@V?$allocator@D@2@@std@@@2@U?$equal_to@V?$basic_string@DU?$char_traits@D@std@@V?$allocator@D@2@@std@@@2@@2@V?$allocator@U?$pair@$$CBV?$basic_string@DU?$char_traits@D@std@@V?$allocator@D@2@@std@@U?$pair@I_K@2@@std@@@2@$0A@@std@@@std@@IEAAXPEBU?$pair@$$CBV?$basic_string@DU?$char_traits@D@std@@V?$allocator@D@2@@std@@U?$pair@I_K@2@@1@QEBU21@@Z 0000000140091450 f i Zenith_UnitTests.obj
 0001:000906d0       ??$_Reallocate@$0A@@?$vector@NV?$allocator@N@std@@@std@@AEAAXAEA_K@Z 00000001400916d0 f i Zenith_UnitTests.obj
 0001:00090740       ??$emplace@U?$pair@$$CBV?$basic_string@DU?$char_traits@D@std@@V?$allocator@D@2@@std@@U?$pair@I_K@2@@std@@@?$_Hash@V?$_Umap_traits@V?$basic_string@DU?$char_traits@D@std@@V?$allocator@D@2@@std@@U?$pair@I_K@2@V?$_Uhash_compare@V?$basic_string@DU?$char_traits@D@std@@V?$allocator@D@2@@std@@U?$hash@V?$basic_string@DU?$char_traits@D@std@@V?$allocator@D@2@@std@@@2@U?$equal_to@V?$basic_string@DU?$char_traits@D@std@@V?$allocator@D@2@@std@@@2@@2@V?$allocator@U?$pair@$$CBV?$basic_string@DU?$char_traits@D@std@@V?$allocator@D@2@@std@@U?$pair@I_K@2@@std@@@2@$0A@@std@@@std@@QEAA?AU?$pair@V?$_List_iterator@V?$_List_val@U?$_List_simple_types@U?$pair@$$CBV?$basic_string@DU?$char_traits@D@std@@V?$allocator@D@2@@std@@U?$pair@I_K@2@@std@@@std@@@std@@@std@@_N@1@$$QEAU?$pair@$$CBV?$basic_string@DU?$char_traits@D@std@@V?$allocator@D@2@@std@@U?$pair@I_K@2@@1@@Z 0000000140091740 f i Zenith_UnitTests.obj
 0001:000909a0       ??0?$_Hash@V?$_Umap_traits@V?$basic_string@DU?$char_traits@D@std@@V?$allocator@D@2@@std@@U?$pair@I_K@2@V?$_Uhash_compare@V?$basic_string@DU?$char_traits@D@std@@V?$allocator@D@2@@std@@U?$hash@V?$basic_string@DU?$char_traits@D@std@@V?$allocator@D@2@@std@@@2@U?$equal_to@V?$basic_string@DU?$char_traits@D@std@@V?$allocator@D@2@@std@@@2@@2@V?$allocator@U?$pair@$$CBV?$basic_string@DU?$char_traits@D@std@@V?$allocator@D@2@@std@@U?$pair@I_K@2@@std@@@2@$0A@@std@@@std@@IEAA@AEBV?$_Uhash_compare@V?$basic_string@DU?$char_traits@D@std@@V?$allocator@D@2@@std@@U?$hash@V?$basic_string@DU?$char_traits@D@std@@V?$allocator@D@2@@std@@@2@U?$equal_to@V?$basic_string@DU?$char_traits@D@std@@V?$allocator@D@2@@std@@@2@@1@AEBV?$allocator@U?$pair@$$CBV?$basic_string@DU?$char_traits@D@std@@V?$allocator@D@2@@std@@U?$pair@I_K@2@@std@@@1@@Z 00000001400919a0 f i Zenith_UnitTests.obj
 0001:00090a20       ??1?$_Hash@V?$_Umap_traits@V?$basic_string@DU?$char_traits@D@std@@V?$allocator@D@2@@std@@U?$pair@I_K@2@V?$_Uhash_compare@V?$basic_string@DU?$char_traits@D@std@@V?$allocator@D@2@@std@@U?$hash@V?$basic_string@DU?$char_traits@D@std@@V?$allocator@D@2@@std@@@2@U?$equal_to@V?$basic_string@DU?$char_traits@D@std@@V?$allocator@D@2@@std@@@2@@2@V?$allocator@U?$pair@$$CBV?$basic_string@DU?$char_traits@D@std@@V?$allocator@D@2@@std@@U?$pair@I_K@2@@std@@@2@$0A@@std@@@std@@QEAA@XZ 0000000140091a20 f i Zenith_UnitTests.obj
 0001:00090b90       ?RunAllTests@Zenith_UnitTests@@SAXXZ 0000000140091b90 f   Zenith_UnitTests.obj
 0001:00090bd0       ?TestDataStream@Zenith_UnitTests@@CAXXZ 0000000140091bd0 f   Zenith_UnitTests.obj
 0001:000914d0       ?TestMemoryPool@Zenith_UnitTests@@CAXXZ 00000001400924d0 f   Zenith_UnitTests.obj
 0001:00091880       ?TestProfiling@Zenith_UnitTests@@CAXXZ 0000000140092880 f   Zenith_UnitTests.obj
 0001:00091d90       ?TestVector@Zenith_UnitTests@@CAXXZ 0000000140092d90 f   Zenith_UnitTests.obj
 0001:00092120       ?_Change_array@?$vector@NV?$allocator@N@std@@@std@@AEAAXQEAN_K1@Z 0000000140093120 f i Zenith_UnitTests.obj
 0001:000921b0       ?_Xrange@?$vector@NV?$allocator@N@std@@@std@@CAXXZ 00000001400931b0 f i Zenith_UnitTests.obj
 0001:000921b0       ?_Xrange@?$vector@UAttachmentDescription@vk@@V?$allocator@UAttachmentDescription@vk@@@std@@@std@@CAXXZ 00000001400931b0 f i Zenith_Vulkan_Pipeline.obj
 0001:000921b0       ?_Xrange@?$vector@UAttachmentReference@vk@@V?$allocator@UAttachmentReference@vk@@@std@@@std@@CAXXZ 00000001400931b0 f i Zenith_Vulkan_Pipeline.obj
 0001:000921b0       ?_Xrange@?$vector@UDescriptorBufferInfo@vk@@V?$allocator@UDescriptorBufferInfo@vk@@@std@@@std@@CAXXZ 00000001400931b0 f i Zenith_Vulkan_CommandBuffer.obj
 0001:000921b0       ?_Xrange@?$vector@UDescriptorImageInfo@vk@@V?$allocator@UDescriptorImageInfo@vk@@@std@@@std@@CAXXZ 00000001400931b0 f i Zenith_Vulkan_CommandBuffer.obj
 0001:000921b0       ?_Xrange@?$vector@UWriteDescriptorSet@vk@@V?$allocator@UWriteDescriptorSet@vk@@@std@@@std@@CAXXZ 00000001400931b0 f i Zenith_Vulkan_CommandBuffer.obj
 0001:000921d0       ??$_Emplace_reallocate@AEBUDeviceQueueCreateInfo@vk@@@?$vector@UDeviceQueueCreateInfo@vk@@V?$allocator@UDeviceQueueCreateInfo@vk@@@std@@@std@@AEAAPEAUDeviceQueueCreateInfo@vk@@QEAU23@AEBU23@@Z 00000001400931d0 f i Zenith_Vulkan.obj
 0001:00092400       ??$_Erase_tree@V?$allocator@U?$_Tree_node@IPEAX@std@@@std@@@?$_Tree_val@U?$_Tree_simple_types@I@std@@@std@@QEAAXAEAV?$allocator@U?$_Tree_node@IPEAX@std@@@1@PEAU?$_Tree_node@IPEAX@1@@Z 0000000140093400 f i Zenith_Vulkan.obj
 0001:00092460       ??$_Resize_reallocate@U_Value_init_tag@std@@@?$vector@UQueueFamilyProperties@vk@@V?$allocator@UQueueFamilyProperties@vk@@@std@@@std@@AEAAX_KAEBU_Value_init_tag@1@@Z 0000000140093460 f i Zenith_Vulkan.obj
 0001:00092680       ??$_Resize_reallocate@U_Value_init_tag@std@@@?$vector@VImage@vk@@V?$allocator@VImage@vk@@@std@@@std@@AEAAX_KAEBU_Value_init_tag@1@@Z 0000000140093680 f i Zenith_Vulkan_Swapchain.obj
 0001:00092680       ??$_Resize_reallocate@U_Value_init_tag@std@@@?$vector@VImageView@vk@@V?$allocator@VImageView@vk@@@std@@@std@@AEAAX_KAEBU_Value_init_tag@1@@Z 0000000140093680 f i Zenith_Vulkan_Swapchain.obj
 0001:00092680       ??$_Resize_reallocate@U_Value_init_tag@std@@@?$vector@VPhysicalDevice@vk@@V?$allocator@VPhysicalDevice@vk@@@std@@@std@@AEAAX_KAEBU_Value_init_tag@1@@Z 0000000140093680 f i Zenith_Vulkan.obj
 0001:00092680       ??$_Resize_reallocate@U_Value_init_tag@std@@@?$vector@VSemaphore@vk@@V?$allocator@VSemaphore@vk@@@std@@@std@@AEAAX_KAEBU_Value_init_tag@1@@Z 0000000140093680 f i Zenith_Vulkan_CommandBuffer.obj
 0001:00092830       ??$_Uninitialized_value_construct_n@V?$allocator@UQueueFamilyProperties@vk@@@std@@@std@@YAPEAUQueueFamilyProperties@vk@@PEAU12@_KAEAV?$allocator@UQueueFamilyProperties@vk@@@0@@Z 0000000140093830 f i Zenith_Vulkan.obj
 0001:00092870       ??$getProperties@VDispatchLoaderStatic@vk@@@PhysicalDevice@vk@@QEBA?AUPhysicalDeviceProperties@1@AEBVDispatchLoaderStatic@1@@Z 0000000140093870 f i Zenith_Vulkan.obj
 0001:00092bb0       ?BeginFrame@Zenith_Vulkan@@SAXXZ 0000000140093bb0 f   Zenith_Vulkan.obj
 0001:00092c20       ?CreateDevice@Zenith_Vulkan@@SAXXZ 0000000140093c20 f   Zenith_Vulkan.obj
 0001:00093470       ?CreateInstance@Zenith_Vulkan@@SAXXZ 0000000140094470 f   Zenith_Vulkan.obj
 0001:00093640       ?CreateQueueFamilies@Zenith_Vulkan@@SAXXZ 0000000140094640 f   Zenith_Vulkan.obj
 0001:000938f0       ?EndFrame@Zenith_Vulkan@@SAXXZ 00000001400948f0 f   Zenith_Vulkan.obj
 0001:00094140       ?GetCurrentInFlightFence@Zenith_Vulkan@@SAAEAVFence@vk@@XZ 0000000140095140 f   Zenith_Vulkan.obj
 0001:00094150       ?GetCurrentPerFrameDescriptorPool@Zenith_Vulkan@@SAAEBVDescriptorPool@vk@@XZ 0000000140095150 f   Zenith_Vulkan.obj
 0001:00094160       ?ImGuiBeginFrame@Zenith_Vulkan@@SAXXZ 0000000140095160 f   Zenith_Vulkan.obj
 0001:00094180       ?Initialise@Zenith_Vulkan@@SAXXZ 0000000140095180 f   Zenith_Vulkan.obj
 0001:00094bb0       ?InitialiseImGui@Zenith_Vulkan@@SAXXZ 0000000140095bb0 f   Zenith_Vulkan.obj
 0001:00094e70       ?Platform_RegisterBindlessTexture@Flux@@CAXPEAVZenith_Vulkan_Texture@@I@Z 0000000140095e70 f   Zenith_Vulkan.obj
 0001:00094f30       ?ShouldSubmitDrawCalls@Zenith_Vulkan@@SA?B_NXZ 0000000140095f30 f   Zenith_Vulkan.obj
 0001:00094f40       ?_Insert_node@?$_Tree_val@U?$_Tree_simple_types@I@std@@@std@@QEAAPEAU?$_Tree_node@IPEAX@2@U?$_Tree_id@PEAU?$_Tree_node@IPEAX@std@@@2@QEAU32@@Z 0000000140095f40 f i Zenith_Vulkan.obj
 0001:000951a0       ?_Throw_tree_length_error@std@@YAXXZ 00000001400961a0 f i Zenith_Vulkan.obj
 0001:000951c0       ?deallocate@?$allocator@UDeviceQueueCreateInfo@vk@@@std@@QEAAXQEAUDeviceQueueCreateInfo@vk@@_K@Z 00000001400961c0 f i Zenith_Vulkan.obj
 0001:00095210       ?deallocate@?$allocator@UQueueFamilyProperties@vk@@@std@@QEAAXQEAUQueueFamilyProperties@vk@@_K@Z 0000000140096210 f i Zenith_Vulkan.obj
 0001:00095260       ?resize@?$vector@UQueueFamilyProperties@vk@@V?$allocator@UQueueFamilyProperties@vk@@@std@@@std@@QEAAX_K@Z 0000000140096260 f i Zenith_Vulkan.obj
 0001:00095320       ?Reset@Zenith_Vulkan_Buffer@@QEAAXXZ 0000000140096320 f   Zenith_Vulkan_Buffer.obj
 0001:00095330       ??$_Uninitialized_value_construct_n@V?$allocator@VImage@vk@@@std@@@std@@YAPEAVImage@vk@@PEAV12@_KAEAV?$allocator@VImage@vk@@@0@@Z 0000000140096330 f i Zenith_Vulkan_Swapchain.obj
 0001:00095330       ??$_Uninitialized_value_construct_n@V?$allocator@VImageView@vk@@@std@@@std@@YAPEAVImageView@vk@@PEAV12@_KAEAV?$allocator@VImageView@vk@@@0@@Z 0000000140096330 f i Zenith_Vulkan_Swapchain.obj
 0001:00095330       ??$_Uninitialized_value_construct_n@V?$allocator@VSemaphore@vk@@@std@@@std@@YAPEAVSemaphore@vk@@PEAV12@_KAEAV?$allocator@VSemaphore@vk@@@0@@Z 0000000140096330 f i Zenith_Vulkan_CommandBuffer.obj
 0001:00095380       ?BeginBind@Zenith_Vulkan_CommandBuffer@@QEAAXI@Z 0000000140096380 f   Zenith_Vulkan_CommandBuffer.obj
 0001:00095480       ?BeginRecording@Zenith_Vulkan_CommandBuffer@@QEAAXXZ 0000000140096480 f   Zenith_Vulkan_CommandBuffer.obj
 0001:000954f0       ?BindBuffer@Zenith_Vulkan_CommandBuffer@@QEAAXPEAVZenith_Vulkan_Buffer@@I@Z 00000001400964f0 f   Zenith_Vulkan_CommandBuffer.obj
 0001:00095580       ?BindTexture@Zenith_Vulkan_CommandBuffer@@QEAAXPEAVZenith_Vulkan_Texture@@I@Z 0000000140096580 f   Zenith_Vulkan_CommandBuffer.obj
 0001:00095610       ?BlitTextureToTexture@Zenith_Vulkan_CommandBuffer@@QEAAXPEAVZenith_Vulkan_Texture@@0II@Z 0000000140096610 f   Zenith_Vulkan_CommandBuffer.obj
 0001:00095790       ?CopyBufferToBuffer@Zenith_Vulkan_CommandBuffer@@QEAAXPEAVZenith_Vulkan_Buffer@@0_K1@Z 0000000140096790 f   Zenith_Vulkan_CommandBuffer.obj
 0001:000957e0       ?CopyBufferToTexture@Zenith_Vulkan_CommandBuffer@@QEAAXPEAVZenith_Vulkan_Buffer@@PEAVZenith_Vulkan_Texture@@_KI@Z 00000001400967e0 f   Zenith_Vulkan_CommandBuffer.obj
 0001:00095890       ?Draw@Zenith_Vulkan_CommandBuffer@@QEAAXI@Z 0000000140096890 f   Zenith_Vulkan_CommandBuffer.obj
 0001:000958d0       ?DrawIndexed@Zenith_Vulkan_CommandBuffer@@QEAAXIIIII@Z 00000001400968d0 f   Zenith_Vulkan_CommandBuffer.obj
 0001:00095930       ?EndAndCpuWait@Zenith_Vulkan_CommandBuffer@@QEAAX_N@Z 0000000140096930 f   Zenith_Vulkan_CommandBuffer.obj
 0001:00095a80       ?EndRenderPass@Zenith_Vulkan_CommandBuffer@@QEAAXXZ 0000000140096a80 f   Zenith_Vulkan_CommandBuffer.obj
 0001:00095aa0       ?ImageTransitionBarrier@Zenith_Vulkan_CommandBuffer@@QEAAXVImage@vk@@W4ImageLayout@3@1V?$Flags@W4ImageAspectFlagBits@vk@@@3@V?$Flags@W4PipelineStageFlagBits@vk@@@3@3HH@Z 0000000140096aa0 f   Zenith_Vulkan_CommandBuffer.obj
 0001:00095be0       ?Initialise@Zenith_Vulkan_CommandBuffer@@QEAAXW4CommandType@@@Z 0000000140096be0 f   Zenith_Vulkan_CommandBuffer.obj
 0001:00095df0       ?PrepareDrawCallDescriptors@Zenith_Vulkan_CommandBuffer@@AEAAXXZ 0000000140096df0 f   Zenith_Vulkan_CommandBuffer.obj
 0001:00096790       ?PushConstant@Zenith_Vulkan_CommandBuffer@@QEAAXPEAX_K@Z 0000000140097790 f   Zenith_Vulkan_CommandBuffer.obj
 0001:000967c0       ?SetIndexBuffer@Zenith_Vulkan_CommandBuffer@@QEAAXAEBVFlux_IndexBuffer@@@Z 00000001400977c0 f   Zenith_Vulkan_CommandBuffer.obj
 0001:000967e0       ?SetPipeline@Zenith_Vulkan_CommandBuffer@@QEAAXPEAVZenith_Vulkan_Pipeline@@@Z 00000001400977e0 f   Zenith_Vulkan_CommandBuffer.obj
 0001:00096850       ?SetVertexBuffer@Zenith_Vulkan_CommandBuffer@@QEAAXAEBVFlux_DynamicVertexBuffer@@I@Z 0000000140097850 f   Zenith_Vulkan_CommandBuffer.obj
 0001:000968a0       ?SetVertexBuffer@Zenith_Vulkan_CommandBuffer@@QEAAXAEBVFlux_VertexBuffer@@I@Z 00000001400978a0 f   Zenith_Vulkan_CommandBuffer.obj
 0001:000968e0       ?SubmitTargetSetup@Zenith_Vulkan_CommandBuffer@@QEAAXAEAUFlux_TargetSetup@@_N11@Z 00000001400978e0 f   Zenith_Vulkan_CommandBuffer.obj
 0001:00096c00       ?UseBindlessTextures@Zenith_Vulkan_CommandBuffer@@QEAAXI@Z 0000000140097c00 f   Zenith_Vulkan_CommandBuffer.obj
 0001:00096c70       ??$Alloc@$$V@?$VmaPoolAllocator@VBlock@VmaBlockMetadata_TLSF@@@@QEAAPEAVBlock@VmaBlockMetadata_TLSF@@XZ 0000000140097c70 f i Zenith_Vulkan_MemoryManager.obj
 0001:00096dd0       ??$getMemoryProperties@VDispatchLoaderStatic@vk@@@PhysicalDevice@vk@@QEBA?AUPhysicalDeviceMemoryProperties@1@AEBVDispatchLoaderStatic@1@@Z 0000000140097dd0 f i Zenith_Vulkan_MemoryManager.obj
 0001:00097040       ??0VmaAllocator_T@@QEAA@PEBUVmaAllocatorCreateInfo@@@Z 0000000140098040 f   Zenith_Vulkan_MemoryManager.obj
 0001:000976b0       ??0VmaCurrentBudgetData@@QEAA@XZ 00000001400986b0 f   Zenith_Vulkan_MemoryManager.obj
 0001:00097910       ??1?$VmaPoolAllocator@VBlock@VmaBlockMetadata_TLSF@@@@QEAA@XZ 0000000140098910 f i Zenith_Vulkan_MemoryManager.obj
 0001:000979c0       ??_EVmaBlockMetadata_Linear@@UEAAPEAXI@Z 00000001400989c0 f i Zenith_Vulkan_MemoryManager.obj
 0001:000979c0       ??_GVmaBlockMetadata_Linear@@UEAAPEAXI@Z 00000001400989c0 f i Zenith_Vulkan_MemoryManager.obj
 0001:00097a40       ??_EVmaBlockMetadata_TLSF@@UEAAPEAXI@Z 0000000140098a40 f i Zenith_Vulkan_MemoryManager.obj
 0001:00097a40       ??_GVmaBlockMetadata_TLSF@@UEAAPEAXI@Z 0000000140098a40 f i Zenith_Vulkan_MemoryManager.obj
 0001:00097b00       ?AddDetailedStatistics@VmaBlockMetadata_Linear@@UEBAXAEAUVmaDetailedStatistics@@@Z 0000000140098b00 f   Zenith_Vulkan_MemoryManager.obj
 0001:00097ed0       ?AddDetailedStatistics@VmaBlockMetadata_TLSF@@UEBAXAEAUVmaDetailedStatistics@@@Z 0000000140098ed0 f   Zenith_Vulkan_MemoryManager.obj
 0001:00097f80       ?AddNumber@VmaStringBuilder@@QEAAX_K@Z 0000000140098f80 f   Zenith_Vulkan_MemoryManager.obj
 0001:00098030       ?AddStatistics@VmaBlockMetadata_Linear@@UEBAXAEAUVmaStatistics@@@Z 0000000140099030 f   Zenith_Vulkan_MemoryManager.obj
 0001:00098260       ?AddStatistics@VmaBlockMetadata_TLSF@@UEBAXAEAUVmaStatistics@@@Z 0000000140099260 f   Zenith_Vulkan_MemoryManager.obj
 0001:000982a0       ?Alloc@VmaBlockMetadata_Linear@@UEAAXAEBUVmaAllocationRequest@@W4VmaSuballocationType@@PEAX@Z 00000001400992a0 f   Zenith_Vulkan_MemoryManager.obj
 0001:000983d0       ?Alloc@VmaBlockMetadata_TLSF@@UEAAXAEBUVmaAllocationRequest@@W4VmaSuballocationType@@PEAX@Z 00000001400993d0 f   Zenith_Vulkan_MemoryManager.obj
 0001:000986c0       ?AllocateBuffer@Zenith_Vulkan_MemoryManager@@SAX_KV?$Flags@W4BufferUsageFlagBits@vk@@@vk@@W4MemoryResidency@@AEAVZenith_Vulkan_Buffer@@@Z 00000001400996c0 f   Zenith_Vulkan_MemoryManager.obj
 0001:000987b0       ?AllocateDedicatedMemory@VmaAllocator_T@@AEAA?AW4VkResult@@PEAUVmaPool_T@@_KW4VmaSuballocationType@@AEAVVmaDedicatedAllocationList@@I_N444PEAXMPEAUVkBuffer_T@@PEAUVkImage_T@@UVmaBufferImageUsage@@1PEAPEAUVmaAllocation_T@@PEBX@Z 00000001400997b0 f   Zenith_Vulkan_MemoryManager.obj
 0001:00098c30       ?AllocateDedicatedMemoryPage@VmaAllocator_T@@AEAA?AW4VkResult@@PEAUVmaPool_T@@_KW4VmaSuballocationType@@IAEBUVkMemoryAllocateInfo@@_N44PEAXPEAPEAUVmaAllocation_T@@@Z 0000000140099c30 f   Zenith_Vulkan_MemoryManager.obj
 0001:00098e70       ?AllocateFromBlock@VmaBlockVector@@AEAA?AW4VkResult@@PEAVVmaDeviceMemoryBlock@@_K1IPEAXW4VmaSuballocationType@@IPEAPEAUVmaAllocation_T@@@Z 0000000140099e70 f   Zenith_Vulkan_MemoryManager.obj
 0001:00098f60       ?AllocateMemory@VmaAllocator_T@@QEAA?AW4VkResult@@AEBUVkMemoryRequirements@@_N1PEAUVkBuffer_T@@PEAUVkImage_T@@UVmaBufferImageUsage@@AEBUVmaAllocationCreateInfo@@W4VmaSuballocationType@@_KPEAPEAUVmaAllocation_T@@@Z 0000000140099f60 f   Zenith_Vulkan_MemoryManager.obj
 0001:00099240       ?AllocateMemoryOfType@VmaAllocator_T@@AEAA?AW4VkResult@@PEAUVmaPool_T@@_K1_NPEAUVkBuffer_T@@PEAUVkImage_T@@UVmaBufferImageUsage@@AEBUVmaAllocationCreateInfo@@IW4VmaSuballocationType@@AEAVVmaDedicatedAllocationList@@AEAVVmaBlockVector@@1PEAPEAUVmaAllocation_T@@@Z 000000014009a240 f   Zenith_Vulkan_MemoryManager.obj
 0001:00099810       ?AllocatePage@VmaBlockVector@@AEAA?AW4VkResult@@_K0AEBUVmaAllocationCreateInfo@@W4VmaSuballocationType@@PEAPEAUVmaAllocation_T@@@Z 000000014009a810 f   Zenith_Vulkan_MemoryManager.obj
 0001:00099d10       ?AllocateTexture@Zenith_Vulkan_MemoryManager@@CAXIIIW4ColourFormat@@W4DepthStencilFormat@@IIV?$Flags@W4ImageUsageFlagBits@vk@@@vk@@W4MemoryResidency@@AEAVZenith_Vulkan_Texture@@@Z 000000014009ad10 f   Zenith_Vulkan_MemoryManager.obj
 0001:00099f90       ?AllocateVulkanMemory@VmaAllocator_T@@QEAA?AW4VkResult@@PEBUVkMemoryAllocateInfo@@PEAPEAUVkDeviceMemory_T@@@Z 000000014009af90 f   Zenith_Vulkan_MemoryManager.obj
 0001:0009a0e0       ?BeginArray@VmaJsonWriter@@QEAAX_N@Z 000000014009b0e0 f   Zenith_Vulkan_MemoryManager.obj
 0001:0009a170       ?BeginFrame@Zenith_Vulkan_MemoryManager@@SAXXZ 000000014009b170 f   Zenith_Vulkan_MemoryManager.obj
 0001:0009a180       ?BeginObject@VmaJsonWriter@@QEAAX_N@Z 000000014009b180 f   Zenith_Vulkan_MemoryManager.obj
 0001:0009a210       ?BeginValue@VmaJsonWriter@@AEAAX_N@Z 000000014009b210 f   Zenith_Vulkan_MemoryManager.obj
 0001:0009a2c0       ?BindBufferMemory@VmaAllocator_T@@QEAA?AW4VkResult@@PEAUVmaAllocation_T@@_KPEAUVkBuffer_T@@PEBX@Z 000000014009b2c0 f   Zenith_Vulkan_MemoryManager.obj
 0001:0009a4b0       ?BindImageMemory@VmaAllocator_T@@QEAA?AW4VkResult@@PEAUVmaAllocation_T@@_KPEAUVkImage_T@@PEBX@Z 000000014009b4b0 f   Zenith_Vulkan_MemoryManager.obj
 0001:0009a6a0       ?CheckBlock@VmaBlockMetadata_TLSF@@AEAA_NAEAVBlock@1@I_K1W4VmaSuballocationType@@PEAUVmaAllocationRequest@@@Z 000000014009b6a0 f   Zenith_Vulkan_MemoryManager.obj
 0001:0009a870       ?CleanupAfterFree@VmaBlockMetadata_Linear@@AEAAXXZ 000000014009b870 f   Zenith_Vulkan_MemoryManager.obj
 0001:0009ab90       ?Clear@VmaBlockMetadata_Linear@@UEAAXXZ 000000014009bb90 f   Zenith_Vulkan_MemoryManager.obj
 0001:0009abe0       ?Clear@VmaBlockMetadata_TLSF@@UEAAXXZ 000000014009bbe0 f   Zenith_Vulkan_MemoryManager.obj
 0001:0009ada0       ?CommitAllocationRequest@VmaBlockVector@@AEAA?AW4VkResult@@AEAUVmaAllocationRequest@@PEAVVmaDeviceMemoryBlock@@_KIPEAXW4VmaSuballocationType@@PEAPEAUVmaAllocation_T@@@Z 000000014009bda0 f   Zenith_Vulkan_MemoryManager.obj
 0001:0009b020       ?ContinueString@VmaJsonWriter@@QEAAXPEBD@Z 000000014009c020 f   Zenith_Vulkan_MemoryManager.obj
 0001:0009b1e0       ?ContinueString_Pointer@VmaJsonWriter@@QEAAXPEBX@Z 000000014009c1e0 f   Zenith_Vulkan_MemoryManager.obj
 0001:0009b260       ?CreateAllocationRequest@VmaBlockMetadata_Linear@@UEAA_N_K0_NW4VmaSuballocationType@@IPEAUVmaAllocationRequest@@@Z 000000014009c260 f   Zenith_Vulkan_MemoryManager.obj
 0001:0009b2b0       ?CreateAllocationRequest@VmaBlockMetadata_TLSF@@UEAA_N_K0_NW4VmaSuballocationType@@IPEAUVmaAllocationRequest@@@Z 000000014009c2b0 f   Zenith_Vulkan_MemoryManager.obj
 0001:0009b920       ?CreateAllocationRequest_LowerAddress@VmaBlockMetadata_Linear@@AEAA_N_K0W4VmaSuballocationType@@IPEAUVmaAllocationRequest@@@Z 000000014009c920 f   Zenith_Vulkan_MemoryManager.obj
 0001:0009bd80       ?CreateAllocationRequest_UpperAddress@VmaBlockMetadata_Linear@@AEAA_N_K0W4VmaSuballocationType@@IPEAUVmaAllocationRequest@@@Z 000000014009cd80 f   Zenith_Vulkan_MemoryManager.obj
 0001:0009bf70       ?CreateBlock@VmaBlockVector@@AEAA?AW4VkResult@@_KPEA_K@Z 000000014009cf70 f   Zenith_Vulkan_MemoryManager.obj
 0001:0009c170       ?CreateColourAttachment@Zenith_Vulkan_MemoryManager@@CAXIIW4ColourFormat@@IAEAVZenith_Vulkan_Texture@@@Z 000000014009d170 f   Zenith_Vulkan_MemoryManager.obj
 0001:0009c2b0       ?CreateDepthStencilAttachment@Zenith_Vulkan_MemoryManager@@CAXIIW4DepthStencilFormat@@IAEAVZenith_Vulkan_Texture@@@Z 000000014009d2b0 f   Zenith_Vulkan_MemoryManager.obj
 0001:0009c400       ?CreateNewBlock@?$VmaPoolAllocator@UVmaAllocation_T@@@@AEAAAEAUItemBlock@1@XZ 000000014009d400 f i Zenith_Vulkan_MemoryManager.obj
 0001:0009c500       ?CreateTexture@Zenith_Vulkan_MemoryManager@@CAXPEBDAEAVZenith_Vulkan_Texture@@@Z 000000014009d500 f   Zenith_Vulkan_MemoryManager.obj
 0001:0009c8a0       ?CreateTexture@Zenith_Vulkan_MemoryManager@@CAXPEBXIIIW4ColourFormat@@W4DepthStencilFormat@@_NAEAVZenith_Vulkan_Texture@@@Z 000000014009d8a0 f   Zenith_Vulkan_MemoryManager.obj
 0001:0009ca20       ?CreateTextureCube@Zenith_Vulkan_MemoryManager@@CAXPEBD00000AEAVZenith_Vulkan_Texture@@@Z 000000014009da20 f   Zenith_Vulkan_MemoryManager.obj
 0001:0009cec0       ?Destroy@VmaDeviceMemoryBlock@@QEAAXPEAUVmaAllocator_T@@@Z 000000014009dec0 f   Zenith_Vulkan_MemoryManager.obj
 0001:0009cf60       ?EndFrame@Zenith_Vulkan_MemoryManager@@SAX_N@Z 000000014009df60 f   Zenith_Vulkan_MemoryManager.obj
 0001:0009cfc0       ?FindFreeBlock@VmaBlockMetadata_TLSF@@AEBAPEAVBlock@1@_KAEAI@Z 000000014009dfc0 f   Zenith_Vulkan_MemoryManager.obj
 0001:0009d0c0       ?FindMemoryTypeIndex@VmaAllocator_T@@QEBA?AW4VkResult@@IPEBUVmaAllocationCreateInfo@@UVmaBufferImageUsage@@PEAI@Z 000000014009e0c0 f   Zenith_Vulkan_MemoryManager.obj
 0001:0009d390       ?FindSuballocation@VmaBlockMetadata_Linear@@AEBAAEAUVmaSuballocation@@_K@Z 000000014009e390 f   Zenith_Vulkan_MemoryManager.obj
 0001:0009d590       ?FlushStagingBuffer@Zenith_Vulkan_MemoryManager@@CAXXZ 000000014009e590 f   Zenith_Vulkan_MemoryManager.obj
 0001:0009d840       ?Free@?$VmaPoolAllocator@VBlock@VmaBlockMetadata_TLSF@@@@QEAAXPEAVBlock@VmaBlockMetadata_TLSF@@@Z 000000014009e840 f i Zenith_Vulkan_MemoryManager.obj
 0001:0009d8c0       ?Free@VmaAllocationObjectAllocator@@QEAAXPEAUVmaAllocation_T@@@Z 000000014009e8c0 f   Zenith_Vulkan_MemoryManager.obj
 0001:0009d990       ?Free@VmaBlockMetadata_Linear@@UEAAXPEAUVmaAllocHandle_T@@@Z 000000014009e990 f   Zenith_Vulkan_MemoryManager.obj
 0001:0009dc30       ?Free@VmaBlockMetadata_TLSF@@UEAAXPEAUVmaAllocHandle_T@@@Z 000000014009ec30 f   Zenith_Vulkan_MemoryManager.obj
 0001:0009de20       ?Free@VmaBlockVector@@QEAAXQEAUVmaAllocation_T@@@Z 000000014009ee20 f   Zenith_Vulkan_MemoryManager.obj
 0001:0009e1d0       ?FreeBuffer@Zenith_Vulkan_MemoryManager@@SAXPEAVZenith_Vulkan_Buffer@@@Z 000000014009f1d0 f   Zenith_Vulkan_MemoryManager.obj
 0001:0009e250       ?FreeMemory@VmaAllocator_T@@QEAAX_KPEBQEAUVmaAllocation_T@@@Z 000000014009f250 f   Zenith_Vulkan_MemoryManager.obj
 0001:0009e3c0       ?FreeTexture@Zenith_Vulkan_MemoryManager@@CAXPEAVZenith_Vulkan_Texture@@@Z 000000014009f3c0 f   Zenith_Vulkan_MemoryManager.obj
 0001:0009e450       ?FreeVulkanMemory@VmaAllocator_T@@QEAAXI_KPEAUVkDeviceMemory_T@@@Z 000000014009f450 f   Zenith_Vulkan_MemoryManager.obj
 0001:0009e4e0       ?GetAllocationCount@VmaBlockMetadata_Linear@@UEBA_KXZ 000000014009f4e0 f   Zenith_Vulkan_MemoryManager.obj
 0001:0009e520       ?GetAllocationCount@VmaBlockMetadata_TLSF@@UEBA_KXZ 000000014009f520 f i Zenith_Vulkan_MemoryManager.obj
 0001:0009e520       ?GetSumFreeSize@VmaBlockMetadata_Linear@@UEBA_KXZ 000000014009f520 f i Zenith_Vulkan_MemoryManager.obj
 0001:0009e530       ?GetAllocationInfo@VmaAllocator_T@@QEAAXPEAUVmaAllocation_T@@PEAUVmaAllocationInfo@@@Z 000000014009f530 f   Zenith_Vulkan_MemoryManager.obj
 0001:0009e610       ?GetAllocationInfo@VmaBlockMetadata_Linear@@UEAAXPEAUVmaAllocHandle_T@@AEAUVmaVirtualAllocationInfo@@@Z 000000014009f610 f   Zenith_Vulkan_MemoryManager.obj
 0001:0009e640       ?GetAllocationInfo@VmaBlockMetadata_TLSF@@UEAAXPEAUVmaAllocHandle_T@@AEAUVmaVirtualAllocationInfo@@@Z 000000014009f640 f   Zenith_Vulkan_MemoryManager.obj
 0001:0009e660       ?GetAllocationListBegin@VmaBlockMetadata_TLSF@@UEBAPEAUVmaAllocHandle_T@@XZ 000000014009f660 f   Zenith_Vulkan_MemoryManager.obj
 0001:0009e690       ?GetAllocationOffset@VmaBlockMetadata_Linear@@UEBA_KPEAUVmaAllocHandle_T@@@Z 000000014009f690 f i Zenith_Vulkan_MemoryManager.obj
 0001:0009e6a0       ?GetAllocationOffset@VmaBlockMetadata_TLSF@@UEBA_KPEAUVmaAllocHandle_T@@@Z 000000014009f6a0 f i Zenith_Vulkan_MemoryManager.obj
 0001:0009e6b0       ?GetAllocationUserData@VmaBlockMetadata_Linear@@UEBAPEAXPEAUVmaAllocHandle_T@@@Z 000000014009f6b0 f   Zenith_Vulkan_MemoryManager.obj
 0001:0009e6d0       ?GetAllocationUserData@VmaBlockMetadata_TLSF@@UEBAPEAXPEAUVmaAllocHandle_T@@@Z 000000014009f6d0 f   Zenith_Vulkan_MemoryManager.obj
 0001:0009e6e0       ?GetFlushOrInvalidateRange@VmaAllocator_T@@AEBA_NPEAUVmaAllocation_T@@_K1AEAUVkMappedMemoryRange@@@Z 000000014009f6e0 f   Zenith_Vulkan_MemoryManager.obj
 0001:0009e840       ?GetFreeRegionsCount@VmaBlockMetadata_Linear@@UEBA_KXZ 000000014009f840 f   Zenith_Vulkan_MemoryManager.obj
 0001:0009e850       ?GetFreeRegionsCount@VmaBlockMetadata_TLSF@@UEBA_KXZ 000000014009f850 f i Zenith_Vulkan_MemoryManager.obj
 0001:0009e860       ?GetHeapBudgets@VmaAllocator_T@@QEAAXPEAUVmaBudget@@II@Z 000000014009f860 f   Zenith_Vulkan_MemoryManager.obj
 0001:0009ea30       ?GetListIndex@VmaBlockMetadata_TLSF@@AEBAI_K@Z 000000014009fa30 f   Zenith_Vulkan_MemoryManager.obj
 0001:0009eaa0       ?GetNextAllocation@VmaBlockMetadata_TLSF@@UEBAPEAUVmaAllocHandle_T@@PEAU2@@Z 000000014009faa0 f   Zenith_Vulkan_MemoryManager.obj
 0001:0009ead0       ?GetNextFreeRegionSize@VmaBlockMetadata_TLSF@@UEBA_KPEAUVmaAllocHandle_T@@@Z 000000014009fad0 f   Zenith_Vulkan_MemoryManager.obj
 0001:0009eaf0       ?GetSumFreeSize@VmaBlockMetadata_TLSF@@UEBA_KXZ 000000014009faf0 f i Zenith_Vulkan_MemoryManager.obj
 0001:0009eb00       ?ImageTransitionBarrier@Zenith_Vulkan_MemoryManager@@SAXVImage@vk@@W4ImageLayout@3@1V?$Flags@W4ImageAspectFlagBits@vk@@@3@V?$Flags@W4PipelineStageFlagBits@vk@@@3@3II@Z 000000014009fb00 f   Zenith_Vulkan_MemoryManager.obj
 0001:0009ec10       ?ImportVulkanFunctions_Custom@VmaAllocator_T@@AEAAXPEBUVmaVulkanFunctions@@@Z 000000014009fc10 f   Zenith_Vulkan_MemoryManager.obj
 0001:0009edd0       ?ImportVulkanFunctions_Dynamic@VmaAllocator_T@@AEAAXXZ 000000014009fdd0 f   Zenith_Vulkan_MemoryManager.obj
 0001:0009f340       ?IncrementallySortBlocks@VmaBlockVector@@AEAAXXZ 00000001400a0340 f   Zenith_Vulkan_MemoryManager.obj
 0001:0009f3f0       ?Init@VmaBlockMetadata_Linear@@UEAAX_K@Z 00000001400a03f0 f   Zenith_Vulkan_MemoryManager.obj
 0001:0009f400       ?Init@VmaBlockMetadata_TLSF@@UEAAX_K@Z 00000001400a0400 f   Zenith_Vulkan_MemoryManager.obj
 0001:0009f5c0       ?Init@VmaDeviceMemoryBlock@@QEAAXPEAUVmaAllocator_T@@PEAUVmaPool_T@@IPEAUVkDeviceMemory_T@@_KII3@Z 00000001400a05c0 f   Zenith_Vulkan_MemoryManager.obj
 0001:0009f790       ?InitBufferUsage@VmaAllocation_T@@QEAAXAEBUVkBufferCreateInfo@@_N@Z 00000001400a0790 f i Zenith_Vulkan_MemoryManager.obj
 0001:0009f7d0       ?Initialise@Zenith_Vulkan_MemoryManager@@SAXXZ 00000001400a07d0 f   Zenith_Vulkan_MemoryManager.obj
 0001:0009f8c0       ?InitialiseDynamicConstantBuffer@Zenith_Vulkan_MemoryManager@@SAXPEBX_KAEAVFlux_DynamicConstantBuffer@@@Z 00000001400a08c0 f   Zenith_Vulkan_MemoryManager.obj
 0001:0009f930       ?InitialiseDynamicVertexBuffer@Zenith_Vulkan_MemoryManager@@SAXPEBX_KAEAVFlux_DynamicVertexBuffer@@_N@Z 00000001400a0930 f   Zenith_Vulkan_MemoryManager.obj
 0001:0009f9b0       ?InitialiseIndexBuffer@Zenith_Vulkan_MemoryManager@@SAXPEBX_KAEAVFlux_IndexBuffer@@@Z 00000001400a09b0 f   Zenith_Vulkan_MemoryManager.obj
 0001:0009fab0       ?InitialiseStagingBuffer@Zenith_Vulkan_MemoryManager@@CAXXZ 00000001400a0ab0 f   Zenith_Vulkan_MemoryManager.obj
 0001:0009fd00       ?InitialiseVertexBuffer@Zenith_Vulkan_MemoryManager@@SAXPEBX_KAEAVFlux_VertexBuffer@@_N@Z 00000001400a0d00 f   Zenith_Vulkan_MemoryManager.obj
 0001:0009fd50       ?InsertFreeBlock@VmaBlockMetadata_TLSF@@AEAAXPEAVBlock@1@@Z 00000001400a0d50 f   Zenith_Vulkan_MemoryManager.obj
 0001:0009fe60       ?IsEmpty@VmaBlockMetadata_Linear@@UEBA_NXZ 00000001400a0e60 f i Zenith_Vulkan_MemoryManager.obj
 0001:0009fe80       ?IsEmpty@VmaBlockMetadata_TLSF@@UEBA_NXZ 00000001400a0e80 f i Zenith_Vulkan_MemoryManager.obj
 0001:0009fe90       ?Map@VmaAllocator_T@@QEAA?AW4VkResult@@PEAUVmaAllocation_T@@PEAPEAX@Z 00000001400a0e90 f   Zenith_Vulkan_MemoryManager.obj
 0001:0009ffd0       ?Map@VmaDeviceMemoryBlock@@QEAA?AW4VkResult@@PEAUVmaAllocator_T@@IPEAPEAX@Z 00000001400a0fd0 f   Zenith_Vulkan_MemoryManager.obj
 0001:000a0170       ?PrintDetailedMap@VmaBlockMetadata_Linear@@UEBAXAEAVVmaJsonWriter@@@Z 00000001400a1170 f   Zenith_Vulkan_MemoryManager.obj
 0001:000a0790       ?PrintDetailedMap@VmaBlockMetadata_TLSF@@UEBAXAEAVVmaJsonWriter@@@Z 00000001400a1790 f   Zenith_Vulkan_MemoryManager.obj
 0001:000a0980       ?PrintDetailedMap_Allocation@VmaBlockMetadata@@IEBAXAEAVVmaJsonWriter@@_K1PEAX@Z 00000001400a1980 f   Zenith_Vulkan_MemoryManager.obj
 0001:000a0bb0       ?PrintDetailedMap_Begin@VmaBlockMetadata@@IEBAXAEAVVmaJsonWriter@@_K11@Z 00000001400a1bb0 f   Zenith_Vulkan_MemoryManager.obj
 0001:000a0e10       ?PrintDetailedMap_UnusedRange@VmaBlockMetadata@@IEBAXAEAVVmaJsonWriter@@_K1@Z 00000001400a1e10 f   Zenith_Vulkan_MemoryManager.obj
 0001:000a1030       ?PrintParameters@VmaAllocation_T@@QEBAXAEAVVmaJsonWriter@@@Z 00000001400a2030 f   Zenith_Vulkan_MemoryManager.obj
 0001:000a1390       ?RemoveFreeBlock@VmaBlockMetadata_TLSF@@AEAAXPEAVBlock@1@@Z 00000001400a2390 f   Zenith_Vulkan_MemoryManager.obj
 0001:000a1480       ?SetAllocationUserData@VmaBlockMetadata_Linear@@UEAAXPEAUVmaAllocHandle_T@@PEAX@Z 00000001400a2480 f   Zenith_Vulkan_MemoryManager.obj
 0001:000a14a0       ?SetAllocationUserData@VmaBlockMetadata_TLSF@@UEAAXPEAUVmaAllocHandle_T@@PEAX@Z 00000001400a24a0 f   Zenith_Vulkan_MemoryManager.obj
 0001:000a14b0       ?SetName@VmaAllocation_T@@QEAAXPEAUVmaAllocator_T@@PEBD@Z 00000001400a24b0 f   Zenith_Vulkan_MemoryManager.obj
 0001:000a15a0       ?Unmap@VmaDeviceMemoryBlock@@QEAAXPEAUVmaAllocator_T@@I@Z 00000001400a25a0 f   Zenith_Vulkan_MemoryManager.obj
 0001:000a1690       ?Unregister@VmaDedicatedAllocationList@@QEAAXPEAUVmaAllocation_T@@@Z 00000001400a2690 f   Zenith_Vulkan_MemoryManager.obj
 0001:000a1720       ?UpdateVulkanBudget@VmaAllocator_T@@AEAAXXZ 00000001400a2720 f   Zenith_Vulkan_MemoryManager.obj
 0001:000a18b0       ?UploadBufferData@Zenith_Vulkan_MemoryManager@@SAXAEAVZenith_Vulkan_Buffer@@PEBX_K@Z 00000001400a28b0 f   Zenith_Vulkan_MemoryManager.obj
 0001:000a1b80       ?UploadTextureData@Zenith_Vulkan_MemoryManager@@SAXAEAVZenith_Vulkan_Texture@@PEBX_K@Z 00000001400a2b80 f   Zenith_Vulkan_MemoryManager.obj
 0001:000a1e30       ?Validate@VmaBlockMetadata_Linear@@UEBA_NXZ 00000001400a2e30 f   Zenith_Vulkan_MemoryManager.obj
 0001:000a2240       ?Validate@VmaBlockMetadata_TLSF@@UEBA_NXZ 00000001400a3240 f   Zenith_Vulkan_MemoryManager.obj
 0001:000a2680       ?WriteIndent@VmaJsonWriter@@AEAAX_N@Z 00000001400a3680 f   Zenith_Vulkan_MemoryManager.obj
 0001:000a2740       ?resize@?$VmaVector@DU?$VmaStlAllocator@D@@@@QEAAX_K@Z 00000001400a3740 f i Zenith_Vulkan_MemoryManager.obj
 0001:000a2830       ?resize@?$VmaVector@PEAVVmaDeviceMemoryBlock@@U?$VmaStlAllocator@PEAVVmaDeviceMemoryBlock@@@@@@QEAAX_K@Z 00000001400a3830 f i Zenith_Vulkan_MemoryManager.obj
 0001:000a2930       ?resize@?$VmaVector@UItemBlock@?$VmaPoolAllocator@UVmaAllocation_T@@@@U?$VmaStlAllocator@UItemBlock@?$VmaPoolAllocator@UVmaAllocation_T@@@@@@@@QEAAX_K@Z 00000001400a3930 f i Zenith_Vulkan_MemoryManager.obj
 0001:000a2930       ?resize@?$VmaVector@UItemBlock@?$VmaPoolAllocator@VBlock@VmaBlockMetadata_TLSF@@@@U?$VmaStlAllocator@UItemBlock@?$VmaPoolAllocator@VBlock@VmaBlockMetadata_TLSF@@@@@@@@QEAAX_K@Z 00000001400a3930 f i Zenith_Vulkan_MemoryManager.obj
 0001:000a2a30       ?resize@?$VmaVector@UStackItem@VmaJsonWriter@@U?$VmaStlAllocator@UStackItem@VmaJsonWriter@@@@@@QEAAX_K@Z 00000001400a3a30 f i Zenith_Vulkan_MemoryManager.obj
 0001:000a2b30       ?resize@?$VmaVector@UVmaSuballocation@@U?$VmaStlAllocator@UVmaSuballocation@@@@@@QEAAX_K@Z 00000001400a3b30 f i Zenith_Vulkan_MemoryManager.obj
 0001:000a2c30       vmaCreateBuffer            00000001400a3c30 f   Zenith_Vulkan_MemoryManager.obj
 0001:000a2ed0       vmaCreateImage             00000001400a3ed0 f   Zenith_Vulkan_MemoryManager.obj
 0001:000a3160       ??$?HDU?$char_traits@D@std@@V?$allocator@D@1@@std@@YA?AV?$basic_string@DU?$char_traits@D@std@@V?$allocator@D@2@@0@AEBV10@0@Z 00000001400a4160 f i Zenith_Vulkan_Pipeline.obj
 0001:000a32b0       ??$_Emplace_reallocate@AEBUAttachmentDescription@vk@@@?$vector@UAttachmentDescription@vk@@V?$allocator@UAttachmentDescription@vk@@@std@@@std@@AEAAPEAUAttachmentDescription@vk@@QEAU23@AEBU23@@Z 00000001400a42b0 f i Zenith_Vulkan_Pipeline.obj
 0001:000a34e0       ??$_Emplace_reallocate@AEBUVertexInputAttributeDescription@vk@@@?$vector@UVertexInputAttributeDescription@vk@@V?$allocator@UVertexInputAttributeDescription@vk@@@std@@@std@@AEAAPEAUVertexInputAttributeDescription@vk@@QEAU23@AEBU23@@Z 00000001400a44e0 f i Zenith_Vulkan_Pipeline.obj
 0001:000a36a0       ??$_Emplace_reallocate@AEBU?$vec@$02M$0A@@glm@@@?$vector@U?$vec@$02M$0A@@glm@@V?$allocator@U?$vec@$02M$0A@@glm@@@std@@@std@@AEAAPEAU?$vec@$02M$0A@@glm@@QEAU23@AEBU23@@Z 00000001400a46a0 f i zenithtools:Zenith_Tools_TerrainExport.obj
 0001:000a36a0       ??$_Emplace_reallocate@AEBUVertexInputBindingDescription@vk@@@?$vector@UVertexInputBindingDescription@vk@@V?$allocator@UVertexInputBindingDescription@vk@@@std@@@std@@AEAAPEAUVertexInputBindingDescription@vk@@QEAU23@AEBU23@@Z 00000001400a46a0 f i Zenith_Vulkan_Pipeline.obj
 0001:000a38c0       ??1Zenith_Vulkan_Shader@@QEAA@XZ 00000001400a48c0 f   Zenith_Vulkan_Pipeline.obj
 0001:000a3950       ?CreateShaderModule@Zenith_Vulkan_Shader@@QEAA?AVShaderModule@vk@@PEBD_K@Z 00000001400a4950 f   Zenith_Vulkan_Pipeline.obj
 0001:000a3a30       ?FromSpecification@Zenith_Vulkan_PipelineBuilder@@SAXAEAVZenith_Vulkan_Pipeline@@AEBUFlux_PipelineSpecification@@@Z 00000001400a4a30 f   Zenith_Vulkan_Pipeline.obj
 0001:000a46b0       ?FromSpecification@Zenith_Vulkan_RootSigBuilder@@SAXAEAVZenith_Vulkan_RootSig@@AEBUFlux_PipelineLayout@@@Z 00000001400a56b0 f   Zenith_Vulkan_Pipeline.obj
 0001:000a4910       ?Initialise@Zenith_Vulkan_Shader@@QEAAXAEBV?$basic_string@DU?$char_traits@D@std@@V?$allocator@D@2@@std@@0000@Z 00000001400a5910 f   Zenith_Vulkan_Pipeline.obj
 0001:000a51e0       ?TargetSetupToFramebuffer@Zenith_Vulkan_Pipeline@@SA?AVFramebuffer@vk@@AEAUFlux_TargetSetup@@IIAEBVRenderPass@3@@Z 00000001400a61e0 f   Zenith_Vulkan_Pipeline.obj
 0001:000a5350       ?TargetSetupToRenderPass@Zenith_Vulkan_Pipeline@@SA?AVRenderPass@vk@@AEAUFlux_TargetSetup@@W4LoadAction@@W4StoreAction@@12W4RenderTargetUsage@@@Z 00000001400a6350 f   Zenith_Vulkan_Pipeline.obj
 0001:000a5a20       ?deallocate@?$allocator@UAttachmentDescription@vk@@@std@@QEAAXQEAUAttachmentDescription@vk@@_K@Z 00000001400a6a20 f i Zenith_Vulkan_Pipeline.obj
 0001:000a5a70       ?deallocate@?$allocator@UVertexInputAttributeDescription@vk@@@std@@QEAAXQEAUVertexInputAttributeDescription@vk@@_K@Z 00000001400a6a70 f i Zenith_Vulkan_Pipeline.obj
 0001:000a5ac0       ?deallocate@?$allocator@U?$vec@$02M$0A@@glm@@@std@@QEAAXQEAU?$vec@$02M$0A@@glm@@_K@Z 00000001400a6ac0 f i zenithtools:Zenith_Tools_TerrainExport.obj
 0001:000a5ac0       ?deallocate@?$allocator@UVertexInputBindingDescription@vk@@@std@@QEAAXQEAUVertexInputBindingDescription@vk@@_K@Z 00000001400a6ac0 f i Zenith_Vulkan_Pipeline.obj
 0001:000a5b10       ??$_Resize_reallocate@U_Value_init_tag@std@@@?$vector@USurfaceFormatKHR@vk@@V?$allocator@USurfaceFormatKHR@vk@@@std@@@std@@AEAAX_KAEBU_Value_init_tag@1@@Z 00000001400a6b10 f i Zenith_Vulkan_Swapchain.obj
 0001:000a5cc0       ??$_Resize_reallocate@U_Value_init_tag@std@@@?$vector@W4PresentModeKHR@vk@@V?$allocator@W4PresentModeKHR@vk@@@std@@@std@@AEAAX_KAEBU_Value_init_tag@1@@Z 00000001400a6cc0 f i Zenith_Vulkan_Swapchain.obj
 0001:000a5e30       ??1SwapChainSupportDetails@@QEAA@XZ 00000001400a6e30 f i Zenith_Vulkan_Swapchain.obj
 0001:000a5ee0       ?BeginFrame@Zenith_Vulkan_Swapchain@@SA_NXZ 00000001400a6ee0 f   Zenith_Vulkan_Swapchain.obj
 0001:000a5fa0       ?EndFrame@Zenith_Vulkan_Swapchain@@SAXXZ 00000001400a6fa0 f   Zenith_Vulkan_Swapchain.obj
 0001:000a64d0       ?GetCurrentImageAvailableSemaphore@Zenith_Vulkan_Swapchain@@SAAEAVSemaphore@vk@@XZ 00000001400a74d0 f   Zenith_Vulkan_Swapchain.obj
 0001:000a64f0       ?Initialise@Zenith_Vulkan_Swapchain@@SAXXZ 00000001400a74f0 f   Zenith_Vulkan_Swapchain.obj
 0001:000a6fd0       ?InitialiseCopyToFramebufferCommands@Zenith_Vulkan_Swapchain@@CAXXZ 00000001400a7fd0 f   Zenith_Vulkan_Swapchain.obj
 0001:000a7a10       ?ShouldWaitOnImageAvailableSemaphore@Zenith_Vulkan_Swapchain@@SA_NXZ 00000001400a8a10 f   Zenith_Vulkan_Swapchain.obj
 0001:000a7a20       ?deallocate@?$allocator@W4PresentModeKHR@vk@@@std@@QEAAXQEAW4PresentModeKHR@vk@@_K@Z 00000001400a8a20 f i Zenith_Vulkan_Swapchain.obj
 0001:000a7a70       ?ConvertToVkFormat_Colour@Zenith_Vulkan_Texture@@SA?AW4Format@vk@@W4ColourFormat@@@Z 00000001400a8a70 f   Zenith_Vulkan_Texture.obj
 0001:000a7b20       ?ConvertToVkFormat_DepthStencil@Zenith_Vulkan_Texture@@SA?AW4Format@vk@@W4DepthStencilFormat@@@Z 00000001400a8b20 f   Zenith_Vulkan_Texture.obj
 0001:000a7b60       ?ConvertToVkLoadAction@Zenith_Vulkan_Texture@@SA?AW4AttachmentLoadOp@vk@@W4LoadAction@@@Z 00000001400a8b60 f   Zenith_Vulkan_Texture.obj
 0001:000a7bb0       ?ConvertToVkStoreAction@Zenith_Vulkan_Texture@@SA?AW4AttachmentStoreOp@vk@@W4StoreAction@@@Z 00000001400a8bb0 f   Zenith_Vulkan_Texture.obj
 0001:000a7bf0       ?InitialiseDefault@Zenith_Vulkan_Sampler@@SAXAEAV1@@Z 00000001400a8bf0 f   Zenith_Vulkan_Texture.obj
 0001:000a7cc0       ??0Zenith_Windows_Mutex@@QEAA@XZ 00000001400a8cc0 f   Zenith_Windows_Multithreading.obj
 0001:000a7ce0       ??0Zenith_Windows_Semaphore@@QEAA@II@Z 00000001400a8ce0 f   Zenith_Windows_Multithreading.obj
 0001:000a7d00       ??1Zenith_Windows_Mutex@@QEAA@XZ 00000001400a8d00 f   Zenith_Windows_Multithreading.obj
 0001:000a7d00       _Mtxdst                    00000001400a8d00 f   libcpmt:xmtx.obj
 0001:000a7d10       ??1Zenith_Windows_Semaphore@@QEAA@XZ 00000001400a8d10 f   Zenith_Windows_Multithreading.obj
 0001:000a7d20       ?Lock@Zenith_Windows_Mutex@@QEAAXXZ 00000001400a8d20 f   Zenith_Windows_Multithreading.obj
 0001:000a7d20       _Mtxlock                   00000001400a8d20 f   libcpmt:xmtx.obj
 0001:000a7d30       ?Platform_CreateThread@Zenith_Multithreading@@CAXPEBDP6AXPEBX@Z1@Z 00000001400a8d30 f   Zenith_Windows_Multithreading.obj
 0001:000a7e00       ?Platform_GetCurrentThreadID@Zenith_Multithreading@@CAIXZ 00000001400a8e00 f   Zenith_Windows_Multithreading.obj
 0001:000a7e60       ?Platform_RegisterThread@Zenith_Multithreading@@CAXXZ 00000001400a8e60 f   Zenith_Windows_Multithreading.obj
 0001:000a7e90       ?Signal@Zenith_Windows_Semaphore@@QEAA_NXZ 00000001400a8e90 f   Zenith_Windows_Multithreading.obj
 0001:000a7ee0       ?ThreadInit@@YAKPEAX@Z     00000001400a8ee0 f   Zenith_Windows_Multithreading.obj
 0001:000a7f70       ?Unlock@Zenith_Windows_Mutex@@QEAAXXZ 00000001400a8f70 f   Zenith_Windows_Multithreading.obj
 0001:000a7f70       _Mtxunlock                 00000001400a8f70 f   libcpmt:xmtx.obj
 0001:000a7f80       ?Wait@Zenith_Windows_Semaphore@@QEAAXXZ 00000001400a8f80 f   Zenith_Windows_Multithreading.obj
 0001:000a7fc0       ??0Zenith_Window@@QEAA@PEBDII@Z 00000001400a8fc0 f   Zenith_Windows_Window.obj
 0001:000a8090       ??_EZenith_Window@@UEAAPEAXI@Z 00000001400a9090 f i Zenith_Windows_Window.obj
 0001:000a8090       ??_GZenith_Window@@UEAAPEAXI@Z 00000001400a9090 f i Zenith_Windows_Window.obj
 0001:000a80c0       ?BeginFrame@Zenith_Window@@QEAAXXZ 00000001400a90c0 f   Zenith_Windows_Window.obj
 0001:000a80d0       ?GetMousePosition@Zenith_Window@@QEAAXAEAU?$vec@$01N$0A@@glm@@@Z 00000001400a90d0 f   Zenith_Windows_Window.obj
 0001:000a80e0       ?IsKeyDown@Zenith_Window@@QEAA_NH@Z 00000001400a90e0 f   Zenith_Windows_Window.obj
 0001:000a8120       ?AddButton@Zenith_DebugVariables@@SAXV?$vector@V?$basic_string@DU?$char_traits@D@std@@V?$allocator@D@2@@std@@V?$allocator@V?$basic_string@DU?$char_traits@D@std@@V?$allocator@D@2@@std@@@2@@std@@P6AXXZ@Z 00000001400a9120 f i Zenith_Main.obj
 0001:000a81f0       main                       00000001400a91f0 f   Zenith_Main.obj
 0001:000a8840       ??0CameraController_Behaviour@@QEAA@AEAVZenith_Entity@@@Z 00000001400a9840 f   CameraController_Behaviour.obj
 0001:000a88a0       ??1Zenith_ScriptBehaviour@@UEAA@XZ 00000001400a98a0 f i CameraController_Behaviour.obj
 0001:000a8910       ??_ECameraController_Behaviour@@UEAAPEAXI@Z 00000001400a9910 f i CameraController_Behaviour.obj
 0001:000a8910       ??_GCameraController_Behaviour@@UEAAPEAXI@Z 00000001400a9910 f i CameraController_Behaviour.obj
 0001:000a8950       ??_EZenith_ScriptBehaviour@@UEAAPEAXI@Z 00000001400a9950 f i CameraController_Behaviour.obj
 0001:000a8950       ??_GZenith_ScriptBehaviour@@UEAAPEAXI@Z 00000001400a9950 f i CameraController_Behaviour.obj
 0001:000a8990       ?OnUpdate@CameraController_Behaviour@@UEAAXM@Z 00000001400a9990 f   CameraController_Behaviour.obj
 0001:000a8f30       ??0PlayerController_Behaviour@@QEAA@AEAVZenith_Entity@@@Z 00000001400a9f30 f   PlayerController_Behaviour.obj
 0001:000a8fa0       ??_EPlayerController_Behaviour@@UEAAPEAXI@Z 00000001400a9fa0 f i PlayerController_Behaviour.obj
 0001:000a8fa0       ??_GPlayerController_Behaviour@@UEAAPEAXI@Z 00000001400a9fa0 f i PlayerController_Behaviour.obj
 0001:000a8fe0       ?OnUpdate@PlayerController_Behaviour@@UEAAXM@Z 00000001400a9fe0 f   PlayerController_Behaviour.obj
 0001:000a9040       ??$CreateComponent@VZenith_CameraComponent@@AEAVZenith_Entity@@@Zenith_Scene@@QEAAAEAVZenith_CameraComponent@@IAEAVZenith_Entity@@@Z 00000001400aa040 f i SuperSecret_State_InGame.obj
 0001:000a92e0       ??$CreateComponent@VZenith_ScriptComponent@@AEAVZenith_Entity@@@Zenith_Scene@@QEAAAEAVZenith_ScriptComponent@@IAEAVZenith_Entity@@@Z 00000001400aa2e0 f i SuperSecret_State_InGame.obj
 0001:000a94f0       ??$GetComponent@VZenith_ScriptComponent@@@Zenith_Entity@@QEBAAEAVZenith_ScriptComponent@@XZ 00000001400aa4f0 f i SuperSecret_State_InGame.obj
 0001:000a9650       ??$GetComponentPool@VZenith_ScriptComponent@@@Zenith_Scene@@AEAAPEAV?$Zenith_ComponentPool@VZenith_ScriptComponent@@@@XZ 00000001400aa650 f i SuperSecret_State_InGame.obj
 0001:000a9740       ??$GetTypeID@VZenith_ScriptComponent@@@TypeIDGenerator@Zenith_Scene@@SAIXZ 00000001400aa740 f i SuperSecret_State_InGame.obj
 0001:000a97b0       ??$HasComponent@VZenith_ScriptComponent@@@Zenith_Entity@@QEBA_NXZ 00000001400aa7b0 f i SuperSecret_State_InGame.obj
 0001:000a98b0       ??$contains@X@?$_Hash@V?$_Umap_traits@IIV?$_Uhash_compare@IU?$hash@I@std@@U?$equal_to@I@2@@std@@V?$allocator@U?$pair@$$CBII@std@@@2@$0A@@std@@@std@@QEBA_NAEBI@Z 00000001400aa8b0 f i SuperSecret_State_InGame.obj
 0001:000a9940       ??0?$basic_filebuf@DU?$char_traits@D@std@@@std@@QEAA@XZ 00000001400aa940 f i SuperSecret_State_InGame.obj
 0001:000a99d0       ?Get@?$Zenith_Vector@V?$unordered_map@IIU?$hash@I@std@@U?$equal_to@I@2@V?$allocator@U?$pair@$$CBII@std@@@2@@std@@@@QEBAAEAV?$unordered_map@IIU?$hash@I@std@@U?$equal_to@I@2@V?$allocator@U?$pair@$$CBII@std@@@2@@std@@I@Z 00000001400aa9d0 f i SuperSecret_State_InGame.obj
 0001:000a9a20       ?OnEnter@SuperSecret_State_InGame@@EEAAXXZ 00000001400aaa20 f   SuperSecret_State_InGame.obj
 0001:000aad50       ?OnExit@SuperSecret_State_InGame@@EEAAXXZ 00000001400abd50 f   SuperSecret_State_InGame.obj
 0001:000aad60       ?OnUpdate@SuperSecret_State_InGame@@EEAAXXZ 00000001400abd60 f   SuperSecret_State_InGame.obj
 0001:000aafa0       ?Project_Initialise@Zenith_StateMachine@@SAXXZ 00000001400abfa0 f   SuperSecret_State_InGame.obj
 0001:000ab2c0       ?open@?$basic_filebuf@DU?$char_traits@D@std@@@std@@QEAAPEAV12@PEBDHH@Z 00000001400ac2c0 f i SuperSecret_State_InGame.obj
 0001:000ab370       ??0ImGuiContext@@QEAA@PEAUImFontAtlas@@@Z 00000001400ac370 f i zenithtools:imgui.obj
 0001:000abfe0       ??0ImGuiIO@@QEAA@XZ        00000001400acfe0 f   zenithtools:imgui.obj
 0001:000ac2d0       ??0ImGuiStyle@@QEAA@XZ     00000001400ad2d0 f   zenithtools:imgui.obj
 0001:000ac4e0       ??0ImGuiWindow@@QEAA@PEAUImGuiContext@@PEBD@Z 00000001400ad4e0 f   zenithtools:imgui.obj
 0001:000aca60       ?AddFocusEvent@ImGuiIO@@QEAAX_N@Z 00000001400ada60 f   zenithtools:imgui.obj
 0001:000acb10       ?AddInputCharacter@ImGuiIO@@QEAAXI@Z 00000001400adb10 f   zenithtools:imgui.obj
 0001:000acb80       ?AddKeyAnalogEvent@ImGuiIO@@QEAAXW4ImGuiKey@@_NM@Z 00000001400adb80 f   zenithtools:imgui.obj
 0001:000acda0       ?AddKeyEvent@ImGuiIO@@QEAAXW4ImGuiKey@@_N@Z 00000001400adda0 f   zenithtools:imgui.obj
 0001:000acdd0       ?AddMouseButtonEvent@ImGuiIO@@QEAAXH_N@Z 00000001400addd0 f   zenithtools:imgui.obj
 0001:000acfa0       ?AddMousePosEvent@ImGuiIO@@QEAAXMM@Z 00000001400adfa0 f   zenithtools:imgui.obj
 0001:000ad0e0       ?AddMouseSourceEvent@ImGuiIO@@QEAAXW4ImGuiMouseSource@@@Z 00000001400ae0e0 f   zenithtools:imgui.obj
 0001:000ad0f0       ?AddMouseWheelEvent@ImGuiIO@@QEAAXMM@Z 00000001400ae0f0 f   zenithtools:imgui.obj
 0001:000ad170       ?AddSettingsHandler@ImGui@@YAXPEBUImGuiSettingsHandler@@@Z 00000001400ae170 f   zenithtools:imgui.obj
 0001:000ad470       ?Begin@ImGui@@YA_NPEBDPEA_NH@Z 00000001400ae470 f   zenithtools:imgui.obj
 0001:000af910       ?BeginChildEx@ImGui@@YA_NPEBDIAEBUImVec2@@HH@Z 00000001400b0910 f   zenithtools:imgui.obj
 0001:000afcb0       ?BeginDisabled@ImGui@@YAX_N@Z 00000001400b0cb0 f   zenithtools:imgui.obj
 0001:000afd60       ?BeginGroup@ImGui@@YAXXZ   00000001400b0d60 f   zenithtools:imgui.obj
 0001:000afea0       ?BeginTooltipEx@ImGui@@YA_NHH@Z 00000001400b0ea0 f   zenithtools:imgui.obj
 0001:000b0060       ?CalcFontSize@ImGuiWindow@@QEBAMXZ 00000001400b1060 f i zenithtools:imgui.obj
 0001:000b0090       ?CalcItemSize@ImGui@@YA?AUImVec2@@U2@MM@Z 00000001400b1090 f   zenithtools:imgui.obj
 0001:000b01a0       ?CalcItemWidth@ImGui@@YAMXZ 00000001400b11a0 f   zenithtools:imgui.obj
 0001:000b0400       ?CalcTextSize@ImGui@@YA?AUImVec2@@PEBD0_NM@Z 00000001400b1400 f   zenithtools:imgui.obj
 0001:000b04e0       ?CalcTypematicRepeatAmount@ImGui@@YAHMMMM@Z 00000001400b14e0 f   zenithtools:imgui.obj
 0001:000b0b30       ?CalcWrapWidthForPos@ImGui@@YAMAEBUImVec2@@M@Z 00000001400b1b30 f   zenithtools:imgui.obj
 0001:000b0be0       ?Clear@ImGuiKeyRoutingTable@@QEAAXXZ 00000001400b1be0 f i zenithtools:imgui.obj
 0001:000b0c50       ?ClearActiveID@ImGui@@YAXXZ 00000001400b1c50 f   zenithtools:imgui.obj
 0001:000b0c60       ?ClearDragDrop@ImGui@@YAXXZ 00000001400b1c60 f   zenithtools:imgui.obj
 0001:000b0d30       ?ClearInputKeys@ImGuiIO@@QEAAXXZ 00000001400b1d30 f   zenithtools:imgui.obj
 0001:000b0e50       ?ClipWithFull@ImRect@@QEAAXAEBU1@@Z 00000001400b1e50 f i zenithtools:imgui.obj
 0001:000b0ed0       ?CloseCurrentPopup@ImGui@@YAXXZ 00000001400b1ed0 f   zenithtools:imgui.obj
 0001:000b0fb0       ?ClosePopupToLevel@ImGui@@YAXH_N@Z 00000001400b1fb0 f   zenithtools:imgui.obj
 0001:000b1090       ?ClosePopupsOverWindow@ImGui@@YAXPEAUImGuiWindow@@_N@Z 00000001400b2090 f   zenithtools:imgui.obj
 0001:000b1190       ?ColorConvertFloat4ToU32@ImGui@@YAIAEBUImVec4@@@Z 00000001400b2190 f   zenithtools:imgui.obj
 0001:000b1240       ?ColorConvertHSVtoRGB@ImGui@@YAXMMMAEAM00@Z 00000001400b2240 f   zenithtools:imgui.obj
 0001:000b1400       ?ConvertSingleModFlagToKey@ImGui@@YA?AW4ImGuiKey@@W42@@Z 00000001400b2400 f i zenithtools:imgui.obj
 0001:000b1440       ?CreateContext@ImGui@@YAPEAUImGuiContext@@PEAUImFontAtlas@@@Z 00000001400b2440 f   zenithtools:imgui.obj
 0001:000b1660       ?CreateNewWindowSettings@ImGui@@YAPEAUImGuiWindowSettings@@PEBD@Z 00000001400b2660 f   zenithtools:imgui.obj
 0001:000b1740       ?DebugCheckVersionAndDataLayout@ImGui@@YA_NPEBD_K11111@Z 00000001400b2740 f   zenithtools:imgui.obj
 0001:000b17d0       ?DebugHookIdInfo@ImGui@@YAXIHPEBX0@Z 00000001400b27d0 f   zenithtools:imgui.obj
 0001:000b19e0       ?DebugLocateItemResolveWithLastItem@ImGui@@YAXXZ 00000001400b29e0 f   zenithtools:imgui.obj
 0001:000b1b50       ?DebugLog@ImGui@@YAXPEBDZZ 00000001400b2b50 f   zenithtools:imgui.obj
 0001:000b1b80       ?DebugLogV@ImGui@@YAXPEBDPEAD@Z 00000001400b2b80 f   zenithtools:imgui.obj
 0001:000b1fe0       ?End@ImGui@@YAXXZ          00000001400b2fe0 f   zenithtools:imgui.obj
 0001:000b2330       ?EndChild@ImGui@@YAXXZ     00000001400b3330 f   zenithtools:imgui.obj
 0001:000b2520       ?EndDisabled@ImGui@@YAXXZ  00000001400b3520 f   zenithtools:imgui.obj
 0001:000b2580       ?EndFrame@ImGui@@YAXXZ     00000001400b3580 f   zenithtools:imgui.obj
 0001:000b2900       ?EndGroup@ImGui@@YAXXZ     00000001400b3900 f   zenithtools:imgui.obj
 0001:000b2e00       ?FindBestWindowPosForPopup@ImGui@@YA?AUImVec2@@PEAUImGuiWindow@@@Z 00000001400b3e00 f   zenithtools:imgui.obj
 0001:000b3160       ?FindBestWindowPosForPopupEx@ImGui@@YA?AUImVec2@@AEBU2@0PEAW4ImGuiDir@@AEBUImRect@@2W4ImGuiPopupPositionPolicy@@@Z 00000001400b4160 f   zenithtools:imgui.obj
 0001:000b34a0       ?FindHoveredWindowEx@ImGui@@YAXAEBUImVec2@@_NPEAPEAUImGuiWindow@@2@Z 00000001400b44a0 f   zenithtools:imgui.obj
 0001:000b36d0       ?FindRenderedTextEnd@ImGui@@YAPEBDPEBD0@Z 00000001400b46d0 f   zenithtools:imgui.obj
 0001:000b3710       ?FindSettingsHandler@ImGui@@YAPEAUImGuiSettingsHandler@@PEBD@Z 00000001400b4710 f   zenithtools:imgui.obj
 0001:000b37b0       ?FindWindowByID@ImGui@@YAPEAUImGuiWindow@@I@Z 00000001400b47b0 f   zenithtools:imgui.obj
 0001:000b38c0       ?FindWindowSettingsByWindow@ImGui@@YAPEAUImGuiWindowSettings@@PEAUImGuiWindow@@@Z 00000001400b48c0 f   zenithtools:imgui.obj
 0001:000b3940       ?FixupKeyChord@ImGui@@YAHH@Z 00000001400b4940 f   zenithtools:imgui.obj
 0001:000b3ae0       ?FocusTopMostWindowUnderOne@ImGui@@YAXPEAUImGuiWindow@@0PEAUImGuiViewport@@H@Z 00000001400b4ae0 f   zenithtools:imgui.obj
 0001:000b3b80       ?FocusWindow@ImGui@@YAXPEAUImGuiWindow@@H@Z 00000001400b4b80 f   zenithtools:imgui.obj
 0001:000b3fa0       ?GetClipboardText@ImGui@@YAPEBDXZ 00000001400b4fa0 f   zenithtools:imgui.obj
 0001:000b4100       ?GetColorU32@ImGui@@YAIAEBUImVec4@@@Z 00000001400b5100 f   zenithtools:imgui.obj
 0001:000b4140       ?GetColorU32@ImGui@@YAIHM@Z 00000001400b5140 f   zenithtools:imgui.obj
 0001:000b4190       ?GetContentRegionAvail@ImGui@@YA?AUImVec2@@XZ 00000001400b5190 f   zenithtools:imgui.obj
 0001:000b41f0       ?GetCurrentContext@ImGui@@YAPEAUImGuiContext@@XZ 00000001400b51f0 f   zenithtools:imgui.obj
 0001:000b4200       ?GetDrawData@ImGui@@YAPEAUImDrawData@@XZ 00000001400b5200 f   zenithtools:imgui.obj
 0001:000b4220       ?GetFrameHeight@ImGui@@YAMXZ 00000001400b5220 f   zenithtools:imgui.obj
 0001:000b4240       ?GetID@ImGuiWindow@@QEAAIH@Z 00000001400b5240 f   zenithtools:imgui.obj
 0001:000b42f0       ?GetID@ImGuiWindow@@QEAAIPEBD0@Z 00000001400b52f0 f   zenithtools:imgui.obj
 0001:000b4370       ?GetIDFromRectangle@ImGuiWindow@@QEAAIAEBUImRect@@@Z 00000001400b5370 f   zenithtools:imgui.obj
 0001:000b4560       ?GetIO@ImGui@@YAAEAUImGuiIO@@XZ 00000001400b5560 f   zenithtools:imgui.obj
 0001:000b4570       ?GetInt@ImGuiStorage@@QEBAHIH@Z 00000001400b5570 f   zenithtools:imgui.obj
 0001:000b45e0       ?GetItemRectMin@ImGui@@YA?AUImVec2@@XZ 00000001400b55e0 f   zenithtools:imgui.obj
 0001:000b4600       ?GetKeyChordName@ImGui@@YAPEBDH@Z 00000001400b5600 f   zenithtools:imgui.obj
 0001:000b4770       ?GetKeyData@ImGui@@YAPEAUImGuiKeyData@@PEAUImGuiContext@@W4ImGuiKey@@@Z 00000001400b5770 f   zenithtools:imgui.obj
 0001:000b47e0       ?GetKeyName@ImGui@@YAPEBDW4ImGuiKey@@@Z 00000001400b57e0 f   zenithtools:imgui.obj
 0001:000b4880       ?GetKeyOwnerData@ImGui@@YAPEAUImGuiKeyOwnerData@@PEAUImGuiContext@@W4ImGuiKey@@@Z 00000001400b5880 f i zenithtools:imgui.obj
 0001:000b48e0       ?GetKeyPressedAmount@ImGui@@YAHW4ImGuiKey@@MM@Z 00000001400b58e0 f   zenithtools:imgui.obj
 0001:000b49a0       ?GetMainViewport@ImGui@@YAPEAUImGuiViewport@@XZ 00000001400b59a0 f   zenithtools:imgui.obj
 0001:000b49c0       ?GetMouseCursor@ImGui@@YAHXZ 00000001400b59c0 f   zenithtools:imgui.obj
 0001:000b49d0       ?GetNavTweakPressedAmount@ImGui@@YAMW4ImGuiAxis@@@Z 00000001400b59d0 f   zenithtools:imgui.obj
 0001:000b4c00       ?GetScrollMaxY@ImGui@@YAMXZ 00000001400b5c00 f   zenithtools:imgui.obj
 0001:000b4c20       ?GetShortcutRoutingData@ImGui@@YAPEAUImGuiKeyRoutingData@@H@Z 00000001400b5c20 f   zenithtools:imgui.obj
 0001:000b4da0       ?GetStyle@ImGui@@YAAEAUImGuiStyle@@XZ 00000001400b5da0 f   zenithtools:imgui.obj
 0001:000b4db0       ?GetStyleColorVec4@ImGui@@YAAEBUImVec4@@H@Z 00000001400b5db0 f   zenithtools:imgui.obj
 0001:000b4dd0       ?GetTextLineHeight@ImGui@@YAMXZ 00000001400b5dd0 f   zenithtools:imgui.obj
 0001:000b4de0       ?GetTopMostPopupModal@ImGui@@YAPEAUImGuiWindow@@XZ 00000001400b5de0 f   zenithtools:imgui.obj
 0001:000b4f60       ?GetWindowDrawList@ImGui@@YAPEAUImDrawList@@XZ 00000001400b5f60 f   zenithtools:imgui.obj
 0001:000b4f90       ?ImFileOpen@@YAPEAU_iobuf@@PEBD0@Z 00000001400b5f90 f   zenithtools:imgui.obj
 0001:000b5120       ?ImFormatString@@YAHPEAD_KPEBDZZ 00000001400b6120 f   zenithtools:imgui.obj
 0001:000b51a0       ?ImFormatStringToTempBuffer@@YAXPEAPEBD0PEBDZZ 00000001400b61a0 f   zenithtools:imgui.obj
 0001:000b5320       ?ImFormatStringToTempBufferV@@YAXPEAPEBD0PEBDPEAD@Z 00000001400b6320 f   zenithtools:imgui.obj
 0001:000b5490       ?ImHashStr@@YAIPEBD_KI@Z   00000001400b6490 f   zenithtools:imgui.obj
 0001:000b5540       ?ImStrSkipBlank@@YAPEBDPEBD@Z 00000001400b6540 f   zenithtools:imgui.obj
 0001:000b5560       ?ImStrTrimBlanks@@YAXPEAD@Z 00000001400b6560 f   zenithtools:imgui.obj
 0001:000b55f0       ?ImStrbolW@@YAPEBGPEBG0@Z  00000001400b65f0 f   zenithtools:imgui.obj
 0001:000b5610       ?ImStrncpy@@YAXPEADPEBD_K@Z 00000001400b6610 f   zenithtools:imgui.obj
 0001:000b5640       ?ImTextCharFromUtf8@@YAHPEAIPEBD1@Z 00000001400b6640 f   zenithtools:imgui.obj
 0001:000b57f0       ?ImTextCountCharsFromUtf8@@YAHPEBD0@Z 00000001400b67f0 f   zenithtools:imgui.obj
 0001:000b59d0       ?ImTextCountUtf8BytesFromStr@@YAHPEBG0@Z 00000001400b69d0 f   zenithtools:imgui.obj
 0001:000b5a20       ?ImTextStrFromUtf8@@YAHPEAGHPEBD1PEAPEBD@Z 00000001400b6a20 f   zenithtools:imgui.obj
 0001:000b5c60       ?ImTextStrToUtf8@@YAHPEADHPEBG1@Z 00000001400b6c60 f   zenithtools:imgui.obj
 0001:000b5d30       ?Indent@ImGui@@YAXM@Z      00000001400b6d30 f   zenithtools:imgui.obj
 0001:000b5ea0       ?Initialize@ImGui@@YAXXZ   00000001400b6ea0 f   zenithtools:imgui.obj
 0001:000b6350       ?IsClippedEx@ImGui@@YA_NAEBUImRect@@I@Z 00000001400b7350 f   zenithtools:imgui.obj
 0001:000b63d0       ?IsItemActive@ImGui@@YA_NXZ 00000001400b73d0 f   zenithtools:imgui.obj
 0001:000b63f0       ?IsItemDeactivatedAfterEdit@ImGui@@YA_NXZ 00000001400b73f0 f   zenithtools:imgui.obj
 0001:000b6450       ?IsItemHovered@ImGui@@YA_NH@Z 00000001400b7450 f   zenithtools:imgui.obj
 0001:000b6670       ?IsKeyChordPressed@ImGui@@YA_NHHI@Z 00000001400b7670 f   zenithtools:imgui.obj
 0001:000b6720       ?IsKeyDown@ImGui@@YA_NW4ImGuiKey@@@Z 00000001400b7720 f   zenithtools:imgui.obj
 0001:000b6790       ?IsKeyDown@ImGui@@YA_NW4ImGuiKey@@I@Z 00000001400b7790 f   zenithtools:imgui.obj
 0001:000b67e0       ?IsKeyPressed@ImGui@@YA_NW4ImGuiKey@@HI@Z 00000001400b77e0 f   zenithtools:imgui.obj
 0001:000b6950       ?IsKeyPressed@ImGui@@YA_NW4ImGuiKey@@_N@Z 00000001400b7950 f   zenithtools:imgui.obj
 0001:000b6960       ?IsKeyReleased@ImGui@@YA_NW4ImGuiKey@@@Z 00000001400b7960 f   zenithtools:imgui.obj
 0001:000b69e0       ?IsMouseClicked@ImGui@@YA_NHHI@Z 00000001400b79e0 f   zenithtools:imgui.obj
 0001:000b6a70       ?IsMouseClicked@ImGui@@YA_NH_N@Z 00000001400b7a70 f   zenithtools:imgui.obj
 0001:000b6b30       ?IsMouseDown@ImGui@@YA_NH@Z 00000001400b7b30 f   zenithtools:imgui.obj
 0001:000b6ba0       ?IsMouseDown@ImGui@@YA_NHI@Z 00000001400b7ba0 f   zenithtools:imgui.obj
 0001:000b6be0       ?IsMouseDragging@ImGui@@YA_NHM@Z 00000001400b7be0 f   zenithtools:imgui.obj
 0001:000b6c20       ?IsMouseHoveringRect@ImGui@@YA_NAEBUImVec2@@0_N@Z 00000001400b7c20 f   zenithtools:imgui.obj
 0001:000b6d00       ?IsMouseReleased@ImGui@@YA_NHI@Z 00000001400b7d00 f   zenithtools:imgui.obj
 0001:000b6d40       ?IsPopupOpen@ImGui@@YA_NIH@Z 00000001400b7d40 f   zenithtools:imgui.obj
 0001:000b6dc0       ?IsWindowContentHoverable@ImGui@@YA_NPEAUImGuiWindow@@H@Z 00000001400b7dc0 f   zenithtools:imgui.obj
 0001:000b6e30       ?ItemAdd@ImGui@@YA_NAEBUImRect@@IPEBU2@H@Z 00000001400b7e30 f   zenithtools:imgui.obj
 0001:000b70a0       ?ItemHoverable@ImGui@@YA_NAEBUImRect@@IH@Z 00000001400b80a0 f   zenithtools:imgui.obj
 0001:000b72f0       ?ItemSize@ImGui@@YAXAEBUImVec2@@M@Z 00000001400b82f0 f   zenithtools:imgui.obj
 0001:000b7460       ?LoadIniSettingsFromMemory@ImGui@@YAXPEBD_K@Z 00000001400b8460 f   zenithtools:imgui.obj
 0001:000b76a0       ?LogRenderedText@ImGui@@YAXPEBUImVec2@@PEBD1@Z 00000001400b86a0 f   zenithtools:imgui.obj
 0001:000b78a0       ?LogSetNextTextDecoration@ImGui@@YAXPEBD0@Z 00000001400b88a0 f   zenithtools:imgui.obj
 0001:000b78c0       ?LogText@ImGui@@YAXPEBDZZ  00000001400b88c0 f   zenithtools:imgui.obj
 0001:000b79b0       ?MarkIniSettingsDirty@ImGui@@YAXPEAUImGuiWindow@@@Z 00000001400b89b0 f   zenithtools:imgui.obj
 0001:000b79e0       ?MarkItemEdited@ImGui@@YAXI@Z 00000001400b89e0 f   zenithtools:imgui.obj
 0001:000b7a10       ?MemAlloc@ImGui@@YAPEAX_K@Z 00000001400b8a10 f   zenithtools:imgui.obj
 0001:000b7ac0       ?MemFree@ImGui@@YAXPEAX@Z  00000001400b8ac0 f   zenithtools:imgui.obj
 0001:000b7e70       ?NavClearPreferredPosForAxis@ImGui@@YAXW4ImGuiAxis@@@Z 00000001400b8e70 f   zenithtools:imgui.obj
 0001:000b7ea0       ?NavInitWindow@ImGui@@YAXPEAUImGuiWindow@@_N@Z 00000001400b8ea0 f   zenithtools:imgui.obj
 0001:000b7fd0       ?NavMoveRequestApplyResult@ImGui@@YAXXZ 00000001400b8fd0 f   zenithtools:imgui.obj
 0001:000b8440       ?NavMoveRequestButNoResultYet@ImGui@@YA_NXZ 00000001400b9440 f   zenithtools:imgui.obj
 0001:000b8470       ?NavMoveRequestCancel@ImGui@@YAXXZ 00000001400b9470 f   zenithtools:imgui.obj
 0001:000b84b0       ?NavMoveRequestResolveWithLastItem@ImGui@@YAXPEAUImGuiNavItemData@@@Z 00000001400b94b0 f   zenithtools:imgui.obj
 0001:000b8500       ?NavMoveRequestSubmit@ImGui@@YAXW4ImGuiDir@@0HH@Z 00000001400b9500 f   zenithtools:imgui.obj
 0001:000ba750       ?NavUpdateCurrentWindowIsScrollPushableX@ImGui@@YAXXZ 00000001400bb750 f   zenithtools:imgui.obj
 0001:000bb840       ?NewFrame@ImGui@@YAXXZ     00000001400bc840 f   zenithtools:imgui.obj
 0001:000bc920       ?Overlaps@ImRect@@QEBA_NAEBU1@@Z 00000001400bd920 f i zenithtools:imgui.obj
 0001:000bc950       ?PathLineTo@ImDrawList@@QEAAXAEBUImVec2@@@Z 00000001400bd950 f i zenithtools:imgui.obj
 0001:000bcb00       ?PopClipRect@ImGui@@YAXXZ  00000001400bdb00 f   zenithtools:imgui.obj
 0001:000bcb80       ?PopFont@ImGui@@YAXXZ      00000001400bdb80 f   zenithtools:imgui.obj
 0001:000bcbf0       ?PopID@ImGui@@YAXXZ        00000001400bdbf0 f   zenithtools:imgui.obj
 0001:000bcc10       ?PopItemWidth@ImGui@@YAXXZ 00000001400bdc10 f   zenithtools:imgui.obj
 0001:000bcc50       ?PopStyleColor@ImGui@@YAXH@Z 00000001400bdc50 f   zenithtools:imgui.obj
 0001:000bccb0       ?PopStyleVar@ImGui@@YAXH@Z 00000001400bdcb0 f   zenithtools:imgui.obj
 0001:000bcf20       ?PushClipRect@ImGui@@YAXAEBUImVec2@@0_N@Z 00000001400bdf20 f   zenithtools:imgui.obj
 0001:000bcfb0       ?PushFont@ImGui@@YAXPEAUImFont@@@Z 00000001400bdfb0 f   zenithtools:imgui.obj
 0001:000bd0b0       ?PushID@ImGui@@YAXH@Z      00000001400be0b0 f   zenithtools:imgui.obj
 0001:000bd130       ?PushID@ImGui@@YAXPEBD@Z   00000001400be130 f   zenithtools:imgui.obj
 0001:000bd1f0       ?PushMultiItemsWidths@ImGui@@YAXHM@Z 00000001400be1f0 f   zenithtools:imgui.obj
 0001:000bd380       ?PushOverrideID@ImGui@@YAXI@Z 00000001400be380 f   zenithtools:imgui.obj
 0001:000bd410       ?PushStyleColor@ImGui@@YAXHAEBUImVec4@@@Z 00000001400be410 f   zenithtools:imgui.obj
 0001:000bd480       ?PushStyleVar@ImGui@@YAXHAEBUImVec2@@@Z 00000001400be480 f   zenithtools:imgui.obj
 0001:000bd510       ?PushStyleVar@ImGui@@YAXHM@Z 00000001400be510 f   zenithtools:imgui.obj
 0001:000bd590       ?Render@ImGui@@YAXXZ       00000001400be590 f   zenithtools:imgui.obj
 0001:000bde30       ?RenderFrame@ImGui@@YAXUImVec2@@0I_NM@Z 00000001400bee30 f   zenithtools:imgui.obj
 0001:000bdfe0       ?RenderMouseCursor@ImGui@@YAXUImVec2@@MHIII@Z 00000001400befe0 f   zenithtools:imgui.obj
 0001:000be3c0       ?RenderNavHighlight@ImGui@@YAXAEBUImRect@@IH@Z 00000001400bf3c0 f   zenithtools:imgui.obj
 0001:000be600       ?RenderText@ImGui@@YAXUImVec2@@PEBD1_N@Z 00000001400bf600 f   zenithtools:imgui.obj
 0001:000be8c0       ?RenderTextClipped@ImGui@@YAXAEBUImVec2@@0PEBD1PEBU2@0PEBUImRect@@@Z 00000001400bf8c0 f   zenithtools:imgui.obj
 0001:000beb40       ?RenderTextClippedEx@ImGui@@YAXPEAUImDrawList@@AEBUImVec2@@1PEBD2PEBU3@1PEBUImRect@@@Z 00000001400bfb40 f   zenithtools:imgui.obj
 0001:000bedc0       ?RenderTextEllipsis@ImGui@@YAXPEAUImDrawList@@AEBUImVec2@@1MMPEBD2PEBU3@@Z 00000001400bfdc0 f   zenithtools:imgui.obj
 0001:000bf3c0       ?RenderTextWrapped@ImGui@@YAXUImVec2@@PEBD1M@Z 00000001400c03c0 f   zenithtools:imgui.obj
 0001:000c05d0       ?SameLine@ImGui@@YAXMM@Z   00000001400c15d0 f   zenithtools:imgui.obj
 0001:000c0680       ?SaveIniSettingsToDisk@ImGui@@YAXPEBD@Z 00000001400c1680 f   zenithtools:imgui.obj
 0001:000c0700       ?SaveIniSettingsToMemory@ImGui@@YAPEBDPEA_K@Z 00000001400c1700 f   zenithtools:imgui.obj
 0001:000c0820       ?ScrollToRectEx@ImGui@@YA?AUImVec2@@PEAUImGuiWindow@@AEBUImRect@@H@Z 00000001400c1820 f   zenithtools:imgui.obj
 0001:000c0c60       ?SetActiveID@ImGui@@YAXIPEAUImGuiWindow@@@Z 00000001400c1c60 f   zenithtools:imgui.obj
 0001:000c0dc0       ?SetClipboardText@ImGui@@YAXPEBD@Z 00000001400c1dc0 f   zenithtools:imgui.obj
 0001:000c0ec0       ?SetCurrentFont@ImGui@@YAXPEAUImFont@@@Z 00000001400c1ec0 f   zenithtools:imgui.obj
 0001:000c1070       ?SetFocusID@ImGui@@YAXIPEAUImGuiWindow@@@Z 00000001400c2070 f   zenithtools:imgui.obj
 0001:000c11c0       ?SetHoveredID@ImGui@@YAXI@Z 00000001400c21c0 f   zenithtools:imgui.obj
 0001:000c11f0       ?SetInt@ImGuiStorage@@QEAAXIH@Z 00000001400c21f0 f   zenithtools:imgui.obj
 0001:000c1290       ?SetKeyEventNativeData@ImGuiIO@@QEAAXW4ImGuiKey@@HHH@Z 00000001400c2290 f   zenithtools:imgui.obj
 0001:000c12c0       ?SetKeyOwner@ImGui@@YAXW4ImGuiKey@@IH@Z 00000001400c22c0 f   zenithtools:imgui.obj
 0001:000c1350       ?SetKeyOwnersForKeyChord@ImGui@@YAXHIH@Z 00000001400c2350 f   zenithtools:imgui.obj
 0001:000c15c0       ?SetNavFocusScope@ImGui@@YAXI@Z 00000001400c25c0 f   zenithtools:imgui.obj
 0001:000c1780       ?SetNavID@ImGui@@YAXIW4ImGuiNavLayer@@IAEBUImRect@@@Z 00000001400c2780 f   zenithtools:imgui.obj
 0001:000c1850       ?SetNavWindow@ImGui@@YAXPEAUImGuiWindow@@@Z 00000001400c2850 f   zenithtools:imgui.obj
 0001:000c1900       ?SetScrollY@ImGui@@YAXPEAUImGuiWindow@@M@Z 00000001400c2900 f   zenithtools:imgui.obj
 0001:000c1920       ?SetShortcutRouting@ImGui@@YA_NHHI@Z 00000001400c2920 f   zenithtools:imgui.obj
 0001:000c1bd0       ?SetTooltip@ImGui@@YAXPEBDZZ 00000001400c2bd0 f   zenithtools:imgui.obj
 0001:000c1c20       ?SetWindowPos@ImGui@@YAXPEAUImGuiWindow@@AEBUImVec2@@H@Z 00000001400c2c20 f   zenithtools:imgui.obj
 0001:000c1d80       ?SetWindowSize@ImGui@@YAXPEAUImGuiWindow@@AEBUImVec2@@H@Z 00000001400c2d80 f   zenithtools:imgui.obj
 0001:000c1eb0       ?Shortcut@ImGui@@YA_NHHI@Z 00000001400c2eb0 f   zenithtools:imgui.obj
 0001:000c1f60       ?StartMouseMovingWindow@ImGui@@YAXPEAUImGuiWindow@@@Z 00000001400c2f60 f   zenithtools:imgui.obj
 0001:000c2040       ?TestKeyOwner@ImGui@@YA_NW4ImGuiKey@@I@Z 00000001400c3040 f   zenithtools:imgui.obj
 0001:000c20f0       ?Unindent@ImGui@@YAXM@Z    00000001400c30f0 f   zenithtools:imgui.obj
 0001:000c2370       ?UpdateHoveredWindowAndCaptureFlags@ImGui@@YAXXZ 00000001400c3370 f   zenithtools:imgui.obj
 0001:000c2800       ?UpdateInputEvents@ImGui@@YAX_N@Z 00000001400c3800 f   zenithtools:imgui.obj
 0001:000c3c80       ?UpdateMouseMovingWindowEndFrame@ImGui@@YAXXZ 00000001400c4c80 f   zenithtools:imgui.obj
 0001:000c5d30       ?append@ImGuiTextBuffer@@QEAAXPEBD0@Z 00000001400c6d30 f   zenithtools:imgui.obj
 0001:000c5e20       ?appendf@ImGuiTextBuffer@@QEAAXPEBDZZ 00000001400c6e20 f   zenithtools:imgui.obj
 0001:000c5e50       ?appendfv@ImGuiTextBuffer@@QEAAXPEBDPEAD@Z 00000001400c6e50 f   zenithtools:imgui.obj
 0001:000c5f60       ?clear_destruct@?$ImVector@UImGuiMultiSelectTempData@@@@QEAAXXZ 00000001400c6f60 f i zenithtools:imgui.obj
 0001:000c5fd0       ?insert@?$ImVector@UImGuiStoragePair@@@@QEAAPEAUImGuiStoragePair@@PEBU2@AEBU2@@Z 00000001400c6fd0 f i zenithtools:imgui.obj
 0001:000c60d0       ?push_back@?$ImVector@H@@QEAAXAEBH@Z 00000001400c70d0 f i zenithtools:imgui.obj
 0001:000c6130       ?push_back@?$ImVector@UImGuiColorMod@@@@QEAAXAEBUImGuiColorMod@@@Z 00000001400c7130 f i zenithtools:imgui.obj
 0001:000c61f0       ?push_back@?$ImVector@UImGuiInputEvent@@@@QEAAXAEBUImGuiInputEvent@@@Z 00000001400c71f0 f i zenithtools:imgui.obj
 0001:000c62b0       ?push_back@?$ImVector@UImDrawCmd@@@@QEAAXAEBUImDrawCmd@@@Z 00000001400c72b0 f i zenithtools:imgui_draw.obj
 0001:000c62b0       ?push_back@?$ImVector@UImGuiPopupData@@@@QEAAXAEBUImGuiPopupData@@@Z 00000001400c72b0 f i zenithtools:imgui.obj
 0001:000c6370       ?push_back@?$ImVector@UImGuiStyleMod@@@@QEAAXAEBUImGuiStyleMod@@@Z 00000001400c7370 f i zenithtools:imgui.obj
 0001:000c6430       ?push_front@?$ImVector@UImDrawCmd@@@@QEAAXAEBUImDrawCmd@@@Z 00000001400c7430 f i zenithtools:imgui.obj
 0001:000c65a0       ?reserve@?$ImVector@D@@QEAAXH@Z 00000001400c75a0 f i zenithtools:imgui.obj
 0001:000c6600       ?reserve@?$ImVector@H@@QEAAXH@Z 00000001400c7600 f i zenithtools:imgui.obj
 0001:000c6600       ?reserve@?$ImVector@I@@QEAAXH@Z 00000001400c7600 f i zenithtools:imgui.obj
 0001:000c6600       ?reserve@?$ImVector@M@@QEAAXH@Z 00000001400c7600 f i zenithtools:imgui.obj
 0001:000c6670       ?reserve@?$ImVector@PEAUImDrawList@@@@QEAAXH@Z 00000001400c7670 f i zenithtools:imgui_draw.obj
 0001:000c6670       ?reserve@?$ImVector@PEAUImGuiWindow@@@@QEAAXH@Z 00000001400c7670 f i zenithtools:imgui.obj
 0001:000c6670       ?reserve@?$ImVector@PEAX@@QEAAXH@Z 00000001400c7670 f i zenithtools:imgui_draw.obj
 0001:000c6670       ?reserve@?$ImVector@UImGuiFocusScopeData@@@@QEAAXH@Z 00000001400c7670 f i zenithtools:imgui.obj
 0001:000c6670       ?reserve@?$ImVector@UImVec2@@@@QEAAXH@Z 00000001400c7670 f i zenithtools:imgui_draw.obj
 0001:000c66e0       ?reserve@?$ImVector@UImGuiKeyRoutingData@@@@QEAAXH@Z 00000001400c76e0 f i zenithtools:imgui.obj
 0001:000c66e0       ?reserve@?$ImVector@UImVec4@@@@QEAAXH@Z 00000001400c76e0 f i zenithtools:imgui_draw.obj
 0001:000c6750       ?reserve@?$ImVector@UImGuiStackLevelInfo@@@@QEAAXH@Z 00000001400c7750 f i zenithtools:imgui.obj
 0001:000c67c0       ?resize@?$ImVector@D@@QEAAXH@Z 00000001400c77c0 f i zenithtools:imgui.obj
 0001:000c6870       ?resize@?$ImVector@G@@QEAAXH@Z 00000001400c7870 f i zenithtools:imgui.obj
 0001:000c6920       ?resize@?$ImVector@PEAUImDrawList@@@@QEAAXH@Z 00000001400c7920 f i zenithtools:imgui.obj
 0001:000c69d0       ?resize@?$ImVector@UImDrawCmd@@@@QEAAXH@Z 00000001400c79d0 f i zenithtools:imgui_draw.obj
 0001:000c69d0       ?resize@?$ImVector@UImGuiGroupData@@@@QEAAXH@Z 00000001400c79d0 f i zenithtools:imgui.obj
 0001:000c69d0       ?resize@?$ImVector@UImGuiPopupData@@@@QEAAXH@Z 00000001400c79d0 f i zenithtools:imgui.obj
 0001:000c6a80       ?resize@?$ImVector@UImGuiInputEvent@@@@QEAAXH@Z 00000001400c7a80 f i zenithtools:imgui.obj
 0001:000c6b30       __local_stdio_scanf_options 00000001400c7b30 f i zenithtools:imgui.obj
 0001:000c6b40       sscanf                     00000001400c7b40 f i zenithtools:imgui.obj
 0001:000c6ba0       ??$RoundScalarWithFormatT@H@ImGui@@YAHPEBDHH@Z 00000001400c7ba0 f i zenithtools:imgui_widgets.obj
 0001:000c6cc0       ??$RoundScalarWithFormatT@I@ImGui@@YAIPEBDHI@Z 00000001400c7cc0 f i zenithtools:imgui_widgets.obj
 0001:000c6de0       ??$RoundScalarWithFormatT@M@ImGui@@YAMPEBDHM@Z 00000001400c7de0 f i zenithtools:imgui_widgets.obj
 0001:000c6f10       ??$RoundScalarWithFormatT@N@ImGui@@YANPEBDHN@Z 00000001400c7f10 f i zenithtools:imgui_widgets.obj
 0001:000c7030       ??$RoundScalarWithFormatT@_J@ImGui@@YA_JPEBDH_J@Z 00000001400c8030 f i zenithtools:imgui_widgets.obj
 0001:000c7150       ??$RoundScalarWithFormatT@_K@ImGui@@YA_KPEBDH_K@Z 00000001400c8150 f i zenithtools:imgui_widgets.obj
 0001:000c72a0       ??$ScaleRatioFromValueT@HHM@ImGui@@YAMHHHH_NMM@Z 00000001400c82a0 f i zenithtools:imgui_widgets.obj
 0001:000c75b0       ??$ScaleRatioFromValueT@IHM@ImGui@@YAMHIII_NMM@Z 00000001400c85b0 f i zenithtools:imgui_widgets.obj
 0001:000c78d0       ??$ScaleRatioFromValueT@MMM@ImGui@@YAMHMMM_NMM@Z 00000001400c88d0 f i zenithtools:imgui_widgets.obj
 0001:000c7bc0       ??$ScaleRatioFromValueT@NNN@ImGui@@YAMHNNN_NMM@Z 00000001400c8bc0 f i zenithtools:imgui_widgets.obj
 0001:000c7f10       ??$ScaleRatioFromValueT@_J_JN@ImGui@@YAMH_J00_NMM@Z 00000001400c8f10 f i zenithtools:imgui_widgets.obj
 0001:000c8280       ??$ScaleRatioFromValueT@_K_JN@ImGui@@YAMH_K00_NMM@Z 00000001400c9280 f i zenithtools:imgui_widgets.obj
 0001:000c86d0       ??$ScaleValueFromRatioT@HHM@ImGui@@YAHHMHH_NMM@Z 00000001400c96d0 f i zenithtools:imgui_widgets.obj
 0001:000c8960       ??$ScaleValueFromRatioT@IHM@ImGui@@YAIHMII_NMM@Z 00000001400c9960 f i zenithtools:imgui_widgets.obj
 0001:000c8c10       ??$ScaleValueFromRatioT@MMM@ImGui@@YAMHMMM_NMM@Z 00000001400c9c10 f i zenithtools:imgui_widgets.obj
 0001:000c8e70       ??$ScaleValueFromRatioT@NNN@ImGui@@YANHMNN_NMM@Z 00000001400c9e70 f i zenithtools:imgui_widgets.obj
 0001:000c9130       ??$ScaleValueFromRatioT@_J_JN@ImGui@@YA_JHM_J0_NMM@Z 00000001400ca130 f i zenithtools:imgui_widgets.obj
 0001:000c93e0       ??$ScaleValueFromRatioT@_K_JN@ImGui@@YA_KHM_K0_NMM@Z 00000001400ca3e0 f i zenithtools:imgui_widgets.obj
 0001:000c97d0       ??$SliderBehaviorT@HHM@ImGui@@YA_NAEBUImRect@@IHPEAHHHPEBDHPEAU1@@Z 00000001400ca7d0 f i zenithtools:imgui_widgets.obj
 0001:000c9fb0       ??$SliderBehaviorT@IHM@ImGui@@YA_NAEBUImRect@@IHPEAIIIPEBDHPEAU1@@Z 00000001400cafb0 f i zenithtools:imgui_widgets.obj
 0001:000ca790       ??$SliderBehaviorT@MMM@ImGui@@YA_NAEBUImRect@@IHPEAMMMPEBDHPEAU1@@Z 00000001400cb790 f i zenithtools:imgui_widgets.obj
 0001:000cb010       ??$SliderBehaviorT@NNN@ImGui@@YA_NAEBUImRect@@IHPEANNNPEBDHPEAU1@@Z 00000001400cc010 f i zenithtools:imgui_widgets.obj
 0001:000cb880       ??$SliderBehaviorT@_J_JN@ImGui@@YA_NAEBUImRect@@IHPEA_J_J2PEBDHPEAU1@@Z 00000001400cc880 f i zenithtools:imgui_widgets.obj
 0001:000cc070       ??$SliderBehaviorT@_K_JN@ImGui@@YA_NAEBUImRect@@IHPEA_K_K2PEBDHPEAU1@@Z 00000001400cd070 f i zenithtools:imgui_widgets.obj
 0001:000cc930       ?Button@ImGui@@YA_NPEBDAEBUImVec2@@@Z 00000001400cd930 f   zenithtools:imgui_widgets.obj
 0001:000cc940       ?ButtonBehavior@ImGui@@YA_NAEBUImRect@@IPEA_N1H@Z 00000001400cd940 f   zenithtools:imgui_widgets.obj
 0001:000ccfc0       ?ButtonEx@ImGui@@YA_NPEBDAEBUImVec2@@H@Z 00000001400cdfc0 f   zenithtools:imgui_widgets.obj
 0001:000cd250       ?Checkbox@ImGui@@YA_NPEBDPEA_N@Z 00000001400ce250 f   zenithtools:imgui_widgets.obj
 0001:000cd710       ?CloseButton@ImGui@@YA_NIAEBUImVec2@@@Z 00000001400ce710 f   zenithtools:imgui_widgets.obj
 0001:000cd9e0       ?CollapseButton@ImGui@@YA_NIAEBUImVec2@@@Z 00000001400ce9e0 f   zenithtools:imgui_widgets.obj
 0001:000cdb90       ?CollapsingHeader@ImGui@@YA_NPEBDH@Z 00000001400ceb90 f   zenithtools:imgui_widgets.obj
 0001:000cdc00       ?DataTypeApplyFromText@ImGui@@YA_NPEBDHPEAX01@Z 00000001400cec00 f   zenithtools:imgui_widgets.obj
 0001:000cde40       ?DataTypeCompare@ImGui@@YAHHPEBX0@Z 00000001400cee40 f   zenithtools:imgui_widgets.obj
 0001:000cdf70       ?DataTypeFormatString@ImGui@@YAHPEADHHPEBXPEBD@Z 00000001400cef70 f   zenithtools:imgui_widgets.obj
 0001:000ce050       ?Dummy@ImGui@@YAXAEBUImVec2@@@Z 00000001400cf050 f   zenithtools:imgui_widgets.obj
 0001:000ce0e0       ?ImParseFormatFindEnd@@YAPEBDPEBD@Z 00000001400cf0e0 f   zenithtools:imgui_widgets.obj
 0001:000ce140       ?ImParseFormatPrecision@@YAHPEBDH@Z 00000001400cf140 f   zenithtools:imgui_widgets.obj
 0001:000ce240       ?Image@ImGui@@YAXPEAXAEBUImVec2@@11AEBUImVec4@@2@Z 00000001400cf240 f   zenithtools:imgui_widgets.obj
 0001:000ce430       ?InputTextDeactivateHook@ImGui@@YAXI@Z 00000001400cf430 f   zenithtools:imgui_widgets.obj
 0001:000ce4a0       ?InputTextEx@ImGui@@YA_NPEBD0PEADHAEBUImVec2@@HP6AHPEAUImGuiInputTextCallbackData@@@ZPEAX@Z 00000001400cf4a0 f   zenithtools:imgui_widgets.obj
 0001:000d1610       ?MultiSelectAddSetAll@ImGui@@YAXPEAUImGuiMultiSelectTempData@@_N@Z 00000001400d2610 f   zenithtools:imgui_widgets.obj
 0001:000d16a0       ?MultiSelectAddSetRange@ImGui@@YAXPEAUImGuiMultiSelectTempData@@_NH_J2@Z 00000001400d26a0 f   zenithtools:imgui_widgets.obj
 0001:000d1790       ?MultiSelectItemFooter@ImGui@@YAXIPEA_N0@Z 00000001400d2790 f   zenithtools:imgui_widgets.obj
 0001:000d1cf0       ?MultiSelectItemHeader@ImGui@@YAXIPEA_NPEAH@Z 00000001400d2cf0 f   zenithtools:imgui_widgets.obj
 0001:000d23a0       ?Scrollbar@ImGui@@YAXW4ImGuiAxis@@@Z 00000001400d33a0 f   zenithtools:imgui_widgets.obj
 0001:000d2550       ?ScrollbarEx@ImGui@@YA_NAEBUImRect@@IW4ImGuiAxis@@PEA_J_J3H@Z 00000001400d3550 f   zenithtools:imgui_widgets.obj
 0001:000d2b40       ?Selectable@ImGui@@YA_NPEBD_NHAEBUImVec2@@@Z 00000001400d3b40 f   zenithtools:imgui_widgets.obj
 0001:000d3210       ?SeparatorText@ImGui@@YAXPEBD@Z 00000001400d4210 f   zenithtools:imgui_widgets.obj
 0001:000d3260       ?SeparatorTextEx@ImGui@@YAXIPEBD0M@Z 00000001400d4260 f   zenithtools:imgui_widgets.obj
 0001:000d3630       ?SliderBehavior@ImGui@@YA_NAEBUImRect@@IHPEAXPEBX2PEBDHPEAU2@@Z 00000001400d4630 f   zenithtools:imgui_widgets.obj
 0001:000d39e0       ?SliderFloat3@ImGui@@YA_NPEBDQEAMMM0H@Z 00000001400d49e0 f   zenithtools:imgui_widgets.obj
 0001:000d3a30       ?SliderFloat4@ImGui@@YA_NPEBDQEAMMM0H@Z 00000001400d4a30 f   zenithtools:imgui_widgets.obj
 0001:000d3a80       ?SliderFloat@ImGui@@YA_NPEBDPEAMMM0H@Z 00000001400d4a80 f   zenithtools:imgui_widgets.obj
 0001:000d3ad0       ?SliderInt@ImGui@@YA_NPEBDPEAHHH0H@Z 00000001400d4ad0 f   zenithtools:imgui_widgets.obj
 0001:000d3b20       ?SliderScalar@ImGui@@YA_NPEBDHPEAXPEBX20H@Z 00000001400d4b20 f   zenithtools:imgui_widgets.obj
 0001:000d3fd0       ?SliderScalarN@ImGui@@YA_NPEBDHPEAXHPEBX20H@Z 00000001400d4fd0 f   zenithtools:imgui_widgets.obj
 0001:000d4170       ?TempInputScalar@ImGui@@YA_NAEBUImRect@@IPEBDHPEAX1PEBX3@Z 00000001400d5170 f   zenithtools:imgui_widgets.obj
 0001:000d45c0       ?Text@ImGui@@YAXPEBDZZ     00000001400d55c0 f   zenithtools:imgui_widgets.obj
 0001:000d4630       ?TextColored@ImGui@@YAXAEBUImVec4@@PEBDZZ 00000001400d5630 f   zenithtools:imgui_widgets.obj
 0001:000d46c0       ?TextEx@ImGui@@YAXPEBD0H@Z 00000001400d56c0 f   zenithtools:imgui_widgets.obj
 0001:000d4b20       ?TextV@ImGui@@YAXPEBDPEAD@Z 00000001400d5b20 f   zenithtools:imgui_widgets.obj
 0001:000d4b80       ?TreeNodeBehavior@ImGui@@YA_NIHPEBD0@Z 00000001400d5b80 f   zenithtools:imgui_widgets.obj
 0001:000d5820       ?TreePushOverrideID@ImGui@@YAXI@Z 00000001400d6820 f   zenithtools:imgui_widgets.obj
 0001:000d5860       ?Update@ImGuiMenuColumns@@QEAAXM_N@Z 00000001400d6860 f   zenithtools:imgui_widgets.obj
 0001:000d5a30       ?reserve@?$ImVector@UImGuiSelectionRequest@@@@QEAAXH@Z 00000001400d6a30 f i zenithtools:imgui_widgets.obj
 0001:000d7430       ??0ImDrawListSharedData@@QEAA@XZ 00000001400d8430 f   zenithtools:imgui_draw.obj
 0001:000d74f0       ??0ImFont@@QEAA@XZ         00000001400d84f0 f   zenithtools:imgui_draw.obj
 0001:000d7550       ??0ImFontAtlas@@QEAA@XZ    00000001400d8550 f   zenithtools:imgui_draw.obj
 0001:000d75d0       ?AddConvexPolyFilled@ImDrawList@@QEAAXPEBUImVec2@@HI@Z 00000001400d85d0 f   zenithtools:imgui_draw.obj
 0001:000d7b90       ?AddDrawCmd@ImDrawList@@QEAAXXZ 00000001400d8b90 f   zenithtools:imgui_draw.obj
 0001:000d7be0       ?AddDrawListToDrawDataEx@ImGui@@YAXPEAUImDrawData@@PEAU?$ImVector@PEAUImDrawList@@@@PEAUImDrawList@@@Z 00000001400d8be0 f   zenithtools:imgui_draw.obj
 0001:000d7c80       ?AddFont@ImFontAtlas@@QEAAPEAUImFont@@PEBUImFontConfig@@@Z 00000001400d8c80 f   zenithtools:imgui_draw.obj
 0001:000d7f90       ?AddFontDefault@ImFontAtlas@@QEAAPEAUImFont@@PEBUImFontConfig@@@Z 00000001400d8f90 f   zenithtools:imgui_draw.obj
 0001:000d8240       ?AddFontFromMemoryCompressedTTF@ImFontAtlas@@QEAAPEAUImFont@@PEBXHMPEBUImFontConfig@@PEBG@Z 00000001400d9240 f   zenithtools:imgui_draw.obj
 0001:000d84c0       ?AddGlyph@ImFont@@QEAAXPEBUImFontConfig@@GMMMMMMMMM@Z 00000001400d94c0 f   zenithtools:imgui_draw.obj
 0001:000d86c0       ?AddImage@ImDrawList@@QEAAXPEAXAEBUImVec2@@111I@Z 00000001400d96c0 f   zenithtools:imgui_draw.obj
 0001:000d8790       ?AddLine@ImDrawList@@QEAAXAEBUImVec2@@0IM@Z 00000001400d9790 f   zenithtools:imgui_draw.obj
 0001:000d8860       ?AddPolyline@ImDrawList@@QEAAXPEBUImVec2@@HIHM@Z 00000001400d9860 f   zenithtools:imgui_draw.obj
 0001:000d97a0       ?AddRect@ImDrawList@@QEAAXAEBUImVec2@@0IMHM@Z 00000001400da7a0 f   zenithtools:imgui_draw.obj
 0001:000d98b0       ?AddRectFilled@ImDrawList@@QEAAXAEBUImVec2@@0IMH@Z 00000001400da8b0 f   zenithtools:imgui_draw.obj
 0001:000d9a50       ?AddText@ImDrawList@@QEAAXAEBUImVec2@@IPEBD1@Z 00000001400daa50 f   zenithtools:imgui_draw.obj
 0001:000d9ae0       ?AddText@ImDrawList@@QEAAXPEBUImFont@@MAEBUImVec2@@IPEBD2MPEBUImVec4@@@Z 00000001400daae0 f   zenithtools:imgui_draw.obj
 0001:000d9c00       ?BuildLookupTable@ImFont@@QEAAXXZ 00000001400dac00 f   zenithtools:imgui_draw.obj
 0001:000da1b0       ?CalcTextSizeA@ImFont@@QEBA?AUImVec2@@MMMPEBD0PEAPEBD@Z 00000001400db1b0 f   zenithtools:imgui_draw.obj
 0001:000da400       ?CalcWordWrapPositionA@ImFont@@QEBAPEBDMPEBD0M@Z 00000001400db400 f   zenithtools:imgui_draw.obj
 0001:000da5c0       ?Clear@ImDrawData@@QEAAXXZ 00000001400db5c0 f   zenithtools:imgui_draw.obj
 0001:000da630       ?ClearFreeMemory@ImDrawListSplitter@@QEAAXXZ 00000001400db630 f   zenithtools:imgui_draw.obj
 0001:000da6f0       ?ClearOutputData@ImFont@@QEAAXXZ 00000001400db6f0 f   zenithtools:imgui_draw.obj
 0001:000da770       ?FindGlyph@ImFont@@QEBAPEBUImFontGlyph@@G@Z 00000001400db770 f   zenithtools:imgui_draw.obj
 0001:000da7a0       ?GetMouseCursorTexData@ImFontAtlas@@QEAA_NHPEAUImVec2@@0QEAU2@1@Z 00000001400db7a0 f   zenithtools:imgui_draw.obj
 0001:000da8a0       ?GetTexDataAsRGBA32@ImFontAtlas@@QEAAXPEAPEAEPEAH11@Z 00000001400db8a0 f   zenithtools:imgui_draw.obj
 0001:000da9b0       ?GrowIndex@ImFont@@QEAAXH@Z 00000001400db9b0 f   zenithtools:imgui_draw.obj
 0001:000dc4b0       ?Merge@ImDrawListSplitter@@QEAAXPEAUImDrawList@@@Z 00000001400dd4b0 f   zenithtools:imgui_draw.obj
 0001:000dc9a0       ?PathArcTo@ImDrawList@@QEAAXAEBUImVec2@@MMMH@Z 00000001400dd9a0 f   zenithtools:imgui_draw.obj
 0001:000dcd80       ?PathArcToFast@ImDrawList@@QEAAXAEBUImVec2@@MHH@Z 00000001400ddd80 f   zenithtools:imgui_draw.obj
 0001:000dce20       ?PathRect@ImDrawList@@QEAAXAEBUImVec2@@0MH@Z 00000001400dde20 f   zenithtools:imgui_draw.obj
 0001:000dd1f0       ?PopClipRect@ImDrawList@@QEAAXXZ 00000001400de1f0 f   zenithtools:imgui_draw.obj
 0001:000dd230       ?PopTextureID@ImDrawList@@QEAAXXZ 00000001400de230 f   zenithtools:imgui_draw.obj
 0001:000dd270       ?PrimRectUV@ImDrawList@@QEAAXAEBUImVec2@@000I@Z 00000001400de270 f   zenithtools:imgui_draw.obj
 0001:000dd3c0       ?PrimReserve@ImDrawList@@QEAAXHH@Z 00000001400de3c0 f   zenithtools:imgui_draw.obj
 0001:000dd4c0       ?PushClipRect@ImDrawList@@QEAAXAEBUImVec2@@0_N@Z 00000001400de4c0 f   zenithtools:imgui_draw.obj
 0001:000dd5c0       ?PushTextureID@ImDrawList@@QEAAXPEAX@Z 00000001400de5c0 f   zenithtools:imgui_draw.obj
 0001:000dd640       ?RenderArrow@ImGui@@YAXPEAUImDrawList@@UImVec2@@IW4ImGuiDir@@M@Z 00000001400de640 f   zenithtools:imgui_draw.obj
 0001:000dd850       ?RenderBullet@ImGui@@YAXPEAUImDrawList@@UImVec2@@I@Z 00000001400de850 f   zenithtools:imgui_draw.obj
 0001:000dd8d0       ?RenderChar@ImFont@@QEBAXPEAUImDrawList@@MAEBUImVec2@@IG@Z 00000001400de8d0 f   zenithtools:imgui_draw.obj
 0001:000dda80       ?RenderCheckMark@ImGui@@YAXPEAUImDrawList@@UImVec2@@IM@Z 00000001400dea80 f   zenithtools:imgui_draw.obj
 0001:000ddca0       ?RenderText@ImFont@@QEBAXPEAUImDrawList@@MAEBUImVec2@@IAEBUImVec4@@PEBD3M_N@Z 00000001400deca0 f   zenithtools:imgui_draw.obj
 0001:000de380       ?SetCircleTessellationMaxError@ImDrawListSharedData@@QEAAXM@Z 00000001400df380 f   zenithtools:imgui_draw.obj
 0001:000de490       ?SetCurrentChannel@ImDrawListSplitter@@QEAAXPEAUImDrawList@@H@Z 00000001400df490 f   zenithtools:imgui_draw.obj
 0001:000de5b0       ?StyleColorsDark@ImGui@@YAXPEAUImGuiStyle@@@Z 00000001400df5b0 f   zenithtools:imgui_draw.obj
 0001:000deaf0       ?_CalcCircleAutoSegmentCount@ImDrawList@@QEBAHM@Z 00000001400dfaf0 f   zenithtools:imgui_draw.obj
 0001:000debb0       ?_ClearFreeMemory@ImDrawList@@QEAAXXZ 00000001400dfbb0 f   zenithtools:imgui_draw.obj
 0001:000dec80       ?_OnChangedClipRect@ImDrawList@@QEAAXXZ 00000001400dfc80 f   zenithtools:imgui_draw.obj
 0001:000ded60       ?_OnChangedTextureID@ImDrawList@@QEAAXXZ 00000001400dfd60 f   zenithtools:imgui_draw.obj
 0001:000dee30       ?_PathArcToFastEx@ImDrawList@@QEAAXAEBUImVec2@@MHHH@Z 00000001400dfe30 f   zenithtools:imgui_draw.obj
 0001:000df120       ?_PathArcToN@ImDrawList@@QEAAXAEBUImVec2@@MMMH@Z 00000001400e0120 f   zenithtools:imgui_draw.obj
 0001:000df2d0       ?_PopUnusedDrawCmd@ImDrawList@@QEAAXXZ 00000001400e02d0 f   zenithtools:imgui_draw.obj
 0001:000df310       ?_ResetForNewFrame@ImDrawList@@QEAAXXZ 00000001400e0310 f   zenithtools:imgui_draw.obj
 0001:000df460       ?push_back@?$ImVector@UImFontAtlasCustomRect@@@@QEAAXAEBUImFontAtlasCustomRect@@@Z 00000001400e0460 f i zenithtools:imgui_draw.obj
 0001:000df510       ?push_back@?$ImVector@UImVec2@@@@QEAAXAEBUImVec2@@@Z 00000001400e0510 f i zenithtools:imgui_draw.obj
 0001:000df5c0       ?reserve_discard@?$ImVector@UImVec2@@@@QEAAXH@Z 00000001400e05c0 f i zenithtools:imgui_draw.obj
 0001:000df610       ?resize@?$ImVector@I@@QEAAXH@Z 00000001400e0610 f i zenithtools:imgui_draw.obj
 0001:000df6c0       ?resize@?$ImVector@UImDrawVert@@@@QEAAXH@Z 00000001400e06c0 f i zenithtools:imgui_draw.obj
 0001:000df780       ?resize@?$ImVector@UImFontGlyph@@@@QEAAXH@Z 00000001400e0780 f i zenithtools:imgui_draw.obj
 0001:000e62e0       ?ImGui_ImplVulkan_CreateDeviceObjects@@YA_NXZ 00000001400e72e0 f   zenithtools:imgui_impl_vulkan.obj
 0001:000e6530       ?ImGui_ImplVulkan_CreateFontsTexture@@YA_NXZ 00000001400e7530 f   zenithtools:imgui_impl_vulkan.obj
 0001:000e74a0       ?ImGui_ImplVulkan_DestroyFontsTexture@@YAXXZ 00000001400e84a0 f   zenithtools:imgui_impl_vulkan.obj
 0001:000e75a0       ?ImGui_ImplVulkan_Init@@YA_NPEAUImGui_ImplVulkan_InitInfo@@@Z 00000001400e85a0 f   zenithtools:imgui_impl_vulkan.obj
 0001:000e77c0       ?ImGui_ImplVulkan_NewFrame@@YAXXZ 00000001400e87c0 f   zenithtools:imgui_impl_vulkan.obj
 0001:000e7800       ?ImGui_ImplVulkan_RenderDrawData@@YAXPEAUImDrawData@@PEAUVkCommandBuffer_T@@PEAUVkPipeline_T@@@Z 00000001400e8800 f   zenithtools:imgui_impl_vulkan.obj
 0001:000e8040       ?ImGui_ImplGlfw_CharCallback@@YAXPEAUGLFWwindow@@I@Z 00000001400e9040 f   zenithtools:imgui_impl_glfw.obj
 0001:000e80d0       ?ImGui_ImplGlfw_CursorEnterCallback@@YAXPEAUGLFWwindow@@H@Z 00000001400e90d0 f   zenithtools:imgui_impl_glfw.obj
 0001:000e8190       ?ImGui_ImplGlfw_CursorPosCallback@@YAXPEAUGLFWwindow@@NN@Z 00000001400e9190 f   zenithtools:imgui_impl_glfw.obj
 0001:000e8510       ?ImGui_ImplGlfw_InitForVulkan@@YA_NPEAUGLFWwindow@@_N@Z 00000001400e9510 f   zenithtools:imgui_impl_glfw.obj
 0001:000e8520       ?ImGui_ImplGlfw_KeyCallback@@YAXPEAUGLFWwindow@@HHHH@Z 00000001400e9520 f   zenithtools:imgui_impl_glfw.obj
 0001:000e8d00       ?ImGui_ImplGlfw_MouseButtonCallback@@YAXPEAUGLFWwindow@@HHH@Z 00000001400e9d00 f   zenithtools:imgui_impl_glfw.obj
 0001:000e8dc0       ?ImGui_ImplGlfw_NewFrame@@YAXXZ 00000001400e9dc0 f   zenithtools:imgui_impl_glfw.obj
 0001:000e8fe0       ?ImGui_ImplGlfw_ScrollCallback@@YAXPEAUGLFWwindow@@NN@Z 00000001400e9fe0 f   zenithtools:imgui_impl_glfw.obj
 0001:000e95f0       ?ImGui_ImplGlfw_WindowFocusCallback@@YAXPEAUGLFWwindow@@H@Z 00000001400ea5f0 f   zenithtools:imgui_impl_glfw.obj
 0001:000e97b0       ??$?_0V?$basic_string_view@_WU?$char_traits@_W@std@@@std@@$0A@@path@filesystem@std@@QEAAAEAV012@AEBV?$basic_string_view@_WU?$char_traits@_W@std@@@2@@Z 00000001400ea7b0 f i zenithtools:Zenith_Tools_MeshExport.obj
 0001:000e9840       ??$_Construct@$00PEB_W@?$basic_string@_WU?$char_traits@_W@std@@V?$allocator@_W@2@@std@@AEAAXQEB_W_K@Z 00000001400ea840 f i zenithtools:Zenith_Tools_MeshExport.obj
 0001:000e9970       ??$_Convert_stringoid_to_wide@U_Normal_conversion@filesystem@std@@@filesystem@std@@YA?AV?$basic_string@_WU?$char_traits@_W@std@@V?$allocator@_W@2@@1@V?$basic_string_view@DU?$char_traits@D@std@@@1@U_Normal_conversion@01@@Z 00000001400ea970 f i zenithtools:Zenith_Tools_MeshExport.obj
 0001:000e9a70       ??$_Destroy_range@V?$allocator@U_Find_file_handle@filesystem@std@@@std@@@std@@YAXPEAU_Find_file_handle@filesystem@0@QEAU120@AEAV?$allocator@U_Find_file_handle@filesystem@std@@@0@@Z 00000001400eaa70 f i zenithtools:Zenith_Tools_MeshExport.obj
 0001:000e9ab0       ??$_Emplace_reallocate@U_Find_file_handle@filesystem@std@@@?$vector@U_Find_file_handle@filesystem@std@@V?$allocator@U_Find_file_handle@filesystem@std@@@3@@std@@AEAAPEAU_Find_file_handle@filesystem@1@QEAU231@$$QEAU231@@Z 00000001400eaab0 f i zenithtools:Zenith_Tools_MeshExport.obj
 0001:000e9df0       ??$_Reallocate_for@V<lambda_1>@?1??assign@?$basic_string@_WU?$char_traits@_W@std@@V?$allocator@_W@2@@std@@QEAAAEAV34@QEB_W_K@Z@PEB_W@?$basic_string@_WU?$char_traits@_W@std@@V?$allocator@_W@2@@std@@AEAAAEAV01@_KV<lambda_1>@?1??assign@01@QEAAAEAV01@QEB_W0@Z@PEB_W@Z 00000001400eadf0 f i zenithtools:Zenith_Tools_MeshExport.obj
 0001:000e9f50       ??$_Reallocate_grow_by@V<lambda_1>@?1??append@?$basic_string@_WU?$char_traits@_W@std@@V?$allocator@_W@2@@std@@QEAAAEAV34@QEB_W_K@Z@PEB_W_K@?$basic_string@_WU?$char_traits@_W@std@@V?$allocator@_W@2@@std@@AEAAAEAV01@_KV<lambda_1>@?1??append@01@QEAAAEAV01@QEB_W0@Z@PEB_W_K@Z 00000001400eaf50 f i zenithtools:Zenith_Tools_MeshExport.obj
 0001:000ea110       ??$_Reallocate_grow_by@V<lambda_1>@?1??append@?$basic_string@_WU?$char_traits@_W@std@@V?$allocator@_W@2@@std@@QEAAAEAV34@_K_W@Z@_K_W@?$basic_string@_WU?$char_traits@_W@std@@V?$allocator@_W@2@@std@@AEAAAEAV01@_KV<lambda_1>@?1??append@01@QEAAAEAV01@0_W@Z@_K_W@Z 00000001400eb110 f i zenithtools:Zenith_Tools_MeshExport.obj
 0001:000ea2d0       ??$_Reallocate_grow_by@V<lambda_1>@?1??push_back@?$basic_string@_WU?$char_traits@_W@std@@V?$allocator@_W@2@@std@@QEAAX_W@Z@_W@?$basic_string@_WU?$char_traits@_W@std@@V?$allocator@_W@2@@std@@AEAAAEAV01@_KV<lambda_1>@?1??push_back@01@QEAAX_W@Z@_W@Z 00000001400eb2d0 f i zenithtools:Zenith_Tools_MeshExport.obj
 0001:000ea460       ??$_Reallocate_grow_by@V<lambda_1>@?1??replace@?$basic_string@DU?$char_traits@D@std@@V?$allocator@D@2@@std@@QEAAAEAV34@_K_KQEBD0@Z@_K_KPEBD_K@?$basic_string@DU?$char_traits@D@std@@V?$allocator@D@2@@std@@AEAAAEAV01@_KV<lambda_1>@?1??replace@01@QEAAAEAV01@0_KQEBD0@Z@11PEBD1@Z 00000001400eb460 f i zenithtools:Zenith_Tools_MeshExport.obj
 0001:000ea630       ??0?$basic_string@DU?$char_traits@D@std@@V?$allocator@D@2@@std@@QEAA@QEBD@Z 00000001400eb630 f i zenithtools:Zenith_Tools_MeshExport.obj
 0001:000ea670       ??0?$basic_string@_WU?$char_traits@_W@std@@V?$allocator@_W@2@@std@@QEAA@AEBV01@@Z 00000001400eb670 f i zenithtools:Zenith_Tools_MeshExport.obj
 0001:000ea7a0       ??0_Dir_enum_impl@filesystem@std@@QEAA@$$QEAU_Creator@012@W4directory_options@12@@Z 00000001400eb7a0 f i zenithtools:Zenith_Tools_MeshExport.obj
 0001:000ea890       ??0_System_error@std@@IEAA@Verror_code@1@@Z 00000001400eb890 f i zenithtools:Zenith_Tools_MeshExport.obj
 0001:000ea960       ??0filesystem_error@filesystem@std@@QEAA@AEBV012@@Z 00000001400eb960 f i zenithtools:Zenith_Tools_MeshExport.obj
 0001:000ea9e0       ??0filesystem_error@filesystem@std@@QEAA@AEBV?$basic_string@DU?$char_traits@D@std@@V?$allocator@D@2@@2@AEBVpath@12@Verror_code@2@@Z 00000001400eb9e0 f i zenithtools:Zenith_Tools_MeshExport.obj
 0001:000eab00       ??0filesystem_error@filesystem@std@@QEAA@AEBV?$basic_string@DU?$char_traits@D@std@@V?$allocator@D@2@@2@Verror_code@2@@Z 00000001400ebb00 f i zenithtools:Zenith_Tools_MeshExport.obj
 0001:000eaba0       ??0system_error@std@@QEAA@Verror_code@1@@Z 00000001400ebba0 f i zenithtools:Zenith_Tools_MeshExport.obj
 0001:000eabd0       ??1?$vector@U_Find_file_handle@filesystem@std@@V?$allocator@U_Find_file_handle@filesystem@std@@@3@@std@@QEAA@XZ 00000001400ebbd0 f i zenithtools:Zenith_Tools_MeshExport.obj
 0001:000eac60       ??1filesystem_error@filesystem@std@@UEAA@XZ 00000001400ebc60 f i zenithtools:Zenith_Tools_MeshExport.obj
 0001:000eacf0       ??_0path@filesystem@std@@QEAAAEAV012@AEBV012@@Z 00000001400ebcf0 f i zenithtools:Zenith_Tools_MeshExport.obj
 0001:000eaee0       ??_E?$_Ref_count_obj2@U_Recursive_dir_enum_impl@filesystem@std@@@std@@UEAAPEAXI@Z 00000001400ebee0 f i zenithtools:Zenith_Tools_MeshExport.obj
 0001:000eaee0       ??_G?$_Ref_count_obj2@U_Recursive_dir_enum_impl@filesystem@std@@@std@@UEAAPEAXI@Z 00000001400ebee0 f i zenithtools:Zenith_Tools_MeshExport.obj
 0001:000eaf10       ??_Efilesystem_error@filesystem@std@@UEAAPEAXI@Z 00000001400ebf10 f i zenithtools:Zenith_Tools_MeshExport.obj
 0001:000eaf10       ??_Gfilesystem_error@filesystem@std@@UEAAPEAXI@Z 00000001400ebf10 f i zenithtools:Zenith_Tools_MeshExport.obj
 0001:000eafc0       ?ExportAllMeshes@@YAXXZ    00000001400ebfc0 f   zenithtools:Zenith_Tools_MeshExport.obj
 0001:000ed520       ?_Advance_and_reset_if_no_more_files@_Recursive_dir_enum_impl@filesystem@std@@SA?AW4__std_win_error@@AEAV?$shared_ptr@U_Recursive_dir_enum_impl@filesystem@std@@@3@@Z 00000001400ee520 f i zenithtools:Zenith_Tools_MeshExport.obj
 0001:000ed810       ?_Delete_this@?$_Ref_count_obj2@U_Recursive_dir_enum_impl@filesystem@std@@@std@@EEAAXXZ 00000001400ee810 f i zenithtools:Zenith_Tools_MeshExport.obj
 0001:000ed830       ?_Destroy@?$_Ref_count_obj2@U_Recursive_dir_enum_impl@filesystem@std@@@std@@EEAAXXZ 00000001400ee830 f i zenithtools:Zenith_Tools_MeshExport.obj
 0001:000ed860       ?_Find_root_name_end@filesystem@std@@YAPEB_WQEB_W0@Z 00000001400ee860 f i zenithtools:Zenith_Tools_MeshExport.obj
 0001:000ed970       ?_Make_ec@std@@YA?AVerror_code@1@W4__std_win_error@@@Z 00000001400ee970 f i zenithtools:Zenith_Tools_MeshExport.obj
 0001:000ed990       ?_Open_dir@_Dir_enum_impl@filesystem@std@@SA?AW4__std_win_error@@AEAVpath@23@W4directory_options@23@AEAU_Find_file_handle@23@AEAU__std_fs_find_data@@@Z 00000001400ee990 f i zenithtools:Zenith_Tools_MeshExport.obj
 0001:000edb30       ?_Pretty_message@filesystem_error@filesystem@std@@CA?AV?$basic_string@DU?$char_traits@D@std@@V?$allocator@D@2@@3@V?$basic_string_view@DU?$char_traits@D@std@@@3@AEBVpath@23@1@Z 00000001400eeb30 f i zenithtools:Zenith_Tools_MeshExport.obj
 0001:000edf70       ?_Range_compare@filesystem@std@@YAHQEB_W000@Z 00000001400eef70 f i zenithtools:Zenith_Tools_MeshExport.obj
 0001:000edfd0       ?_Refresh@_Dir_enum_impl@filesystem@std@@QEAAXAEBU__std_fs_find_data@@@Z 00000001400eefd0 f i zenithtools:Zenith_Tools_MeshExport.obj
 0001:000ee170       ?_Remove_filename_and_separator@path@filesystem@std@@QEAAXXZ 00000001400ef170 f i zenithtools:Zenith_Tools_MeshExport.obj
 0001:000ee250       ?_Skip_dots@_Dir_enum_impl@filesystem@std@@SA?AW4__std_win_error@@W4__std_fs_dir_handle@@AEAU__std_fs_find_data@@@Z 00000001400ef250 f i zenithtools:Zenith_Tools_MeshExport.obj
 0001:000ee2b0       ?_Throw_fs_error@filesystem@std@@YAXPEBDW4__std_win_error@@@Z 00000001400ef2b0 f i zenithtools:Zenith_Tools_MeshExport.obj
 0001:000ee310       ?_Throw_fs_error@filesystem@std@@YAXPEBDW4__std_win_error@@AEBVpath@12@@Z 00000001400ef310 f i zenithtools:Zenith_Tools_MeshExport.obj
 0001:000ee380       ?_Throw_system_error@std@@YAXW4errc@1@@Z 00000001400ef380 f i zenithtools:Zenith_Tools_MeshExport.obj
 0001:000ee3c0       ?_Throw_system_error_from_std_win_error@std@@YAXW4__std_win_error@@@Z 00000001400ef3c0 f i zenithtools:Zenith_Tools_MeshExport.obj
 0001:000ee400       ?_Tidy_deallocate@?$basic_string@_WU?$char_traits@_W@std@@V?$allocator@_W@2@@std@@AEAAXXZ 00000001400ef400 f i zenithtools:Zenith_Tools_MeshExport.obj
 0001:000ee470       ?append@?$basic_string@_WU?$char_traits@_W@std@@V?$allocator@_W@2@@std@@QEAAAEAV12@QEB_W_K@Z 00000001400ef470 f i zenithtools:Zenith_Tools_MeshExport.obj
 0001:000ee500       ?assign@?$basic_string@_WU?$char_traits@_W@std@@V?$allocator@_W@2@@std@@QEAAAEAV12@QEB_W_K@Z 00000001400ef500 f i zenithtools:Zenith_Tools_MeshExport.obj
 0001:000ee570       ?default_error_condition@_System_error_category@std@@UEBA?AVerror_condition@2@H@Z 00000001400ef570 f i zenithtools:Zenith_Tools_MeshExport.obj
 0001:000ee5f0       ?is_absolute@path@filesystem@std@@QEBA_NXZ 00000001400ef5f0 f i zenithtools:Zenith_Tools_MeshExport.obj
 0001:000ee670       ?make_error_code@std@@YA?AVerror_code@1@W4errc@1@@Z 00000001400ef670 f i zenithtools:Zenith_Tools_MeshExport.obj
 0001:000ee690       ?message@_Generic_error_category@std@@UEBA?AV?$basic_string@DU?$char_traits@D@std@@V?$allocator@D@2@@2@H@Z 00000001400ef690 f i zenithtools:Zenith_Tools_MeshExport.obj
 0001:000ee6e0       ?message@_System_error_category@std@@UEBA?AV?$basic_string@DU?$char_traits@D@std@@V?$allocator@D@2@@2@H@Z 00000001400ef6e0 f i zenithtools:Zenith_Tools_MeshExport.obj
 0001:000ee790       ?name@_Generic_error_category@std@@UEBAPEBDXZ 00000001400ef790 f i zenithtools:Zenith_Tools_MeshExport.obj
 0001:000ee7a0       ?name@_System_error_category@std@@UEBAPEBDXZ 00000001400ef7a0 f i zenithtools:Zenith_Tools_MeshExport.obj
 0001:000ee7b0       ?replace@?$basic_string@DU?$char_traits@D@std@@V?$allocator@D@2@@std@@QEAAAEAV12@_K_KQEBD0@Z 00000001400ef7b0 f i zenithtools:Zenith_Tools_MeshExport.obj
 0001:000ee960       ?resize@?$basic_string@_WU?$char_traits@_W@std@@V?$allocator@_W@2@@std@@QEAAX_K_W@Z 00000001400ef960 f i zenithtools:Zenith_Tools_MeshExport.obj
 0001:000ee9f0       ?what@filesystem_error@filesystem@std@@UEBAPEBDXZ 00000001400ef9f0 f i zenithtools:Zenith_Tools_MeshExport.obj
 0001:000eea90       ??0recursive_directory_iterator@filesystem@std@@QEAA@AEBVpath@12@@Z 00000001400efa90 f i zenithtools:Zenith_Tools_TextureExport.obj
 0001:000eec10       ?ExportAllTextures@@YAXXZ  00000001400efc10 f   zenithtools:Zenith_Tools_TextureExport.obj
 0001:000eeec0       ?ExportFromData@Zenith_Tools_TextureExport@@YAXPEBXAEBV?$basic_string@DU?$char_traits@D@std@@V?$allocator@D@2@@std@@HHW4ColourFormat@@@Z 00000001400efec0 f   zenithtools:Zenith_Tools_TextureExport.obj
 0001:000ef1b0       ?ExportFromFile@Zenith_Tools_TextureExport@@YAXV?$basic_string@DU?$char_traits@D@std@@V?$allocator@D@2@@std@@PEBD@Z 00000001400f01b0 f   zenithtools:Zenith_Tools_TextureExport.obj
 0001:000ef500       ?ExportTexture@@YAXAEBVdirectory_entry@filesystem@std@@@Z 00000001400f0500 f   zenithtools:Zenith_Tools_TextureExport.obj
 0001:001002e0       stbi_load_from_memory      00000001401012e0 f   zenithtools:Zenith_Tools_TextureExport.obj
 0001:00100350       ?ExportHeightmap@@YAXXZ    0000000140101350 f   zenithtools:Zenith_Tools_TerrainExport.obj
 0001:001003f0       ?ExportMesh@@YAXIV?$basic_string@DU?$char_traits@D@std@@V?$allocator@D@2@@std@@@Z 00000001401013f0 f   zenithtools:Zenith_Tools_TerrainExport.obj
 0001:00102b70       ?GenerateFullTerrain@@YAXAEAVMat@cv@@0AEAVFlux_MeshGeometry@@I@Z 0000000140103b70 f   zenithtools:Zenith_Tools_TerrainExport.obj
 0001:00103330       ?allocate@?$allocator@U?$_Tree_node@IPEAX@std@@@std@@QEAAPEAU?$_Tree_node@IPEAX@2@_K@Z 0000000140104330 f i zenithtools:Zenith_Tools_TerrainExport.obj
 0001:001033a0       ?EndColumns@ImGui@@YAXXZ   00000001401043a0 f   zenithtools:imgui_tables.obj
 0001:00103870       ?PopColumnsBackground@ImGui@@YAXXZ 0000000140104870 f   zenithtools:imgui_tables.obj
 0001:00103930       ?PushColumnsBackground@ImGui@@YAXXZ 0000000140104930 f   zenithtools:imgui_tables.obj
 0001:00103a00       ?SetColumnOffset@ImGui@@YAXHM@Z 0000000140104a00 f   zenithtools:imgui_tables.obj
 0001:00103b20       ?TableGcCompactSettings@ImGui@@YAXXZ 0000000140104b20 f   zenithtools:imgui_tables.obj
 0001:00103d00       ?TableGcCompactTransientBuffers@ImGui@@YAXPEAUImGuiTable@@@Z 0000000140104d00 f   zenithtools:imgui_tables.obj
 0001:00103dd0       ?TableGcCompactTransientBuffers@ImGui@@YAXPEAUImGuiTableTempData@@@Z 0000000140104dd0 f   zenithtools:imgui_tables.obj
 0001:00103df0       ?TablePopBackgroundChannel@ImGui@@YAXXZ 0000000140104df0 f   zenithtools:imgui_tables.obj
 0001:00103ec0       ?TablePushBackgroundChannel@ImGui@@YAXXZ 0000000140104ec0 f   zenithtools:imgui_tables.obj
 0001:00103f90       ?TableSettingsAddSettingsHandler@ImGui@@YAXXZ 0000000140104f90 f   zenithtools:imgui_tables.obj
 0001:00104010       ?TableSettingsCreate@ImGui@@YAPEAUImGuiTableSettings@@IH@Z 0000000140105010 f   zenithtools:imgui_tables.obj
 0001:00104914       ??0Importer@Assimp@@QEAA@XZ 0000000140105914 f   assimp-vc143-mt:assimp-vc143-mt.dll
 0001:0010491a       ??1Importer@Assimp@@QEAA@XZ 000000014010591a f   assimp-vc143-mt:assimp-vc143-mt.dll
 0001:00104920       ?ReadFile@Importer@Assimp@@QEAAPEBUaiScene@@PEBDI@Z 0000000140105920 f   assimp-vc143-mt:assimp-vc143-mt.dll
 0001:00104926       aiGetMaterialTexture       0000000140105926 f   assimp-vc143-mt:assimp-vc143-mt.dll
 0001:00104930       _glfwInputFramebufferSize  0000000140105930 f   glfw3_mt:window.obj
 0001:00104940       _glfwInputWindowCloseRequest 0000000140105940 f   glfw3_mt:window.obj
 0001:00104960       _glfwInputWindowContentScale 0000000140105960 f   glfw3_mt:window.obj
 0001:00104970       _glfwInputWindowDamage     0000000140105970 f   glfw3_mt:window.obj
 0001:00104980       _glfwInputWindowFocus      0000000140105980 f   glfw3_mt:window.obj
 0001:00104ae0       _glfwInputWindowIconify    0000000140105ae0 f   glfw3_mt:window.obj
 0001:00104af0       _glfwInputWindowMaximize   0000000140105af0 f   glfw3_mt:window.obj
 0001:00104b00       _glfwInputWindowMonitor    0000000140105b00 f   glfw3_mt:window.obj
 0001:00104b10       _glfwInputWindowPos        0000000140105b10 f   glfw3_mt:window.obj
 0001:00104b20       _glfwInputWindowSize       0000000140105b20 f   glfw3_mt:window.obj
 0001:00104b30       glfwCreateWindow           0000000140105b30 f   glfw3_mt:window.obj
 0001:00104ea0       glfwDefaultWindowHints     0000000140105ea0 f   glfw3_mt:window.obj
 0001:00104fb0       glfwDestroyWindow          0000000140105fb0 f   glfw3_mt:window.obj
 0001:00105090       glfwGetFramebufferSize     0000000140106090 f   glfw3_mt:window.obj
 0001:001050c0       glfwGetWindowAttrib        00000001401060c0 f   glfw3_mt:window.obj
 0001:001052b0       glfwGetWindowSize          00000001401062b0 f   glfw3_mt:window.obj
 0001:001052e0       glfwPollEvents             00000001401062e0 f   glfw3_mt:window.obj
 0001:00105300       glfwSetWindowFocusCallback 0000000140106300 f   glfw3_mt:window.obj
 0001:00105340       glfwWindowHint             0000000140106340 f   glfw3_mt:window.obj
 0001:001056a0       _glfwGetVulkanResultString 00000001401066a0 f   glfw3_mt:vulkan.obj
 0001:00105810       _glfwInitVulkan            0000000140106810 f   glfw3_mt:vulkan.obj
 0001:00105ad0       _glfwTerminateVulkan       0000000140106ad0 f   glfw3_mt:vulkan.obj
 0001:00105af0       glfwCreateWindowSurface    0000000140106af0 f   glfw3_mt:vulkan.obj
 0001:00105bb0       glfwGetRequiredInstanceExtensions 0000000140106bb0 f   glfw3_mt:vulkan.obj
 0001:00105c10       _glfwInputError            0000000140106c10 f   glfw3_mt:init.obj
 0001:001060a0       _glfw_calloc               00000001401070a0 f   glfw3_mt:init.obj
 0001:00106120       _glfw_free                 0000000140107120 f   glfw3_mt:init.obj
 0001:00106140       _glfw_max                  0000000140107140 f   glfw3_mt:init.obj
 0001:00106150       _glfw_min                  0000000140107150 f   glfw3_mt:init.obj
 0001:00106160       _glfw_realloc              0000000140107160 f   glfw3_mt:init.obj
 0001:00106210       _glfw_strdup               0000000140107210 f   glfw3_mt:init.obj
 0001:001062c0       glfwGetError               00000001401072c0 f   glfw3_mt:init.obj
 0001:00106320       glfwInit                   0000000140107320 f   glfw3_mt:init.obj
 0001:001064a0       glfwSetErrorCallback       00000001401074a0 f   glfw3_mt:init.obj
 0001:00106640       _glfwAllocJoystick         0000000140107640 f   glfw3_mt:input.obj
 0001:00106830       _glfwCenterCursorInContentArea 0000000140107830 f   glfw3_mt:input.obj
 0001:00106880       _glfwFreeJoystick          0000000140107880 f   glfw3_mt:input.obj
 0001:001068c0       _glfwInitGamepadMappings   00000001401078c0 f   glfw3_mt:input.obj
 0001:00106940       _glfwInputChar             0000000140107940 f   glfw3_mt:input.obj
 0001:001069b0       _glfwInputCursorEnter      00000001401079b0 f   glfw3_mt:input.obj
 0001:001069c0       _glfwInputCursorPos        00000001401079c0 f   glfw3_mt:input.obj
 0001:00106a00       _glfwInputDrop             0000000140107a00 f   glfw3_mt:input.obj
 0001:00106a10       _glfwInputJoystick         0000000140107a10 f   glfw3_mt:input.obj
 0001:00106a70       _glfwInputJoystickAxis     0000000140107a70 f   glfw3_mt:input.obj
 0001:00106a80       _glfwInputJoystickButton   0000000140107a80 f   glfw3_mt:input.obj
 0001:00106a90       _glfwInputJoystickHat      0000000140107a90 f   glfw3_mt:input.obj
 0001:00106b00       _glfwInputKey              0000000140107b00 f   glfw3_mt:input.obj
 0001:00106b90       _glfwInputMouseClick       0000000140107b90 f   glfw3_mt:input.obj
 0001:00106be0       _glfwInputScroll           0000000140107be0 f   glfw3_mt:input.obj
 0001:00106c80       glfwCreateStandardCursor   0000000140107c80 f   glfw3_mt:input.obj
 0001:00106d30       glfwDestroyCursor          0000000140107d30 f   glfw3_mt:input.obj
 0001:00106e00       glfwGetClipboardString     0000000140107e00 f   glfw3_mt:input.obj
 0001:00106e30       glfwGetCursorPos           0000000140107e30 f   glfw3_mt:input.obj
 0001:00106e90       glfwGetGamepadState        0000000140107e90 f   glfw3_mt:input.obj
 0001:00107730       glfwGetInputMode           0000000140108730 f   glfw3_mt:input.obj
 0001:001077d0       glfwGetKey                 00000001401087d0 f   glfw3_mt:input.obj
 0001:00107850       glfwGetKeyName             0000000140108850 f   glfw3_mt:input.obj
 0001:001078d0       glfwGetTime                00000001401088d0 f   glfw3_mt:input.obj
 0001:00107970       glfwSetCharCallback        0000000140108970 f   glfw3_mt:input.obj
 0001:001079b0       glfwSetClipboardString     00000001401089b0 f   glfw3_mt:input.obj
 0001:001079d0       glfwSetCursor              00000001401089d0 f   glfw3_mt:input.obj
 0001:001079f0       glfwSetCursorEnterCallback 00000001401089f0 f   glfw3_mt:input.obj
 0001:00107a30       glfwSetCursorPos           0000000140108a30 f   glfw3_mt:input.obj
 0001:00107b30       glfwSetCursorPosCallback   0000000140108b30 f   glfw3_mt:input.obj
 0001:00107b70       glfwSetInputMode           0000000140108b70 f   glfw3_mt:input.obj
 0001:00107db0       glfwSetKeyCallback         0000000140108db0 f   glfw3_mt:input.obj
 0001:00107df0       glfwSetMouseButtonCallback 0000000140108df0 f   glfw3_mt:input.obj
 0001:00107e30       glfwSetScrollCallback      0000000140108e30 f   glfw3_mt:input.obj
 0001:00108640       _glfwAllocGammaArrays      0000000140109640 f   glfw3_mt:monitor.obj
 0001:001086a0       _glfwAllocMonitor          00000001401096a0 f   glfw3_mt:monitor.obj
 0001:00108710       _glfwChooseVideoMode       0000000140109710 f   glfw3_mt:monitor.obj
 0001:00108930       _glfwCompareVideoModes     0000000140109930 f   glfw3_mt:monitor.obj
 0001:00108940       _glfwFreeGammaArrays       0000000140109940 f   glfw3_mt:monitor.obj
 0001:00108980       _glfwFreeMonitor           0000000140109980 f   glfw3_mt:monitor.obj
 0001:00108a20       _glfwInputMonitor          0000000140109a20 f   glfw3_mt:monitor.obj
 0001:00108c60       _glfwInputMonitorWindow    0000000140109c60 f   glfw3_mt:monitor.obj
 0001:00108c70       _glfwSplitBPP              0000000140109c70 f   glfw3_mt:monitor.obj
 0001:00108d40       glfwSetMonitorCallback     0000000140109d40 f   glfw3_mt:monitor.obj
 0001:00108e10       _glfwCreateCursorWin32     0000000140109e10 f   glfw3_mt:win32_window.obj
 0001:00108e50       _glfwCreateStandardCursorWin32 0000000140109e50 f   glfw3_mt:win32_window.obj
 0001:00108f50       _glfwCreateWindowSurfaceWin32 0000000140109f50 f   glfw3_mt:win32_window.obj
 0001:00109020       _glfwCreateWindowWin32     000000014010a020 f   glfw3_mt:win32_window.obj
 0001:00109200       _glfwDestroyCursorWin32    000000014010a200 f   glfw3_mt:win32_window.obj
 0001:00109220       _glfwDestroyWindowWin32    000000014010a220 f   glfw3_mt:win32_window.obj
 0001:001092e0       _glfwFocusWindowWin32      000000014010a2e0 f   glfw3_mt:win32_window.obj
 0001:00109320       _glfwFramebufferTransparentWin32 000000014010a320 f   glfw3_mt:win32_window.obj
 0001:001093a0       _glfwGetClipboardStringWin32 000000014010a3a0 f   glfw3_mt:win32_window.obj
 0001:001094b0       _glfwGetCursorPosWin32     000000014010a4b0 f   glfw3_mt:win32_window.obj
 0001:00109520       _glfwGetEGLNativeDisplayWin32 000000014010a520 f   glfw3_mt:win32_window.obj
 0001:00109530       _glfwGetEGLNativeWindowWin32 000000014010a530 f   glfw3_mt:win32_window.obj
 0001:00109540       _glfwGetEGLPlatformWin32   000000014010a540 f   glfw3_mt:win32_window.obj
 0001:00109610       _glfwGetFramebufferSizeWin32 000000014010a610 f   glfw3_mt:win32_window.obj
 0001:00109610       _glfwGetWindowSizeWin32    000000014010a610 f   glfw3_mt:win32_window.obj
 0001:00109670       _glfwGetKeyScancodeWin32   000000014010a670 f   glfw3_mt:win32_window.obj
 0001:00109680       _glfwGetPhysicalDevicePresentationSupportWin32 000000014010a680 f   glfw3_mt:win32_window.obj
 0001:001096e0       _glfwGetRequiredInstanceExtensionsWin32 000000014010a6e0 f   glfw3_mt:win32_window.obj
 0001:00109710       _glfwGetScancodeNameWin32  000000014010a710 f   glfw3_mt:win32_window.obj
 0001:00109760       _glfwGetWindowContentScaleWin32 000000014010a760 f   glfw3_mt:win32_window.obj
 0001:001097a0       _glfwGetWindowFrameSizeWin32 000000014010a7a0 f   glfw3_mt:win32_window.obj
 0001:00109960       _glfwGetWindowOpacityWin32 000000014010a960 f   glfw3_mt:win32_window.obj
 0001:001099d0       _glfwGetWindowPosWin32     000000014010a9d0 f   glfw3_mt:win32_window.obj
 0001:00109a20       _glfwHideWindowWin32       000000014010aa20 f   glfw3_mt:win32_window.obj
 0001:00109a30       _glfwIconifyWindowWin32    000000014010aa30 f   glfw3_mt:win32_window.obj
 0001:00109a50       _glfwMaximizeWindowWin32   000000014010aa50 f   glfw3_mt:win32_window.obj
 0001:00109c50       _glfwPollEventsWin32       000000014010ac50 f   glfw3_mt:win32_window.obj
 0001:00109eb0       _glfwPostEmptyEventWin32   000000014010aeb0 f   glfw3_mt:win32_window.obj
 0001:00109ed0       _glfwCreateCursorNull      000000014010aed0 f   glfw3_mt:null_window.obj
 0001:00109ed0       _glfwCreateStandardCursorNull 000000014010aed0 f   glfw3_mt:null_window.obj
 0001:00109ed0       _glfwInitJoysticksNull     000000014010aed0 f   glfw3_mt:null_joystick.obj
 0001:00109ed0       _glfwRawMouseMotionSupportedNull 000000014010aed0 f   glfw3_mt:null_window.obj
 0001:00109ed0       _glfwRawMouseMotionSupportedWin32 000000014010aed0 f   glfw3_mt:win32_window.obj
 0001:00109ee0       _glfwRequestWindowAttentionWin32 000000014010aee0 f   glfw3_mt:win32_window.obj
 0001:00109f00       _glfwRestoreWindowWin32    000000014010af00 f   glfw3_mt:win32_window.obj
 0001:00109f20       _glfwSetClipboardStringWin32 000000014010af20 f   glfw3_mt:win32_window.obj
 0001:0010a050       _glfwSetCursorModeWin32    000000014010b050 f   glfw3_mt:win32_window.obj
 0001:0010a180       _glfwSetCursorPosWin32     000000014010b180 f   glfw3_mt:win32_window.obj
 0001:0010a1d0       _glfwSetCursorWin32        000000014010b1d0 f   glfw3_mt:win32_window.obj
 0001:0010a200       _glfwSetRawMouseMotionWin32 000000014010b200 f   glfw3_mt:win32_window.obj
 0001:0010a290       _glfwSetWindowAspectRatioWin32 000000014010b290 f   glfw3_mt:win32_window.obj
 0001:0010a320       _glfwSetWindowDecoratedWin32 000000014010b320 f   glfw3_mt:win32_window.obj
 0001:0010a320       _glfwSetWindowResizableWin32 000000014010b320 f   glfw3_mt:win32_window.obj
 0001:0010a330       _glfwSetWindowFloatingWin32 000000014010b330 f   glfw3_mt:win32_window.obj
 0001:0010a370       _glfwSetWindowIconWin32    000000014010b370 f   glfw3_mt:win32_window.obj
 0001:0010a4d0       _glfwSetWindowMonitorWin32 000000014010b4d0 f   glfw3_mt:win32_window.obj
 0001:0010a8e0       _glfwSetWindowMousePassthroughWin32 000000014010b8e0 f   glfw3_mt:win32_window.obj
 0001:0010a9b0       _glfwSetWindowOpacityWin32 000000014010b9b0 f   glfw3_mt:win32_window.obj
 0001:0010aa50       _glfwSetWindowPosWin32     000000014010ba50 f   glfw3_mt:win32_window.obj
 0001:0010ab80       _glfwSetWindowSizeLimitsWin32 000000014010bb80 f   glfw3_mt:win32_window.obj
 0001:0010ac10       _glfwSetWindowSizeWin32    000000014010bc10 f   glfw3_mt:win32_window.obj
 0001:0010ad90       _glfwSetWindowTitleWin32   000000014010bd90 f   glfw3_mt:win32_window.obj
 0001:0010add0       _glfwShowWindowWin32       000000014010bdd0 f   glfw3_mt:win32_window.obj
 0001:0010ae60       _glfwWaitEventsTimeoutWin32 000000014010be60 f   glfw3_mt:win32_window.obj
 0001:0010ae90       _glfwWaitEventsWin32       000000014010be90 f   glfw3_mt:win32_window.obj
 0001:0010aeb0       _glfwWindowFocusedWin32    000000014010beb0 f   glfw3_mt:win32_window.obj
 0001:0010aee0       _glfwWindowHoveredWin32    000000014010bee0 f   glfw3_mt:win32_window.obj
 0001:0010aef0       _glfwWindowIconifiedWin32  000000014010bef0 f   glfw3_mt:win32_window.obj
 0001:0010af00       _glfwWindowMaximizedWin32  000000014010bf00 f   glfw3_mt:win32_window.obj
 0001:0010af10       _glfwWindowVisibleWin32    000000014010bf10 f   glfw3_mt:win32_window.obj
 0001:0010bf60       glfwGetWin32Window         000000014010cf60 f   glfw3_mt:win32_window.obj
 0001:0010d470       _glfwChooseFBConfig        000000014010e470 f   glfw3_mt:context.obj
 0001:0010d660       _glfwIsValidContextConfig  000000014010e660 f   glfw3_mt:context.obj
 0001:0010d8a0       _glfwRefreshContextAttribs 000000014010e8a0 f   glfw3_mt:context.obj
 0001:0010deb0       _glfwStringInExtensionString 000000014010eeb0 f   glfw3_mt:context.obj
 0001:0010df20       glfwExtensionSupported     000000014010ef20 f   glfw3_mt:context.obj
 0001:0010e0d0       glfwMakeContextCurrent     000000014010f0d0 f   glfw3_mt:context.obj
 0001:0010e170       _glfwPlatformCreateMutex   000000014010f170 f   glfw3_mt:win32_thread.obj
 0001:0010e1a0       _glfwPlatformCreateTls     000000014010f1a0 f   glfw3_mt:win32_thread.obj
 0001:0010e1f0       _glfwPlatformDestroyMutex  000000014010f1f0 f   glfw3_mt:win32_thread.obj
 0001:0010e220       _glfwPlatformDestroyTls    000000014010f220 f   glfw3_mt:win32_thread.obj
 0001:0010e250       _glfwPlatformGetTls        000000014010f250 f   glfw3_mt:win32_thread.obj
 0001:0010e260       _glfwPlatformLockMutex     000000014010f260 f   glfw3_mt:win32_thread.obj
 0001:0010e270       _glfwPlatformSetTls        000000014010f270 f   glfw3_mt:win32_thread.obj
 0001:0010e280       _glfwPlatformUnlockMutex   000000014010f280 f   glfw3_mt:win32_thread.obj
 0001:0010e290       _glfwPlatformFreeModule    000000014010f290 f   glfw3_mt:win32_module.obj
 0001:0010e2a0       _glfwPlatformGetModuleSymbol 000000014010f2a0 f   glfw3_mt:win32_module.obj
 0001:0010e2b0       _glfwPlatformLoadModule    000000014010f2b0 f   glfw3_mt:win32_module.obj
 0001:0010e2c0       _glfwPlatformGetTimerFrequency 000000014010f2c0 f   glfw3_mt:win32_time.obj
 0001:0010e2d0       _glfwPlatformGetTimerValue 000000014010f2d0 f   glfw3_mt:win32_time.obj
 0001:0010e2f0       _glfwPlatformInitTimer     000000014010f2f0 f   glfw3_mt:win32_time.obj
 0001:0010e300       _glfwSelectPlatform        000000014010f300 f   glfw3_mt:platform.obj
 0001:0010e3a0       _glfwConnectWin32          000000014010f3a0 f   glfw3_mt:win32_init.obj
 0001:0010e7b0       _glfwCreateUTF8FromWideStringWin32 000000014010f7b0 f   glfw3_mt:win32_init.obj
 0001:0010e890       _glfwCreateWideStringFromUTF8Win32 000000014010f890 f   glfw3_mt:win32_init.obj
 0001:0010e960       _glfwInitWin32             000000014010f960 f   glfw3_mt:win32_init.obj
 0001:0010edf0       _glfwInputErrorWin32       000000014010fdf0 f   glfw3_mt:win32_init.obj
 0001:0010ef00       _glfwIsWindows10BuildOrGreaterWin32 000000014010ff00 f   glfw3_mt:win32_init.obj
 0001:0010efb0       _glfwIsWindowsVersionOrGreaterWin32 000000014010ffb0 f   glfw3_mt:win32_init.obj
 0001:0010f090       _glfwTerminateWin32        0000000140110090 f   glfw3_mt:win32_init.obj
 0001:0010f1a0       _glfwUpdateKeyNamesWin32   00000001401101a0 f   glfw3_mt:win32_init.obj
 0001:0010fa20       _glfwDestroyCursorNull     0000000140110a20 f   glfw3_mt:null_window.obj
 0001:0010fa20       _glfwFreeMonitorWin32      0000000140110a20 f   glfw3_mt:win32_monitor.obj
 0001:0010fa20       _glfwGetRequiredInstanceExtensionsNull 0000000140110a20 f   glfw3_mt:null_window.obj
 0001:0010fa20       _glfwPollEventsNull        0000000140110a20 f   glfw3_mt:null_window.obj
 0001:0010fa20       _glfwPostEmptyEventNull    0000000140110a20 f   glfw3_mt:null_window.obj
 0001:0010fa20       _glfwRequestWindowAttentionNull 0000000140110a20 f   glfw3_mt:null_window.obj
 0001:0010fa20       _glfwSetCursorModeNull     0000000140110a20 f   glfw3_mt:null_window.obj
 0001:0010fa20       _glfwSetCursorNull         0000000140110a20 f   glfw3_mt:null_window.obj
 0001:0010fa20       _glfwSetRawMouseMotionNull 0000000140110a20 f   glfw3_mt:null_window.obj
 0001:0010fa20       _glfwSetWindowIconNull     0000000140110a20 f   glfw3_mt:null_window.obj
 0001:0010fa20       _glfwSetWindowMousePassthroughNull 0000000140110a20 f   glfw3_mt:null_window.obj
 0001:0010fa20       _glfwSetWindowTitleNull    0000000140110a20 f   glfw3_mt:null_window.obj
 0001:0010fa20       _glfwTerminateJoysticksNull 0000000140110a20 f   glfw3_mt:null_joystick.obj
 0001:0010fa20       _glfwUpdateGamepadGUIDNull 0000000140110a20 f   glfw3_mt:null_joystick.obj
 0001:0010fa20       _glfwWaitEventsNull        0000000140110a20 f   glfw3_mt:null_window.obj
 0001:0010fa20       _glfwWaitEventsTimeoutNull 0000000140110a20 f   glfw3_mt:null_window.obj
 0001:0010fa30       _glfwGetGammaRampWin32     0000000140110a30 f   glfw3_mt:win32_monitor.obj
 0001:0010fbe0       _glfwGetHMONITORContentScaleWin32 0000000140110be0 f   glfw3_mt:win32_monitor.obj
 0001:0010fce0       _glfwGetMonitorContentScaleWin32 0000000140110ce0 f   glfw3_mt:win32_monitor.obj
 0001:0010fde0       _glfwGetMonitorPosWin32    0000000140110de0 f   glfw3_mt:win32_monitor.obj
 0001:0010fe80       _glfwGetMonitorWorkareaWin32 0000000140110e80 f   glfw3_mt:win32_monitor.obj
 0001:0010ff20       _glfwGetVideoModeWin32     0000000140110f20 f   glfw3_mt:win32_monitor.obj
 0001:00110000       _glfwGetVideoModesWin32    0000000140111000 f   glfw3_mt:win32_monitor.obj
 0001:00110210       _glfwPollMonitorsWin32     0000000140111210 f   glfw3_mt:win32_monitor.obj
 0001:00110540       _glfwRestoreVideoModeWin32 0000000140111540 f   glfw3_mt:win32_monitor.obj
 0001:00110590       _glfwSetGammaRampWin32     0000000140111590 f   glfw3_mt:win32_monitor.obj
 0001:00110770       _glfwSetVideoModeWin32     0000000140111770 f   glfw3_mt:win32_monitor.obj
 0001:00110cb0       _glfwCreateContextWGL      0000000140111cb0 f   glfw3_mt:wgl_context.obj
 0001:00111130       _glfwInitWGL               0000000140112130 f   glfw3_mt:wgl_context.obj
 0001:001114e0       _glfwTerminateWGL          00000001401124e0 f   glfw3_mt:wgl_context.obj
 0001:00112060       _glfwCreateContextEGL      0000000140113060 f   glfw3_mt:egl_context.obj
 0001:00112590       _glfwInitEGL               0000000140113590 f   glfw3_mt:egl_context.obj
 0001:00112c70       _glfwTerminateEGL          0000000140113c70 f   glfw3_mt:egl_context.obj
 0001:00113340       _glfwCreateContextOSMesa   0000000140114340 f   glfw3_mt:osmesa_context.obj
 0001:00113570       _glfwInitOSMesa            0000000140114570 f   glfw3_mt:osmesa_context.obj
 0001:00113720       _glfwTerminateOSMesa       0000000140114720 f   glfw3_mt:osmesa_context.obj
 0001:001137a0       _glfwGetEGLNativeDisplayNull 00000001401147a0 f   glfw3_mt:null_window.obj
 0001:001137a0       _glfwGetEGLNativeWindowNull 00000001401147a0 f   glfw3_mt:null_window.obj
 0001:001137a0       _glfwGetEGLPlatformNull    00000001401147a0 f   glfw3_mt:null_window.obj
 0001:001137a0       _glfwGetPhysicalDevicePresentationSupportNull 00000001401147a0 f   glfw3_mt:null_window.obj
 0001:001137a0       _glfwPollJoystickNull      00000001401147a0 f   glfw3_mt:null_joystick.obj
 0001:00113890       _glfwConnectNull           0000000140114890 f   glfw3_mt:null_init.obj
 0001:00113ca0       _glfwInitNull              0000000140114ca0 f   glfw3_mt:null_init.obj
 0001:00113f80       _glfwTerminateNull         0000000140114f80 f   glfw3_mt:null_init.obj
 0001:00113fa0       _glfwDetectJoystickConnectionWin32 0000000140114fa0 f   glfw3_mt:win32_joystick.obj
 0001:001141a0       _glfwDetectJoystickDisconnectionWin32 00000001401151a0 f   glfw3_mt:win32_joystick.obj
 0001:001142b0       _glfwGetMappingNameWin32   00000001401152b0 f   glfw3_mt:win32_joystick.obj
 0001:001142c0       _glfwInitJoysticksWin32    00000001401152c0 f   glfw3_mt:win32_joystick.obj
 0001:00114540       _glfwPollJoystickWin32     0000000140115540 f   glfw3_mt:win32_joystick.obj
 0001:00114950       _glfwTerminateJoysticksWin32 0000000140115950 f   glfw3_mt:win32_joystick.obj
 0001:001149e0       _glfwUpdateGamepadGUIDWin32 00000001401159e0 f   glfw3_mt:win32_joystick.obj
 0001:001151f0       sprintf                    00000001401161f0 f i glfw3_mt:win32_joystick.obj
 0001:00115250       _glfwFreeMonitorNull       0000000140116250 f   glfw3_mt:null_monitor.obj
 0001:00115260       _glfwGetGammaRampNull      0000000140116260 f   glfw3_mt:null_monitor.obj
 0001:001153c0       _glfwGetMonitorContentScaleNull 00000001401163c0 f   glfw3_mt:null_monitor.obj
 0001:001153c0       _glfwGetWindowContentScaleNull 00000001401163c0 f   glfw3_mt:null_window.obj
 0001:001153e0       _glfwGetMonitorPosNull     00000001401163e0 f   glfw3_mt:null_monitor.obj
 0001:00115400       _glfwGetMonitorWorkareaNull 0000000140116400 f   glfw3_mt:null_monitor.obj
 0001:00115440       _glfwGetVideoModeNull      0000000140116440 f   glfw3_mt:null_monitor.obj
 0001:00115470       _glfwGetVideoModesNull     0000000140116470 f   glfw3_mt:null_monitor.obj
 0001:001154c0       _glfwPollMonitorsNull      00000001401164c0 f   glfw3_mt:null_monitor.obj
 0001:001154f0       _glfwSetGammaRampNull      00000001401164f0 f   glfw3_mt:null_monitor.obj
 0001:00115580       _glfwCreateWindowNull      0000000140116580 f   glfw3_mt:null_window.obj
 0001:00115700       _glfwCreateWindowSurfaceNull 0000000140116700 f   glfw3_mt:null_window.obj
 0001:00115710       _glfwDestroyWindowNull     0000000140116710 f   glfw3_mt:null_window.obj
 0001:00115770       _glfwFocusWindowNull       0000000140116770 f   glfw3_mt:null_window.obj
 0001:00115830       _glfwFramebufferTransparentNull 0000000140116830 f   glfw3_mt:null_window.obj
 0001:00115840       _glfwGetClipboardStringNull 0000000140116840 f   glfw3_mt:null_window.obj
 0001:00115850       _glfwGetCursorPosNull      0000000140116850 f   glfw3_mt:null_window.obj
 0001:00115890       _glfwGetFramebufferSizeNull 0000000140116890 f   glfw3_mt:null_window.obj
 0001:00115890       _glfwGetWindowSizeNull     0000000140116890 f   glfw3_mt:null_window.obj
 0001:001158b0       _glfwGetKeyScancodeNull    00000001401168b0 f   glfw3_mt:null_window.obj
 0001:001158c0       _glfwGetScancodeNameNull   00000001401168c0 f   glfw3_mt:null_window.obj
 0001:00115c90       _glfwGetWindowFrameSizeNull 0000000140116c90 f   glfw3_mt:null_window.obj
 0001:00115d00       _glfwGetWindowOpacityNull  0000000140116d00 f   glfw3_mt:null_window.obj
 0001:00115d10       _glfwGetWindowPosNull      0000000140116d10 f   glfw3_mt:null_window.obj
 0001:00115d30       _glfwHideWindowNull        0000000140116d30 f   glfw3_mt:null_window.obj
 0001:00115d80       _glfwIconifyWindowNull     0000000140116d80 f   glfw3_mt:null_window.obj
 0001:00115df0       _glfwMaximizeWindowNull    0000000140116df0 f   glfw3_mt:null_window.obj
 0001:00115e10       _glfwRestoreWindowNull     0000000140116e10 f   glfw3_mt:null_window.obj
 0001:00115e70       _glfwSetClipboardStringNull 0000000140116e70 f   glfw3_mt:null_window.obj
 0001:00115ea0       _glfwSetCursorPosNull      0000000140116ea0 f   glfw3_mt:null_window.obj
 0001:00115ed0       _glfwSetWindowAspectRatioNull 0000000140116ed0 f   glfw3_mt:null_window.obj
 0001:00115ed0       _glfwSetWindowSizeLimitsNull 0000000140116ed0 f   glfw3_mt:null_window.obj
 0001:00115fc0       _glfwSetWindowDecoratedNull 0000000140116fc0 f   glfw3_mt:null_window.obj
 0001:00115fd0       _glfwSetWindowFloatingNull 0000000140116fd0 f   glfw3_mt:null_window.obj
 0001:00115fe0       _glfwSetWindowMonitorNull  0000000140116fe0 f   glfw3_mt:null_window.obj
 0001:001160b0       _glfwSetWindowOpacityNull  00000001401170b0 f   glfw3_mt:null_window.obj
 0001:001160c0       _glfwSetWindowPosNull      00000001401170c0 f   glfw3_mt:null_window.obj
 0001:001160f0       _glfwSetWindowResizableNull 00000001401170f0 f   glfw3_mt:null_window.obj
 0001:00116100       _glfwSetWindowSizeNull     0000000140117100 f   glfw3_mt:null_window.obj
 0001:00116170       _glfwShowWindowNull        0000000140117170 f   glfw3_mt:null_window.obj
 0001:00116180       _glfwWindowFocusedNull     0000000140117180 f   glfw3_mt:null_window.obj
 0001:00116190       _glfwWindowHoveredNull     0000000140117190 f   glfw3_mt:null_window.obj
 0001:001161e0       _glfwWindowIconifiedNull   00000001401171e0 f   glfw3_mt:null_window.obj
 0001:001161f0       _glfwWindowMaximizedNull   00000001401171f0 f   glfw3_mt:null_window.obj
 0001:00116200       _glfwWindowVisibleNull     0000000140117200 f   glfw3_mt:null_window.obj
 0001:00116280       _glfwGetMappingNameNull    0000000140117280 f   glfw3_mt:null_joystick.obj
 0001:00116288       ??1Mat@cv@@QEAA@XZ         0000000140117288 f   opencv_world4100:opencv_world4100.dll
 0001:0011628e       ?empty@Mat@cv@@QEBA_NXZ    000000014011728e f   opencv_world4100:opencv_world4100.dll
 0001:00116294       ?imread@cv@@YA?AVMat@1@AEBV?$basic_string@DU?$char_traits@D@std@@V?$allocator@D@2@@std@@H@Z 0000000140117294 f   opencv_world4100:opencv_world4100.dll
 0001:0011629a       vkCreateDescriptorSetLayout 000000014011729a f   vulkan-1:vulkan-1.dll
 0001:001162a0       vkAllocateDescriptorSets   00000001401172a0 f   vulkan-1:vulkan-1.dll
 0001:001162a6       vkUpdateDescriptorSets     00000001401172a6 f   vulkan-1:vulkan-1.dll
 0001:001162ac       vkCreateInstance           00000001401172ac f   vulkan-1:vulkan-1.dll
 0001:001162b2       vkEnumeratePhysicalDevices 00000001401172b2 f   vulkan-1:vulkan-1.dll
 0001:001162b8       vkGetPhysicalDeviceProperties 00000001401172b8 f   vulkan-1:vulkan-1.dll
 0001:001162be       vkGetPhysicalDeviceQueueFamilyProperties 00000001401172be f   vulkan-1:vulkan-1.dll
 0001:001162c4       vkCreateDevice             00000001401172c4 f   vulkan-1:vulkan-1.dll
 0001:001162ca       vkGetDeviceQueue           00000001401172ca f   vulkan-1:vulkan-1.dll
 0001:001162d0       vkQueueSubmit              00000001401172d0 f   vulkan-1:vulkan-1.dll
 0001:001162d6       vkCreateFence              00000001401172d6 f   vulkan-1:vulkan-1.dll
 0001:001162dc       vkResetFences              00000001401172dc f   vulkan-1:vulkan-1.dll
 0001:001162e2       vkWaitForFences            00000001401172e2 f   vulkan-1:vulkan-1.dll
 0001:001162e8       vkCreateSemaphore          00000001401172e8 f   vulkan-1:vulkan-1.dll
 0001:001162ee       vkCreateDescriptorPool     00000001401172ee f   vulkan-1:vulkan-1.dll
 0001:001162f4       vkResetDescriptorPool      00000001401172f4 f   vulkan-1:vulkan-1.dll
 0001:001162fa       vkCreateRenderPass         00000001401172fa f   vulkan-1:vulkan-1.dll
 0001:00116300       vkCreateCommandPool        0000000140117300 f   vulkan-1:vulkan-1.dll
 0001:00116306       vkEndCommandBuffer         0000000140117306 f   vulkan-1:vulkan-1.dll
 0001:0011630c       vkGetPhysicalDeviceFeatures2 000000014011730c f   vulkan-1:vulkan-1.dll
 0001:00116312       vkGetPhysicalDeviceSurfaceSupportKHR 0000000140117312 f   vulkan-1:vulkan-1.dll
 0001:00116318       vkAllocateCommandBuffers   0000000140117318 f   vulkan-1:vulkan-1.dll
 0001:0011631e       vkBeginCommandBuffer       000000014011731e f   vulkan-1:vulkan-1.dll
 0001:00116324       vkCmdBindPipeline          0000000140117324 f   vulkan-1:vulkan-1.dll
 0001:0011632a       vkCmdSetViewport           000000014011732a f   vulkan-1:vulkan-1.dll
 0001:00116330       vkCmdSetScissor            0000000140117330 f   vulkan-1:vulkan-1.dll
 0001:00116336       vkCmdBindDescriptorSets    0000000140117336 f   vulkan-1:vulkan-1.dll
 0001:0011633c       vkCmdBindIndexBuffer       000000014011733c f   vulkan-1:vulkan-1.dll
 0001:00116342       vkCmdBindVertexBuffers     0000000140117342 f   vulkan-1:vulkan-1.dll
 0001:00116348       vkCmdDraw                  0000000140117348 f   vulkan-1:vulkan-1.dll
 0001:0011634e       vkCmdDrawIndexed           000000014011734e f   vulkan-1:vulkan-1.dll
 0001:00116354       vkCmdCopyBuffer            0000000140117354 f   vulkan-1:vulkan-1.dll
 0001:0011635a       vkCmdBlitImage             000000014011735a f   vulkan-1:vulkan-1.dll
 0001:00116360       vkCmdCopyBufferToImage     0000000140117360 f   vulkan-1:vulkan-1.dll
 0001:00116366       vkCmdPipelineBarrier       0000000140117366 f   vulkan-1:vulkan-1.dll
 0001:0011636c       vkCmdPushConstants         000000014011736c f   vulkan-1:vulkan-1.dll
 0001:00116372       vkCmdBeginRenderPass       0000000140117372 f   vulkan-1:vulkan-1.dll
 0001:00116378       vkCmdEndRenderPass         0000000140117378 f   vulkan-1:vulkan-1.dll
 0001:0011637e       vkGetPhysicalDeviceMemoryProperties 000000014011737e f   vulkan-1:vulkan-1.dll
 0001:00116384       vkGetInstanceProcAddr      0000000140117384 f   vulkan-1:vulkan-1.dll
 0001:0011638a       vkGetDeviceProcAddr        000000014011738a f   vulkan-1:vulkan-1.dll
 0001:00116390       vkAllocateMemory           0000000140117390 f   vulkan-1:vulkan-1.dll
 0001:00116396       vkFreeMemory               0000000140117396 f   vulkan-1:vulkan-1.dll
 0001:0011639c       vkMapMemory                000000014011739c f   vulkan-1:vulkan-1.dll
 0001:001163a2       vkUnmapMemory              00000001401173a2 f   vulkan-1:vulkan-1.dll
 0001:001163a8       vkFlushMappedMemoryRanges  00000001401173a8 f   vulkan-1:vulkan-1.dll
 0001:001163ae       vkInvalidateMappedMemoryRanges 00000001401173ae f   vulkan-1:vulkan-1.dll
 0001:001163b4       vkBindBufferMemory         00000001401173b4 f   vulkan-1:vulkan-1.dll
 0001:001163ba       vkBindImageMemory          00000001401173ba f   vulkan-1:vulkan-1.dll
 0001:001163c0       vkGetBufferMemoryRequirements 00000001401173c0 f   vulkan-1:vulkan-1.dll
 0001:001163c6       vkGetImageMemoryRequirements 00000001401173c6 f   vulkan-1:vulkan-1.dll
 0001:001163cc       vkCreateBuffer             00000001401173cc f   vulkan-1:vulkan-1.dll
 0001:001163d2       vkDestroyBuffer            00000001401173d2 f   vulkan-1:vulkan-1.dll
 0001:001163d8       vkCreateImage              00000001401173d8 f   vulkan-1:vulkan-1.dll
 0001:001163de       vkDestroyImage             00000001401173de f   vulkan-1:vulkan-1.dll
 0001:001163e4       vkCreateImageView          00000001401173e4 f   vulkan-1:vulkan-1.dll
 0001:001163ea       vkDestroyImageView         00000001401173ea f   vulkan-1:vulkan-1.dll
 0001:001163f0       vkBindBufferMemory2        00000001401173f0 f   vulkan-1:vulkan-1.dll
 0001:001163f6       vkBindImageMemory2         00000001401173f6 f   vulkan-1:vulkan-1.dll
 0001:001163fc       vkGetImageMemoryRequirements2 00000001401173fc f   vulkan-1:vulkan-1.dll
 0001:00116402       vkGetBufferMemoryRequirements2 0000000140117402 f   vulkan-1:vulkan-1.dll
 0001:00116408       vkGetPhysicalDeviceMemoryProperties2 0000000140117408 f   vulkan-1:vulkan-1.dll
 0001:0011640e       vkGetDeviceBufferMemoryRequirements 000000014011740e f   vulkan-1:vulkan-1.dll
 0001:00116414       vkGetDeviceImageMemoryRequirements 0000000140117414 f   vulkan-1:vulkan-1.dll
 0001:0011641a       vkCreateShaderModule       000000014011741a f   vulkan-1:vulkan-1.dll
 0001:00116420       vkDestroyShaderModule      0000000140117420 f   vulkan-1:vulkan-1.dll
 0001:00116426       vkCreateGraphicsPipelines  0000000140117426 f   vulkan-1:vulkan-1.dll
 0001:0011642c       vkCreatePipelineLayout     000000014011742c f   vulkan-1:vulkan-1.dll
 0001:00116432       vkCreateFramebuffer        0000000140117432 f   vulkan-1:vulkan-1.dll
 0001:00116438       vkGetPhysicalDeviceSurfaceCapabilitiesKHR 0000000140117438 f   vulkan-1:vulkan-1.dll
 0001:0011643e       vkGetPhysicalDeviceSurfaceFormatsKHR 000000014011743e f   vulkan-1:vulkan-1.dll
 0001:00116444       vkGetPhysicalDeviceSurfacePresentModesKHR 0000000140117444 f   vulkan-1:vulkan-1.dll
 0001:0011644a       vkCreateSwapchainKHR       000000014011744a f   vulkan-1:vulkan-1.dll
 0001:00116450       vkDestroySwapchainKHR      0000000140117450 f   vulkan-1:vulkan-1.dll
 0001:00116456       vkGetSwapchainImagesKHR    0000000140117456 f   vulkan-1:vulkan-1.dll
 0001:0011645c       vkAcquireNextImageKHR      000000014011745c f   vulkan-1:vulkan-1.dll
 0001:00116462       vkQueuePresentKHR          0000000140117462 f   vulkan-1:vulkan-1.dll
 0001:00116468       vkCreateSampler            0000000140117468 f   vulkan-1:vulkan-1.dll
 0001:0011646e       vkQueueWaitIdle            000000014011746e f   vulkan-1:vulkan-1.dll
 0001:00116474       vkFreeDescriptorSets       0000000140117474 f   vulkan-1:vulkan-1.dll
 0001:0011647a       vkResetCommandPool         000000014011747a f   vulkan-1:vulkan-1.dll
 0001:00116480       ??0bad_alloc@std@@QEAA@XZ  0000000140117480 f i libcpmt:xthrow.obj
 0001:001164a0       ??0invalid_argument@std@@QEAA@AEBV01@@Z 00000001401174a0 f i libcpmt:xthrow.obj
 0001:001164dc       ??0invalid_argument@std@@QEAA@PEBD@Z 00000001401174dc f i libcpmt:xthrow.obj
 0001:00116524       ??0length_error@std@@QEAA@AEBV01@@Z 0000000140117524 f i libcpmt:xthrow.obj
 0001:00116560       ??0length_error@std@@QEAA@PEBD@Z 0000000140117560 f i libcpmt:xthrow.obj
 0001:001165a8       ??0logic_error@std@@QEAA@AEBV01@@Z 00000001401175a8 f i libcpmt:xthrow.obj
 0001:001165e4       ??0out_of_range@std@@QEAA@AEBV01@@Z 00000001401175e4 f i libcpmt:xthrow.obj
 0001:00116620       ??0out_of_range@std@@QEAA@PEBD@Z 0000000140117620 f i libcpmt:xthrow.obj
 0001:00116668       ??0runtime_error@std@@QEAA@PEBD@Z 0000000140117668 f i libcpmt:xthrow.obj
 0001:001166b0       ?_Xbad_alloc@std@@YAXXZ    00000001401176b0 f   libcpmt:xthrow.obj
 0001:001166d0       ?_Xinvalid_argument@std@@YAXPEBD@Z 00000001401176d0 f   libcpmt:xthrow.obj
 0001:001166f4       ?_Xlength_error@std@@YAXPEBD@Z 00000001401176f4 f   libcpmt:xthrow.obj
 0001:00116718       ?_Xout_of_range@std@@YAXPEBD@Z 0000000140117718 f   libcpmt:xthrow.obj
 0001:0011673c       ?_Xruntime_error@std@@YAXPEBD@Z 000000014011773c f   libcpmt:xthrow.obj
 0001:00116760       ??0_Init_locks@std@@QEAA@XZ 0000000140117760 f   libcpmt:xlock.obj
 0001:001167a4       ??0_Lockit@std@@QEAA@H@Z   00000001401177a4 f   libcpmt:xlock.obj
 0001:001167e0       ??1_Init_locks@std@@QEAA@XZ 00000001401177e0 f   libcpmt:xlock.obj
 0001:0011681c       ??1_Lockit@std@@QEAA@XZ    000000014011781c f   libcpmt:xlock.obj
 0001:00116850       ?uncaught_exceptions@std@@YAHXZ 0000000140117850 f   libcpmt:uncaught_exceptions.obj
 0001:00116858       ?_Syserror_map@std@@YAPEBDH@Z 0000000140117858 f   libcpmt:syserror.obj
 0001:00116880       ?_Winerror_map@std@@YAHH@Z 0000000140117880 f   libcpmt:syserror.obj
 0001:001168a4       ??0_Locimp@locale@std@@AEAA@_N@Z 00000001401178a4 f i libcpmt:locale0.obj
 0001:0011692c       ??4?$_Yarn@D@std@@QEAAAEAV01@PEBD@Z 000000014011792c f i libcpmt:locale0.obj
 0001:001169a4       ??_E_Locimp@locale@std@@MEAAPEAXI@Z 00000001401179a4 f i libcpmt:locale0.obj
 0001:001169a4       ??_G_Locimp@locale@std@@MEAAPEAXI@Z 00000001401179a4 f i libcpmt:locale0.obj
 0001:00116a00       ?_Facet_Register@std@@YAXPEAV_Facet_base@1@@Z 0000000140117a00 f   libcpmt:locale0.obj
 0001:00116a38       ?_Getgloballocale@locale@std@@CAPEAV_Locimp@12@XZ 0000000140117a38 f   libcpmt:locale0.obj
 0001:00116a40       ?_Init@locale@std@@CAPEAV_Locimp@12@_N@Z 0000000140117a40 f   libcpmt:locale0.obj
 0001:00116b34       ?_Locimp_dtor@_Locimp@locale@std@@CAXPEAV123@@Z 0000000140117b34 f   libcpmt:locale0.obj
 0001:00116bb0       ?_Locinfo_ctor@_Locinfo@std@@SAXPEAV12@PEBD@Z 0000000140117bb0 f   libcpmt:locale0.obj
 0001:00116c1c       ?_Locinfo_dtor@_Locinfo@std@@SAXPEAV12@@Z 0000000140117c1c f   libcpmt:locale0.obj
 0001:00116c38       ?_New_Locimp@_Locimp@locale@std@@CAPEAV123@_N@Z 0000000140117c38 f   libcpmt:locale0.obj
 0001:00116c68       ?_Setgloballocale@locale@std@@CAXPEAX@Z 0000000140117c68 f   libcpmt:locale0.obj
 0001:00116c9c       _Deletegloballocale        0000000140117c9c f   libcpmt:locale0.obj
 0001:00116d0c       _Getctype                  0000000140117d0c f   libcpmt:_tolower.obj
 0001:00116dcc       _Tolower                   0000000140117dcc f   libcpmt:_tolower.obj
 0001:00116f00       _Getcvt                    0000000140117f00 f   libcpmt:xwctomb.obj
 0001:00116f98       _Toupper                   0000000140117f98 f   libcpmt:_toupper.obj
 0001:001170dc       ?_Addstd@ios_base@std@@SAXPEAV12@@Z 00000001401180dc f   libcpmt:ios.obj
 0001:00117150       ?_Ios_base_dtor@ios_base@std@@CAXPEAV12@@Z 0000000140118150 f   libcpmt:ios.obj
 0001:001171c8       ?_Tidy@ios_base@std@@AEAAXXZ 00000001401181c8 f i libcpmt:ios.obj
 0001:00117248       _Mtx_lock                  0000000140118248 f   libcpmt:mutex.obj
 0001:00117250       _Mtx_unlock                0000000140118250 f   libcpmt:mutex.obj
 0001:001173a4       ??0system_error@std@@QEAA@HAEBVerror_category@1@PEBD@Z 00000001401183a4 f i libcpmt:thread0.obj
 0001:001174c4       ?_Throw_Cpp_error@std@@YAXH@Z 00000001401184c4 f   libcpmt:thread0.obj
 0001:0011750c       ?generic_category@std@@YAAEBVerror_category@1@XZ 000000014011850c f i libcpmt:thread0.obj
 0001:00117514       _Query_perf_counter        0000000140118514 f   libcpmt:xtime.obj
 0001:00117530       _Query_perf_frequency      0000000140118530 f   libcpmt:xtime.obj
 0001:0011755c       _Timespec64_get_sys        000000014011855c f   libcpmt:xtime.obj
 0001:00117598       _Xtime_get_ticks           0000000140118598 f   libcpmt:xtime.obj
 0001:001175c8       ?_Fiopen@std@@YAPEAU_iobuf@@PEBDHH@Z 00000001401185c8 f   libcpmt:fiopen.obj
 0001:00117790       __std_find_trivial_1       0000000140118790 f   libcpmt:vector_algorithms.obj
 0001:00117798       _Smtx_lock_exclusive       0000000140118798 f   libcpmt:sharedmutex.obj
 0001:001177a0       _Smtx_lock_shared          00000001401187a0 f   libcpmt:sharedmutex.obj
 0001:001177a8       _Smtx_unlock_exclusive     00000001401187a8 f   libcpmt:sharedmutex.obj
 0001:001177b0       _Smtx_unlock_shared        00000001401187b0 f   libcpmt:sharedmutex.obj
 0001:001177b8       __std_system_error_allocate_message 00000001401187b8 f   libcpmt:syserror_import_lib.obj
 0001:00117850       __std_system_error_deallocate_message 0000000140118850 f   libcpmt:syserror_import_lib.obj
 0001:00117858       __std_fs_code_page         0000000140118858 f   libcpmt:filesystem.obj
 0001:00117880       __std_fs_convert_narrow_to_wide 0000000140118880 f   libcpmt:filesystem.obj
 0001:001178c8       __std_fs_convert_wide_to_narrow_replace_chars 00000001401188c8 f   libcpmt:filesystem.obj
 0001:00117994       __std_fs_directory_iterator_advance 0000000140118994 f   libcpmt:filesystem.obj
 0001:001179b4       __std_fs_directory_iterator_close 00000001401189b4 f   libcpmt:filesystem.obj
 0001:001179d4       __std_fs_directory_iterator_open 00000001401189d4 f   libcpmt:filesystem.obj
 0001:00117a48       __std_fs_get_stats         0000000140118a48 f   libcpmt:filesystem.obj
 0001:00117d78       __std_fs_open_handle       0000000140118d78 f   libcpmt:filesystem.obj
 0001:00117dd0       _Mtxinit                   0000000140118dd0 f   libcpmt:xmtx.obj
 0001:00117de0       ?_Atexit@@YAXP6AXXZ@Z      0000000140118de0 f   libcpmt:iosptrs.obj
 0001:00117e1c       __crtLCMapStringA          0000000140118e1c f   libcpmt:StlLCMapStringA.obj
 0001:0011817c       __crtGetSystemTimePreciseAsFileTime 000000014011917c f   libcpmt:winapisupp.obj
 0001:001181a4       ??3@YAXPEAX_K@Z            00000001401191a4 f   LIBCMT:delete_scalar_size.obj
 0001:001181ac       __scrt_acquire_startup_lock 00000001401191ac f   LIBCMT:utility.obj
 0001:001181e8       __scrt_initialize_crt      00000001401191e8 f   LIBCMT:utility.obj
 0001:00118224       __scrt_initialize_onexit_tables 0000000140119224 f   LIBCMT:utility.obj
 0001:001182b0       __scrt_is_nonwritable_in_current_image 00000001401192b0 f   LIBCMT:utility.obj
 0001:00118348       __scrt_release_startup_lock 0000000140119348 f   LIBCMT:utility.obj
 0001:0011836c       __scrt_uninitialize_crt    000000014011936c f   LIBCMT:utility.obj
 0001:00118398       _onexit                    0000000140119398 f   LIBCMT:utility.obj
 0001:001183d4       atexit                     00000001401193d4 f   LIBCMT:utility.obj
 0001:001183ec       ??_Etype_info@@UEAAPEAXI@Z 00000001401193ec f i LIBCMT:std_type_info_static.obj
 0001:001183ec       ??_Gtype_info@@UEAAPEAXI@Z 00000001401193ec f i LIBCMT:std_type_info_static.obj
 0001:00118420       __vdecl_sinf4              0000000140119420 f   LIBCMT:svml_ssinf4_dispatch.obj
 0001:00118440       __libm_sse2_sincosf_       0000000140119440 f   LIBCMT:svml_ssinf4_dispatch.obj
 0001:00118483       __libm_sse2_sincosf4_      0000000140119483 f   LIBCMT:svml_ssinf4_dispatch.obj
 0001:00118490       _Init_thread_footer        0000000140119490 f   LIBCMT:thread_safe_statics.obj
 0001:001184fc       _Init_thread_header        00000001401194fc f   LIBCMT:thread_safe_statics.obj
 0001:00118580       __vdecl_sin2               0000000140119580 f   LIBCMT:svml_dsin2_dispatch.obj
 0001:001185a0       __libm_sse2_sincos_        00000001401195a0 f   LIBCMT:svml_dsin2_dispatch.obj
 0001:001185ec       __dyn_tls_init             00000001401195ec f   LIBCMT:tlsdyn.obj
 0001:00118654       __dyn_tls_on_demand_init   0000000140119654 f   LIBCMT:tlsdyn.obj
 0001:00118664       __isa_available_init       0000000140119664 f   LIBCMT:cpu_disp.obj
 0001:00118b90       mainCRTStartup             0000000140119b90 f   LIBCMT:exe_main.obj
 0001:00118bc0       __chkstk                   0000000140119bc0 f   LIBCMT:chkstk.obj
 0001:00118bc0       _alloca_probe              0000000140119bc0 f   LIBCMT:chkstk.obj
 0001:00118c10       __vdecl_powf4              0000000140119c10 f   LIBCMT:svml_spowf4_dispatch.obj
 0001:00118c18       __GSHandlerCheck           0000000140119c18 f   LIBCMT:gshandler.obj
 0001:00118c38       __GSHandlerCheckCommon     0000000140119c38 f   LIBCMT:gshandler.obj
 0001:00118cb0       __security_check_cookie    0000000140119cb0 f   LIBCMT:amdsecgs.obj
 0001:00118cd0       __GSHandlerCheck_EH4       0000000140119cd0 f   LIBCMT:gshandlereh4.obj
 0001:00118d50       __scrt_is_ucrt_dll_in_use  0000000140119d50 f   LIBCMT:ucrt_detection.obj
 0001:00118d5c       __crt_debugger_hook        0000000140119d5c f   LIBCMT:utility_desktop.obj
 0001:00118d64       __scrt_fastfail            0000000140119d64 f   LIBCMT:utility_desktop.obj
 0001:00118eac       __scrt_initialize_mta      0000000140119eac f   LIBCMT:utility_desktop.obj
 0001:00118eb4       __scrt_is_managed_app      0000000140119eb4 f   LIBCMT:utility_desktop.obj
 0001:00118f08       __scrt_set_unhandled_exception_filter 0000000140119f08 f   LIBCMT:utility_desktop.obj
 0001:00118f18       __scrt_unhandled_exception_filter 0000000140119f18 f   LIBCMT:utility_desktop.obj
 0001:00118f80       __sse2_sinf4@@16           0000000140119f80 f   LIBCMT:svml_ssinf4_sse2.obj
 0001:001198c0       __sse4_sinf4@@16           000000014011a8c0 f   LIBCMT:svml_ssinf4_sse4.obj
 0001:0011a040       __sse2_sin2@@16            000000014011b040 f   LIBCMT:svml_dsin2_sse2.obj
 0001:0011a6c0       __sse4_sin2@@16            000000014011b6c0 f   LIBCMT:svml_dsin2_sse4.obj
 0001:0011ad40       __security_init_cookie     000000014011bd40 f   LIBCMT:gs_support.obj
 0001:0011adec       _get_startup_file_mode     000000014011bdec f   LIBCMT:file_mode.obj
 0001:0011adf4       ?__scrt_initialize_type_info@@YAXXZ 000000014011bdf4 f   LIBCMT:tncleanup.obj
 0001:0011ae04       __scrt_initialize_default_local_stdio_options 000000014011be04 f   LIBCMT:default_local_stdio_options.obj
 0001:0011ae20       __scrt_is_user_matherr_present 000000014011be20 f   LIBCMT:matherr_detection.obj
 0001:0011ae2c       __scrt_get_dyn_tls_init_callback 000000014011be2c f   LIBCMT:dyn_tls_init.obj
 0001:0011ae34       __scrt_get_dyn_tls_dtor_callback 000000014011be34 f   LIBCMT:dyn_tls_dtor.obj
 0001:0011ae3c       _RTC_Initialize            000000014011be3c f   LIBCMT:initsect.obj
 0001:0011ae78       _RTC_Terminate             000000014011be78 f   LIBCMT:initsect.obj
 0001:0011aec0       __sse2_powf4@@32           000000014011bec0 f   LIBCMT:svml_spowf4_sse2.obj
 0001:0011ba10       __raise_securityfailure    000000014011ca10 f   LIBCMT:gs_report.obj
 0001:0011ba44       __report_gsfailure         000000014011ca44 f   LIBCMT:gs_report.obj
 0001:0011bb18       __report_rangecheckfailure 000000014011cb18 f   LIBCMT:gs_report.obj
 0001:0011bb2c       __report_securityfailure   000000014011cb2c f   LIBCMT:gs_report.obj
 0001:0011bcb0       __common_ssin_cout_rare    000000014011ccb0 f   LIBCMT:svml_s_sin_cout.obj
 0001:0011bd20       __common_dsin_cout_rare    000000014011cd20 f   LIBCMT:svml_d_sin_cout.obj
 0001:0011bd90       ImmGetContext              000000014011cd90 f   imm32:IMM32.dll
 0001:0011bd96       ImmReleaseContext          000000014011cd96 f   imm32:IMM32.dll
 0001:0011bd9c       ImmSetCompositionWindow    000000014011cd9c f   imm32:IMM32.dll
 0001:0011bda2       ImmSetCandidateWindow      000000014011cda2 f   imm32:IMM32.dll
 0001:0011bda8       __std_exception_copy       000000014011cda8 f   libvcruntime:std_exception.obj
 0001:0011be38       __std_exception_destroy    000000014011ce38 f   libvcruntime:std_exception.obj
 0001:0011be60       _CxxThrowException         000000014011ce60 f   libvcruntime:throw.obj
 0001:0011bf10       _get_purecall_handler      000000014011cf10 f   libvcruntime:purevirt.obj
 0001:0011bf1c       _purecall                  000000014011cf1c f   libvcruntime:purevirt.obj
 0001:0011bf38       ??$_CallSETranslator@V__FrameHandler3@@@@YAHPEAUEHExceptionRecord@@PEA_KPEAU_CONTEXT@@PEAU_xDISPATCHER_CONTEXT@@PEBU_s_FuncInfo@@K1H@Z 000000014011cf38 f i libvcruntime:risctrnsctrl.obj
 0001:0011bf8c       ??$_CallSETranslator@V__FrameHandler4@@@@YAHPEAUEHExceptionRecord@@PEA_KPEAU_CONTEXT@@PEAU_xDISPATCHER_CONTEXT@@PEAUFuncInfo4@FH4@@K1H@Z 000000014011cf8c f i libvcruntime:risctrnsctrl.obj
 0001:0011bfe0       ?CatchTryBlock@__FrameHandler3@@SAPEBU_s_TryBlockMapEntry@@PEBU_s_FuncInfo@@H@Z 000000014011cfe0 f   libvcruntime:risctrnsctrl.obj
 0001:0011c044       ?DecompFuncInfo@FH4@@YA_JPEAEAEAUFuncInfo4@1@_KH_N@Z 000000014011d044 f i libvcruntime:risctrnsctrl.obj
 0001:0011c17c       ?ExecutionInCatch@__FrameHandler3@@SA_NPEAU_xDISPATCHER_CONTEXT@@PEBU_s_FuncInfo@@@Z 000000014011d17c f   libvcruntime:risctrnsctrl.obj
 0001:0011c1a8       ?ExecutionInCatch@__FrameHandler4@@SA_NPEAU_xDISPATCHER_CONTEXT@@PEAUFuncInfo4@FH4@@@Z 000000014011d1a8 f   libvcruntime:risctrnsctrl.obj
 0001:0011c1b0       ?FrameUnwindToEmptyState@__FrameHandler3@@SAXPEA_KPEAU_xDISPATCHER_CONTEXT@@PEBU_s_FuncInfo@@@Z 000000014011d1b0 f   libvcruntime:risctrnsctrl.obj
 0001:0011c214       ?FrameUnwindToEmptyState@__FrameHandler4@@SAXPEA_KPEAU_xDISPATCHER_CONTEXT@@PEAUFuncInfo4@FH4@@@Z 000000014011d214 f   libvcruntime:risctrnsctrl.obj
 0001:0011c248       ?GetEstablisherFrame@__FrameHandler3@@SAPEA_KPEA_KPEAU_xDISPATCHER_CONTEXT@@PEBU_s_FuncInfo@@0@Z 000000014011d248 f   libvcruntime:risctrnsctrl.obj
 0001:0011c318       ?GetEstablisherFrame@__FrameHandler4@@SAPEA_KPEA_KPEAU_xDISPATCHER_CONTEXT@@PEAUFuncInfo4@FH4@@0@Z 000000014011d318 f   libvcruntime:risctrnsctrl.obj
 0001:0011c33c       ?GetRangeOfTrysToCheck@__FrameHandler3@@SA?AU?$pair@Viterator@TryBlockMap@__FrameHandler3@@V123@@std@@AEAVTryBlockMap@1@HPEAU_xDISPATCHER_CONTEXT@@PEBU_s_FuncInfo@@H@Z 000000014011d33c f   libvcruntime:risctrnsctrl.obj
 0001:0011c470       ?GetRangeOfTrysToCheck@__FrameHandler4@@SA?AU?$pair@Viterator@TryBlockMap4@FH4@@V123@@std@@AEAVTryBlockMap4@FH4@@HPEAU_xDISPATCHER_CONTEXT@@PEAUFuncInfo4@5@H@Z 000000014011d470 f   libvcruntime:risctrnsctrl.obj
 0001:0011c5dc       ?UnwindNestedFrames@__FrameHandler3@@SAXPEA_KPEAUEHExceptionRecord@@PEAU_CONTEXT@@0PEAXPEBU_s_FuncInfo@@HHPEBU_s_HandlerType@@PEAU_xDISPATCHER_CONTEXT@@E@Z 000000014011d5dc f   libvcruntime:risctrnsctrl.obj
 0001:0011c6e0       ?UnwindNestedFrames@__FrameHandler4@@SAXPEA_KPEAUEHExceptionRecord@@PEAU_CONTEXT@@0PEAXPEAUFuncInfo4@FH4@@HHPEAUHandlerType4@5@PEAU_xDISPATCHER_CONTEXT@@E@Z 000000014011d6e0 f   libvcruntime:risctrnsctrl.obj
 0001:0011c800       ?setBuffer@TryBlockMap4@FH4@@QEAAXViterator@12@@Z 000000014011d800 f i libvcruntime:risctrnsctrl.obj
 0001:0011c9c4       _CreateFrameInfo           000000014011d9c4 f   libvcruntime:risctrnsctrl.obj
 0001:0011ca00       _FindAndUnlinkFrame        000000014011da00 f   libvcruntime:risctrnsctrl.obj
 0001:0011ca54       _GetImageBase              000000014011da54 f   libvcruntime:risctrnsctrl.obj
 0001:0011ca68       _GetThrowImageBase         000000014011da68 f   libvcruntime:risctrnsctrl.obj
 0001:0011ca7c       _SetImageBase              000000014011da7c f   libvcruntime:risctrnsctrl.obj
 0001:0011ca94       _SetThrowImageBase         000000014011da94 f   libvcruntime:risctrnsctrl.obj
 0001:0011caac       __CxxFrameHandler3         000000014011daac f   libvcruntime:risctrnsctrl.obj
 0001:0011cb34       __CxxFrameHandler4         000000014011db34 f   libvcruntime:risctrnsctrl.obj
 0001:0011cc00       strstr                     000000014011dc00 f   libvcruntime:strstr.obj
 0001:0011cdf0       strchr                     000000014011ddf0 f   libvcruntime:strchr.obj
 0001:0011ce6c       strrchr                    000000014011de6c f   libvcruntime:strrchr.obj
 0001:0011cfa4       __uncaught_exceptions      000000014011dfa4 f   libvcruntime:uncaught_exceptions.obj
 0001:0011cfc0       __DestructExceptionObject  000000014011dfc0 f   libvcruntime:ehhelpers.obj
 0001:0011d030       ?_CallMemberFunction0@@YAXQEAX0@Z 000000014011e030 f i libvcruntime:ehhelpers.obj
 0001:0011d034       _IsExceptionObjectToBeDestroyed 000000014011e034 f   libvcruntime:ehhelpers.obj
 0001:0011d064       __AdjustPointer            000000014011e064 f   libvcruntime:ehhelpers.obj
 0001:0011d088       __FrameUnwindFilter        000000014011e088 f   libvcruntime:ehhelpers.obj
 0001:0011d0f0       __current_exception        000000014011e0f0 f   libvcruntime:ehhelpers.obj
 0001:0011d104       __current_exception_context 000000014011e104 f   libvcruntime:ehhelpers.obj
 0001:0011d118       __std_terminate            000000014011e118 f   libvcruntime:ehhelpers.obj
 0001:0011d124       __vcrt_initialize          000000014011e124 f   libvcruntime:initialization.obj
 0001:0011d14c       __vcrt_uninitialize        000000014011e14c f   libvcruntime:initialization.obj
 0001:0011d168       __C_specific_handler       000000014011e168 f   libvcruntime:riscchandler.obj
 0001:0011d380       __std_type_info_compare    000000014011e380 f   libvcruntime:std_type_info.obj
 0001:0011d3a8       __vcrt_freefls             000000014011e3a8 f   libvcruntime:per_thread_data.obj
 0001:0011d3c8       __vcrt_getptd              000000014011e3c8 f   libvcruntime:per_thread_data.obj
 0001:0011d3e4       __vcrt_getptd_noexit       000000014011e3e4 f   libvcruntime:per_thread_data.obj
 0001:0011d4a4       __vcrt_getptd_noinit       000000014011e4a4 f   libvcruntime:per_thread_data.obj
 0001:0011d4f4       __vcrt_initialize_ptd      000000014011e4f4 f   libvcruntime:per_thread_data.obj
 0001:0011d53c       __vcrt_uninitialize_ptd    000000014011e53c f   libvcruntime:per_thread_data.obj
 0001:0011d560       ?GetCurrentState@__FrameHandler3@@SAHPEA_KPEAU_xDISPATCHER_CONTEXT@@PEBU_s_FuncInfo@@@Z 000000014011e560 f   libvcruntime:ehstate.obj
 0001:0011d588       ?GetUnwindTryBlock@__FrameHandler3@@SAHPEA_KPEAU_xDISPATCHER_CONTEXT@@PEBU_s_FuncInfo@@@Z 000000014011e588 f   libvcruntime:ehstate.obj
 0001:0011d5b4       ?SetState@__FrameHandler3@@SAXPEA_KPEBU_s_FuncInfo@@H@Z 000000014011e5b4 f   libvcruntime:ehstate.obj
 0001:0011d5c0       ?SetUnwindTryBlock@__FrameHandler3@@SAXPEA_KPEAU_xDISPATCHER_CONTEXT@@PEBU_s_FuncInfo@@H@Z 000000014011e5c0 f   libvcruntime:ehstate.obj
 0001:0011d5fc       ?StateFromControlPc@__FrameHandler3@@SAHPEBU_s_FuncInfo@@PEAU_xDISPATCHER_CONTEXT@@@Z 000000014011e5fc f   libvcruntime:ehstate.obj
 0001:0011d604       ?StateFromControlPc@__FrameHandler4@@SAHPEAUFuncInfo4@FH4@@PEAU_xDISPATCHER_CONTEXT@@@Z 000000014011e604 f   libvcruntime:ehstate.obj
 0001:0011d60c       ?StateFromIp@__FrameHandler3@@SAHPEBU_s_FuncInfo@@PEAU_xDISPATCHER_CONTEXT@@_K@Z 000000014011e60c f   libvcruntime:ehstate.obj
 0001:0011d674       ?StateFromIp@__FrameHandler4@@SAHPEAUFuncInfo4@FH4@@PEAU_xDISPATCHER_CONTEXT@@_K@Z 000000014011e674 f   libvcruntime:ehstate.obj
 0001:0011edcc       ??$TypeMatchHelper@V__FrameHandler3@@@@YAHPEBU_s_HandlerType@@PEBU_s_CatchableType@@PEBU_s_ThrowInfo@@@Z 000000014011fdcc f i libvcruntime:frame.obj
 0001:0011ef0c       ??$TypeMatchHelper@V__FrameHandler4@@@@YAHPEAUHandlerType4@FH4@@PEBU_s_CatchableType@@PEBU_s_ThrowInfo@@@Z 000000014011ff0c f i libvcruntime:frame.obj
 0001:0011f058       ??$__InternalCxxFrameHandler@V__FrameHandler3@@@@YA?AW4_EXCEPTION_DISPOSITION@@PEAUEHExceptionRecord@@PEA_KPEAU_CONTEXT@@PEAU_xDISPATCHER_CONTEXT@@PEBU_s_FuncInfo@@H1E@Z 0000000140120058 f i libvcruntime:frame.obj
 0001:0011f290       ??$__InternalCxxFrameHandler@V__FrameHandler4@@@@YA?AW4_EXCEPTION_DISPOSITION@@PEAUEHExceptionRecord@@PEA_KPEAU_CONTEXT@@PEAU_xDISPATCHER_CONTEXT@@PEAUFuncInfo4@FH4@@H1E@Z 0000000140120290 f i libvcruntime:frame.obj
 0001:0011f524       ??$__InternalCxxFrameHandlerWrapper@V__FrameHandler3@@@@YA?AW4_EXCEPTION_DISPOSITION@@PEAUEHExceptionRecord@@PEA_KPEAU_CONTEXT@@PEAU_xDISPATCHER_CONTEXT@@PEBU_s_FuncInfo@@H1E@Z 0000000140120524 f i libvcruntime:frame.obj
 0001:0011f52c       ??$__InternalCxxFrameHandlerWrapper@V__FrameHandler4@@@@YA?AW4_EXCEPTION_DISPOSITION@@PEAUEHExceptionRecord@@PEA_KPEAU_CONTEXT@@PEAU_xDISPATCHER_CONTEXT@@PEAUFuncInfo4@FH4@@H1E@Z 000000014012052c f i libvcruntime:frame.obj
 0001:0011f578       ??0HandlerMap4@FH4@@QEAA@PEBUTryBlockMapEntry4@1@_KH@Z 0000000140120578 f i libvcruntime:frame.obj
 0001:0011f5fc       ??0TryBlockMap4@FH4@@QEAA@PEBUFuncInfo4@1@_K@Z 00000001401205fc f i libvcruntime:frame.obj
 0001:0011f6e0       ??0bad_exception@std@@QEAA@AEBV01@@Z 00000001401206e0 f i libvcruntime:frame.obj
 0001:0011f71c       ??0bad_exception@std@@QEAA@XZ 000000014012071c f i libvcruntime:frame.obj
 0001:0011f73c       ?CxxCallCatchBlock@__FrameHandler3@@SAPEAXPEAU_EXCEPTION_RECORD@@@Z 000000014012073c f   libvcruntime:frame.obj
 0001:0011f928       ?CxxCallCatchBlock@__FrameHandler4@@SAPEAXPEAU_EXCEPTION_RECORD@@@Z 0000000140120928 f   libvcruntime:frame.obj
 0001:0011fb78       ?DecompHandler@HandlerMap4@FH4@@AEAAXXZ 0000000140120b78 f i libvcruntime:frame.obj
 0001:0011fdc0       ?FrameUnwindToState@__FrameHandler3@@SAXPEA_KPEAU_xDISPATCHER_CONTEXT@@PEBU_s_FuncInfo@@H@Z 0000000140120dc0 f   libvcruntime:frame.obj
 0001:0011ff4c       ?FrameUnwindToState@__FrameHandler4@@SAXPEA_KPEAU_xDISPATCHER_CONTEXT@@PEAUFuncInfo4@FH4@@H@Z 0000000140120f4c f   libvcruntime:frame.obj
 0001:00120254       ?GetHandlerSearchState@__FrameHandler3@@SAHPEA_KPEAU_xDISPATCHER_CONTEXT@@PEBU_s_FuncInfo@@@Z 0000000140121254 f i libvcruntime:frame.obj
 0001:00120464       ?ReadEntry@UWMap4@FH4@@AEAAXPEAPEAE@Z 0000000140121464 f i libvcruntime:frame.obj
 0001:00120500       ?_CallMemberFunction1@@YAXQEAX00@Z 0000000140121500 f i libvcruntime:frame.obj
 0001:0012050c       ?_CallMemberFunction2@@YAXQEAX00H@Z 000000014012150c f i libvcruntime:frame.obj
 0001:0012051c       ?getStartStop@UWMap4@FH4@@QEAAXHHAEAViterator@12@0@Z 000000014012151c f i libvcruntime:frame.obj
 0001:001205ec       ?getStateFromIterators@UWMap4@FH4@@SAHAEBViterator@12@H0H0@Z 00000001401215ec f i libvcruntime:frame.obj
 0001:0012069c       __vcrt_initialize_locks    000000014012169c f   libvcruntime:locks.obj
 0001:001206e4       __vcrt_uninitialize_locks  00000001401216e4 f   libvcruntime:locks.obj
 0001:00120750       _NLG_Notify                0000000140121750 f   libvcruntime:notify.obj
 0001:00120770       __NLG_Dispatch2            0000000140121770 f   libvcruntime:notify.obj
 0001:00120780       __NLG_Return2              0000000140121780 f   libvcruntime:notify.obj
 0001:00120784       __except_validate_context_record 0000000140121784 f   libvcruntime:jbcxrval.obj
 0001:0012090c       __vcrt_FlsAlloc            000000014012190c f   libvcruntime:winapi_downlevel.obj
 0001:00120954       __vcrt_FlsFree             0000000140121954 f   libvcruntime:winapi_downlevel.obj
 0001:0012099c       __vcrt_FlsGetValue         000000014012199c f   libvcruntime:winapi_downlevel.obj
 0001:001209e4       __vcrt_FlsSetValue         00000001401219e4 f   libvcruntime:winapi_downlevel.obj
 0001:00120a38       __vcrt_InitializeCriticalSectionEx 0000000140121a38 f   libvcruntime:winapi_downlevel.obj
 0001:00120ae0       _CallSettingFrame          0000000140121ae0 f   libvcruntime:handlers.obj
 0001:00120b20       _CallSettingFrame_LookupContinuationIndex 0000000140121b20 f   libvcruntime:handlers.obj
 0001:00120b50       _CallSettingFrame_NotifyContinuationAddr 0000000140121b50 f   libvcruntime:handlers.obj
 0001:00120b80       _CallSettingFrameEncoded   0000000140121b80 f   libvcruntime:handlers.obj
 0001:00120bc8       __acrt_call_reportfault    0000000140121bc8 f   libucrt:invalid_parameter.obj
 0001:00120d24       __acrt_initialize_invalid_parameter_handler 0000000140121d24 f   libucrt:invalid_parameter.obj
 0001:00120d2c       _invalid_parameter         0000000140121d2c f   libucrt:invalid_parameter.obj
 0001:00120ddc       _invalid_parameter_noinfo  0000000140121ddc f   libucrt:invalid_parameter.obj
 0001:00120dfc       _invalid_parameter_noinfo_noreturn 0000000140121dfc f   libucrt:invalid_parameter.obj
 0001:00120e2c       _invoke_watson             0000000140121e2c f   libucrt:invalid_parameter.obj
 0001:0012124c       ??$ensure_buffer_is_big_enough@D@formatting_buffer@__crt_stdio_output@@QEAA_N_K@Z 000000014012224c f i libucrt:output.obj
 0001:001212f4       ??$type_case_integer_parse_into_buffer@I@?$output_processor@DV?$stream_output_adapter@D@__crt_stdio_output@@V?$standard_base@DV?$stream_output_adapter@D@__crt_stdio_output@@@2@@__crt_stdio_output@@AEAAXII_N@Z 00000001401222f4 f i libucrt:output.obj
 0001:001212f4       ??$type_case_integer_parse_into_buffer@I@?$output_processor@DV?$string_output_adapter@D@__crt_stdio_output@@V?$format_validation_base@DV?$string_output_adapter@D@__crt_stdio_output@@@2@@__crt_stdio_output@@AEAAXII_N@Z 00000001401222f4 f i libucrt:output.obj
 0001:001212f4       ??$type_case_integer_parse_into_buffer@I@?$output_processor@DV?$string_output_adapter@D@__crt_stdio_output@@V?$standard_base@DV?$string_output_adapter@D@__crt_stdio_output@@@2@@__crt_stdio_output@@AEAAXII_N@Z 00000001401222f4 f i libucrt:output.obj
 0001:0012137c       ??$type_case_integer_parse_into_buffer@_K@?$output_processor@DV?$stream_output_adapter@D@__crt_stdio_output@@V?$standard_base@DV?$stream_output_adapter@D@__crt_stdio_output@@@2@@__crt_stdio_output@@AEAAX_KI_N@Z 000000014012237c f i libucrt:output.obj
 0001:0012137c       ??$type_case_integer_parse_into_buffer@_K@?$output_processor@DV?$string_output_adapter@D@__crt_stdio_output@@V?$format_validation_base@DV?$string_output_adapter@D@__crt_stdio_output@@@2@@__crt_stdio_output@@AEAAX_KI_N@Z 000000014012237c f i libucrt:output.obj
 0001:0012137c       ??$type_case_integer_parse_into_buffer@_K@?$output_processor@DV?$string_output_adapter@D@__crt_stdio_output@@V?$standard_base@DV?$string_output_adapter@D@__crt_stdio_output@@@2@@__crt_stdio_output@@AEAAX_KI_N@Z 000000014012237c f i libucrt:output.obj
 0001:0012140c       ??$write_multiple_characters@V?$stream_output_adapter@D@__crt_stdio_output@@D@__crt_stdio_output@@YAXAEBV?$stream_output_adapter@D@0@DHQEAH@Z 000000014012240c f i libucrt:output.obj
 0001:00121498       ??$write_multiple_characters@V?$string_output_adapter@D@__crt_stdio_output@@D@__crt_stdio_output@@YAXAEBV?$string_output_adapter@D@0@DHQEAH@Z 0000000140122498 f i libucrt:output.obj
 0001:00121510       ??0_LocaleUpdate@@QEAA@QEAU__crt_locale_pointers@@@Z 0000000140122510 f i libucrt:output.obj
 0001:001215ac       ??1_LocaleUpdate@@QEAA@XZ  00000001401225ac f i libucrt:output.obj
 0001:001216f0       ?crop_zeroes@__crt_stdio_output@@YAXPEADQEAU__crt_locale_pointers@@@Z 00000001401226f0 f i libucrt:output.obj
 0001:00121790       ?force_decimal_point@__crt_stdio_output@@YAXPEADQEAU__crt_locale_pointers@@@Z 0000000140122790 f i libucrt:output.obj
 0001:00121808       ?parse_int_from_format_string@?$output_processor@DV?$stream_output_adapter@D@__crt_stdio_output@@V?$standard_base@DV?$stream_output_adapter@D@__crt_stdio_output@@@2@@__crt_stdio_output@@AEAA_NQEAH@Z 0000000140122808 f i libucrt:output.obj
 0001:00121808       ?parse_int_from_format_string@?$output_processor@DV?$string_output_adapter@D@__crt_stdio_output@@V?$format_validation_base@DV?$string_output_adapter@D@__crt_stdio_output@@@2@@__crt_stdio_output@@AEAA_NQEAH@Z 0000000140122808 f i libucrt:output.obj
 0001:00121808       ?parse_int_from_format_string@?$output_processor@DV?$string_output_adapter@D@__crt_stdio_output@@V?$standard_base@DV?$string_output_adapter@D@__crt_stdio_output@@@2@@__crt_stdio_output@@AEAA_NQEAH@Z 0000000140122808 f i libucrt:output.obj
 0001:001218ac       ?process@?$output_processor@DV?$stream_output_adapter@D@__crt_stdio_output@@V?$standard_base@DV?$stream_output_adapter@D@__crt_stdio_output@@@2@@__crt_stdio_output@@QEAAHXZ 00000001401228ac f i libucrt:output.obj
 0001:00121ac0       ?process@?$output_processor@DV?$string_output_adapter@D@__crt_stdio_output@@V?$format_validation_base@DV?$string_output_adapter@D@__crt_stdio_output@@@2@@__crt_stdio_output@@QEAAHXZ 0000000140122ac0 f i libucrt:output.obj
 0001:00121cd4       ?process@?$output_processor@DV?$string_output_adapter@D@__crt_stdio_output@@V?$standard_base@DV?$string_output_adapter@D@__crt_stdio_output@@@2@@__crt_stdio_output@@QEAAHXZ 0000000140122cd4 f i libucrt:output.obj
 0001:00121edc       ?state_case_normal@?$output_processor@DV?$stream_output_adapter@D@__crt_stdio_output@@V?$standard_base@DV?$stream_output_adapter@D@__crt_stdio_output@@@2@@__crt_stdio_output@@AEAA_NXZ 0000000140122edc f i libucrt:output.obj
 0001:00121f4c       ?state_case_normal@?$output_processor@DV?$string_output_adapter@D@__crt_stdio_output@@V?$format_validation_base@DV?$string_output_adapter@D@__crt_stdio_output@@@2@@__crt_stdio_output@@AEAA_NXZ 0000000140122f4c f i libucrt:output.obj
 0001:00121f4c       ?state_case_normal@?$output_processor@DV?$string_output_adapter@D@__crt_stdio_output@@V?$standard_base@DV?$string_output_adapter@D@__crt_stdio_output@@@2@@__crt_stdio_output@@AEAA_NXZ 0000000140122f4c f i libucrt:output.obj
 0001:00121fc0       ?state_case_normal_tchar@?$output_processor@DV?$stream_output_adapter@D@__crt_stdio_output@@V?$standard_base@DV?$stream_output_adapter@D@__crt_stdio_output@@@2@@__crt_stdio_output@@AEAA_ND@Z 0000000140122fc0 f i libucrt:output.obj
 0001:00122064       ?state_case_normal_tchar@?$output_processor@DV?$string_output_adapter@D@__crt_stdio_output@@V?$format_validation_base@DV?$string_output_adapter@D@__crt_stdio_output@@@2@@__crt_stdio_output@@AEAA_ND@Z 0000000140123064 f i libucrt:output.obj
 0001:00122064       ?state_case_normal_tchar@?$output_processor@DV?$string_output_adapter@D@__crt_stdio_output@@V?$standard_base@DV?$string_output_adapter@D@__crt_stdio_output@@@2@@__crt_stdio_output@@AEAA_ND@Z 0000000140123064 f i libucrt:output.obj
 0001:0012210c       ?state_case_size@?$output_processor@DV?$stream_output_adapter@D@__crt_stdio_output@@V?$standard_base@DV?$stream_output_adapter@D@__crt_stdio_output@@@2@@__crt_stdio_output@@AEAA_NXZ 000000014012310c f i libucrt:output.obj
 0001:0012227c       ?state_case_size@?$output_processor@DV?$string_output_adapter@D@__crt_stdio_output@@V?$format_validation_base@DV?$string_output_adapter@D@__crt_stdio_output@@@2@@__crt_stdio_output@@AEAA_NXZ 000000014012327c f i libucrt:output.obj
 0001:0012227c       ?state_case_size@?$output_processor@DV?$string_output_adapter@D@__crt_stdio_output@@V?$standard_base@DV?$string_output_adapter@D@__crt_stdio_output@@@2@@__crt_stdio_output@@AEAA_NXZ 000000014012327c f i libucrt:output.obj
 0001:001223ec       ?state_case_type@?$output_processor@DV?$stream_output_adapter@D@__crt_stdio_output@@V?$standard_base@DV?$stream_output_adapter@D@__crt_stdio_output@@@2@@__crt_stdio_output@@AEAA_NXZ 00000001401233ec f i libucrt:output.obj
 0001:00122670       ?state_case_type@?$output_processor@DV?$string_output_adapter@D@__crt_stdio_output@@V?$format_validation_base@DV?$string_output_adapter@D@__crt_stdio_output@@@2@@__crt_stdio_output@@AEAA_NXZ 0000000140123670 f i libucrt:output.obj
 0001:00122670       ?state_case_type@?$output_processor@DV?$string_output_adapter@D@__crt_stdio_output@@V?$standard_base@DV?$string_output_adapter@D@__crt_stdio_output@@@2@@__crt_stdio_output@@AEAA_NXZ 0000000140123670 f i libucrt:output.obj
 0001:001228e0       ?to_integer_size@__crt_stdio_output@@YA_KW4length_modifier@1@@Z 00000001401238e0 f i libucrt:output.obj
 0001:00122948       ?type_case_Z@?$output_processor@DV?$stream_output_adapter@D@__crt_stdio_output@@V?$standard_base@DV?$stream_output_adapter@D@__crt_stdio_output@@@2@@__crt_stdio_output@@AEAA_NXZ 0000000140123948 f i libucrt:output.obj
 0001:00122948       ?type_case_Z@?$output_processor@DV?$string_output_adapter@D@__crt_stdio_output@@V?$format_validation_base@DV?$string_output_adapter@D@__crt_stdio_output@@@2@@__crt_stdio_output@@AEAA_NXZ 0000000140123948 f i libucrt:output.obj
 0001:00122948       ?type_case_Z@?$output_processor@DV?$string_output_adapter@D@__crt_stdio_output@@V?$standard_base@DV?$string_output_adapter@D@__crt_stdio_output@@@2@@__crt_stdio_output@@AEAA_NXZ 0000000140123948 f i libucrt:output.obj
 0001:001229bc       ?type_case_a@?$output_processor@DV?$stream_output_adapter@D@__crt_stdio_output@@V?$standard_base@DV?$stream_output_adapter@D@__crt_stdio_output@@@2@@__crt_stdio_output@@AEAA_NXZ 00000001401239bc f i libucrt:output.obj
 0001:001229bc       ?type_case_a@?$output_processor@DV?$string_output_adapter@D@__crt_stdio_output@@V?$format_validation_base@DV?$string_output_adapter@D@__crt_stdio_output@@@2@@__crt_stdio_output@@AEAA_NXZ 00000001401239bc f i libucrt:output.obj
 0001:001229bc       ?type_case_a@?$output_processor@DV?$string_output_adapter@D@__crt_stdio_output@@V?$standard_base@DV?$string_output_adapter@D@__crt_stdio_output@@@2@@__crt_stdio_output@@AEAA_NXZ 00000001401239bc f i libucrt:output.obj
 0001:00122b78       ?type_case_c_tchar@?$output_processor@DV?$stream_output_adapter@D@__crt_stdio_output@@V?$standard_base@DV?$stream_output_adapter@D@__crt_stdio_output@@@2@@__crt_stdio_output@@AEAA_ND@Z 0000000140123b78 f i libucrt:output.obj
 0001:00122b78       ?type_case_c_tchar@?$output_processor@DV?$string_output_adapter@D@__crt_stdio_output@@V?$format_validation_base@DV?$string_output_adapter@D@__crt_stdio_output@@@2@@__crt_stdio_output@@AEAA_ND@Z 0000000140123b78 f i libucrt:output.obj
 0001:00122b78       ?type_case_c_tchar@?$output_processor@DV?$string_output_adapter@D@__crt_stdio_output@@V?$standard_base@DV?$string_output_adapter@D@__crt_stdio_output@@@2@@__crt_stdio_output@@AEAA_ND@Z 0000000140123b78 f i libucrt:output.obj
 0001:00122c40       ?type_case_integer@?$output_processor@DV?$stream_output_adapter@D@__crt_stdio_output@@V?$standard_base@DV?$stream_output_adapter@D@__crt_stdio_output@@@2@@__crt_stdio_output@@AEAA_NI_N@Z 0000000140123c40 f i libucrt:output.obj
 0001:00122c40       ?type_case_integer@?$output_processor@DV?$string_output_adapter@D@__crt_stdio_output@@V?$format_validation_base@DV?$string_output_adapter@D@__crt_stdio_output@@@2@@__crt_stdio_output@@AEAA_NI_N@Z 0000000140123c40 f i libucrt:output.obj
 0001:00122c40       ?type_case_integer@?$output_processor@DV?$string_output_adapter@D@__crt_stdio_output@@V?$standard_base@DV?$string_output_adapter@D@__crt_stdio_output@@@2@@__crt_stdio_output@@AEAA_NI_N@Z 0000000140123c40 f i libucrt:output.obj
 0001:00122dc0       ?type_case_n@?$output_processor@DV?$stream_output_adapter@D@__crt_stdio_output@@V?$standard_base@DV?$stream_output_adapter@D@__crt_stdio_output@@@2@@__crt_stdio_output@@AEAA_NXZ 0000000140123dc0 f i libucrt:output.obj
 0001:00122dc0       ?type_case_n@?$output_processor@DV?$string_output_adapter@D@__crt_stdio_output@@V?$format_validation_base@DV?$string_output_adapter@D@__crt_stdio_output@@@2@@__crt_stdio_output@@AEAA_NXZ 0000000140123dc0 f i libucrt:output.obj
 0001:00122dc0       ?type_case_n@?$output_processor@DV?$string_output_adapter@D@__crt_stdio_output@@V?$standard_base@DV?$string_output_adapter@D@__crt_stdio_output@@@2@@__crt_stdio_output@@AEAA_NXZ 0000000140123dc0 f i libucrt:output.obj
 0001:00122e48       ?type_case_s@?$output_processor@DV?$stream_output_adapter@D@__crt_stdio_output@@V?$standard_base@DV?$stream_output_adapter@D@__crt_stdio_output@@@2@@__crt_stdio_output@@AEAA_NXZ 0000000140123e48 f i libucrt:output.obj
 0001:00122e48       ?type_case_s@?$output_processor@DV?$string_output_adapter@D@__crt_stdio_output@@V?$format_validation_base@DV?$string_output_adapter@D@__crt_stdio_output@@@2@@__crt_stdio_output@@AEAA_NXZ 0000000140123e48 f i libucrt:output.obj
 0001:00122e48       ?type_case_s@?$output_processor@DV?$string_output_adapter@D@__crt_stdio_output@@V?$standard_base@DV?$string_output_adapter@D@__crt_stdio_output@@@2@@__crt_stdio_output@@AEAA_NXZ 0000000140123e48 f i libucrt:output.obj
 0001:00122ee0       ?validate_stream_is_ansi_if_required@?$__acrt_stdio_char_traits@D@@SA_NQEAU_iobuf@@@Z 0000000140123ee0 f i libucrt:output.obj
 0001:00122f7c       ?write_stored_string_tchar@?$output_processor@DV?$stream_output_adapter@D@__crt_stdio_output@@V?$standard_base@DV?$stream_output_adapter@D@__crt_stdio_output@@@2@@__crt_stdio_output@@AEAA_ND@Z 0000000140123f7c f i libucrt:output.obj
 0001:001230a0       ?write_stored_string_tchar@?$output_processor@DV?$string_output_adapter@D@__crt_stdio_output@@V?$format_validation_base@DV?$string_output_adapter@D@__crt_stdio_output@@@2@@__crt_stdio_output@@AEAA_ND@Z 00000001401240a0 f i libucrt:output.obj
 0001:001230a0       ?write_stored_string_tchar@?$output_processor@DV?$string_output_adapter@D@__crt_stdio_output@@V?$standard_base@DV?$string_output_adapter@D@__crt_stdio_output@@@2@@__crt_stdio_output@@AEAA_ND@Z 00000001401240a0 f i libucrt:output.obj
 0001:0012317c       ?write_string@?$string_output_adapter@D@__crt_stdio_output@@QEBAXQEBDHQEAHAEAV__crt_deferred_errno_cache@@@Z 000000014012417c f i libucrt:output.obj
 0001:00123220       ?write_string_impl@?$output_adapter_common@DV?$stream_output_adapter@D@__crt_stdio_output@@@__crt_stdio_output@@IEBAXQEBDHQEAHAEAV__crt_deferred_errno_cache@@@Z 0000000140124220 f i libucrt:output.obj
 0001:00123318       __stdio_common_vfprintf    0000000140124318 f   libucrt:output.obj
 0001:001233a4       __stdio_common_vsprintf    00000001401243a4 f   libucrt:output.obj
 0001:001233ac       __stdio_common_vsprintf_s  00000001401243ac f   libucrt:output.obj
 0001:00123410       _fdsign                    0000000140124410 f   libucrt:nanf.obj
 0001:00123424       frexp                      0000000140124424 f   libucrt:frexp.obj
 0001:0012351c       calloc                     000000014012451c f   libucrt:calloc.obj
 0001:00123524       free                       0000000140124524 f   libucrt:free.obj
 0001:001235e0       strcspn                    00000001401245e0 f   libucrt:strcspn.obj
 0001:001239b0       localeconv                 00000001401249b0 f   libucrt:localeconv.obj
 0001:001239e4       _dsign                     00000001401249e4 f   libucrt:nan.obj
 0001:001239e4       _ldsign                    00000001401249e4 f   libucrt:nanl.obj
 0001:001239fc       acosf                      00000001401249fc f   libucrt:acosf.obj
 0001:00123c30       cosf                       0000000140124c30 f   libucrt:cosf.obj
 0001:00124130       sinf                       0000000140125130 f   libucrt:sinf.obj
 0001:00124828       _aligned_free              0000000140125828 f   libucrt:align.obj
 0001:00124844       _aligned_malloc            0000000140125844 f   libucrt:align.obj
 0001:001248c4       atan2f                     00000001401258c4 f   libucrt:atan2f.obj
 0001:00124cb4       fmodf                      0000000140125cb4 f   libucrt:fmodf.obj
 0001:00124ef8       __acrt_initialize_stdio    0000000140125ef8 f   libucrt:_file.obj
 0001:00125018       __acrt_iob_func            0000000140126018 f   libucrt:_file.obj
 0001:0012502c       __acrt_uninitialize_stdio  000000014012602c f   libucrt:_file.obj
 0001:00125088       _get_stream_buffer_pointers 0000000140126088 f   libucrt:_file.obj
 0001:001250d0       _lock_file                 00000001401260d0 f   libucrt:_file.obj
 0001:001250dc       _unlock_file               00000001401260dc f   libucrt:_file.obj
 0001:001250e8       _fclose_nolock             00000001401260e8 f   libucrt:fclose.obj
 0001:0012516c       fclose                     000000014012616c f   libucrt:fclose.obj
 0001:001253ec       __acrt_stdio_flush_nolock  00000001401263ec f   libucrt:fflush.obj
 0001:00125468       _fflush_nolock             0000000140126468 f   libucrt:fflush.obj
 0001:001254b4       _flushall                  00000001401264b4 f   libucrt:fflush.obj
 0001:001254bc       fflush                     00000001401264bc f   libucrt:fflush.obj
 0001:00125524       _fgetc_nolock              0000000140126524 f   libucrt:fgetc.obj
 0001:00125568       fgetc                      0000000140126568 f   libucrt:fgetc.obj
 0001:00125670       fgetpos                    0000000140126670 f   libucrt:fgetpos.obj
 0001:001256bc       _fputc_nolock              00000001401266bc f   libucrt:fputc.obj
 0001:001256d4       fputc                      00000001401266d4 f   libucrt:fputc.obj
 0001:001257f8       _fread_nolock_s            00000001401267f8 f   libucrt:fread.obj
 0001:00125a58       fread                      0000000140126a58 f   libucrt:fread.obj
 0001:00125a78       fread_s                    0000000140126a78 f   libucrt:fread.obj
 0001:00125b20       fsetpos                    0000000140126b20 f   libucrt:fsetpos.obj
 0001:00125d60       _fseeki64                  0000000140126d60 f   libucrt:fseek.obj
 0001:00125d68       fseek                      0000000140126d68 f   libucrt:fseek.obj
 0001:00125e14       _fwrite_nolock             0000000140126e14 f   libucrt:fwrite.obj
 0001:00125fc0       fwrite                     0000000140126fc0 f   libucrt:fwrite.obj
 0001:00126168       setvbuf                    0000000140127168 f   libucrt:setvbuf.obj
 0001:00126204       _ungetc_nolock             0000000140127204 f   libucrt:ungetc.obj
 0001:0012632c       ungetc                     000000014012732c f   libucrt:ungetc.obj
 0001:00126384       __acrt_errno_from_os_error 0000000140127384 f   libucrt:errno.obj
 0001:001263cc       __acrt_errno_map_os_error  00000001401273cc f   libucrt:errno.obj
 0001:0012641c       __doserrno                 000000014012741c f   libucrt:errno.obj
 0001:0012643c       _errno                     000000014012743c f   libucrt:errno.obj
 0001:0012645c       ??$__acrt_mbs_to_wcs_cp@U__crt_win32_buffer_internal_dynamic_resizing@@@@YAHQEBDAEAV?$__crt_win32_buffer@_WU__crt_win32_buffer_internal_dynamic_resizing@@@@I@Z 000000014012745c f i libucrt:strftime.obj
 0001:001265d4       ??$__acrt_wcs_to_mbs_cp@U__crt_win32_buffer_no_resizing@@@@YAHQEB_WAEAV?$__crt_win32_buffer@DU__crt_win32_buffer_no_resizing@@@@I@Z 00000001401275d4 f i libucrt:strftime.obj
 0001:001266e8       malloc                     00000001401276e8 f   libucrt:malloc.obj
 0001:001266f0       realloc                    00000001401276f0 f   libucrt:realloc.obj
 0001:00126700       cos                        0000000140127700 f   libucrt:cos.obj
 0001:00126c80       sin                        0000000140127c80 f   libucrt:sin.obj
 0001:001271f0       tanf                       00000001401281f0 f   libucrt:tanf.obj
 0001:001279ec       _fsopen                    00000001401289ec f   libucrt:fopen.obj
 0001:001279f4       _wfopen                    00000001401289f4 f   libucrt:fopen.obj
 0001:00127a00       fopen                      0000000140128a00 f   libucrt:fopen.obj
 0001:00127a0c       fopen_s                    0000000140128a0c f   libucrt:fopen.obj
 0001:00127a80       strcmp                     0000000140128a80 f   libucrt:strcmp.obj
 0001:00127af0       pow                        0000000140128af0 f   libucrt:pow.obj
 0001:00129184       ??$is_overflow_condition@_K@__crt_strtox@@YA_NI_K@Z 000000014012a184 f i libucrt:atox.obj
 0001:001291b4       ??$parse_integer@KV?$c_string_character_source@D@__crt_strtox@@@__crt_strtox@@YAKQEAU__crt_locale_pointers@@V?$c_string_character_source@D@0@H_N@Z 000000014012a1b4 f i libucrt:atox.obj
 0001:001294b8       ??$parse_integer@KV?$c_string_character_source@_W@__crt_strtox@@@__crt_strtox@@YAKQEAU__crt_locale_pointers@@V?$c_string_character_source@_W@0@H_N@Z 000000014012a4b8 f i libucrt:atox.obj
 0001:00129b60       ??$parse_integer@_KV?$c_string_character_source@D@__crt_strtox@@@__crt_strtox@@YA_KQEAU__crt_locale_pointers@@V?$c_string_character_source@D@0@H_N@Z 000000014012ab60 f i libucrt:atox.obj
 0001:00129e50       _ischartype_l              000000014012ae50 f i libucrt:atox.obj
 0001:00129ec8       _wtol                      000000014012aec8 f   libucrt:atox.obj
 0001:00129ef4       atoi                       000000014012aef4 f   libucrt:atox.obj
 0001:00129f20       strtol                     000000014012af20 f   libucrt:strtox.obj
 0001:00129f4c       strtoul                    000000014012af4c f   libucrt:strtox.obj
 0001:00129f78       strtoull                   000000014012af78 f   libucrt:strtox.obj
 0001:0012a4e4       _ftelli64                  000000014012b4e4 f   libucrt:ftell.obj
 0001:0012a4ec       _ftelli64_nolock           000000014012b4ec f   libucrt:ftell.obj
 0001:0012a4f4       ftell                      000000014012b4f4 f   libucrt:ftell.obj
 0001:0012a4fc       log2                       000000014012b4fc f   libucrt:log2.obj
 0001:0012a824       strnlen                    000000014012b824 f   libucrt:strnlen.obj
 0001:0012a974       wcsnlen                    000000014012b974 f   libucrt:strnlen.obj
 0001:0012ab60       strncpy                    000000014012bb60 f   libucrt:strncpy.obj
 0001:0012acc4       ??$parse_floating_point@V?$input_adapter_character_source@V?$string_input_adapter@D@__crt_stdio_input@@@__crt_strtox@@M@__crt_strtox@@YA?AW4SLD_STATUS@@QEAU__crt_locale_pointers@@V?$input_adapter_character_source@V?$string_input_adapter@D@__crt_stdio_input@@@0@QEAM@Z 000000014012bcc4 f i libucrt:input.obj
 0001:0012ad6c       ??$parse_floating_point@V?$input_adapter_character_source@V?$string_input_adapter@D@__crt_stdio_input@@@__crt_strtox@@N@__crt_strtox@@YA?AW4SLD_STATUS@@QEAU__crt_locale_pointers@@V?$input_adapter_character_source@V?$string_input_adapter@D@__crt_stdio_input@@@0@QEAN@Z 000000014012bd6c f i libucrt:input.obj
 0001:0012ae14       ??$parse_floating_point_from_source@V?$input_adapter_character_source@V?$string_input_adapter@D@__crt_stdio_input@@@__crt_strtox@@@__crt_strtox@@YA?AW4floating_point_parse_result@0@QEAU__crt_locale_pointers@@AEAV?$input_adapter_character_source@V?$string_input_adapter@D@__crt_stdio_input@@@0@AEAUfloating_point_string@0@@Z 000000014012be14 f i libucrt:input.obj
 0001:0012b64c       ??$parse_floating_point_possible_infinity@DV?$input_adapter_character_source@V?$string_input_adapter@D@__crt_stdio_input@@@__crt_strtox@@_K@__crt_strtox@@YA?AW4floating_point_parse_result@0@AEADAEAV?$input_adapter_character_source@V?$string_input_adapter@D@__crt_stdio_input@@@0@_K@Z 000000014012c64c f i libucrt:input.obj
 0001:0012b884       ??$parse_floating_point_possible_nan@DV?$input_adapter_character_source@V?$string_input_adapter@D@__crt_stdio_input@@@__crt_strtox@@_K@__crt_strtox@@YA?AW4floating_point_parse_result@0@AEADAEAV?$input_adapter_character_source@V?$string_input_adapter@D@__crt_stdio_input@@@0@_K@Z 000000014012c884 f i libucrt:input.obj
 0001:0012bba4       ??$parse_floating_point_possible_nan_is_ind@DV?$input_adapter_character_source@V?$string_input_adapter@D@__crt_stdio_input@@@__crt_strtox@@@__crt_strtox@@YA_NAEADAEAV?$input_adapter_character_source@V?$string_input_adapter@D@__crt_stdio_input@@@0@@Z 000000014012cba4 f i libucrt:input.obj
 0001:0012bc1c       ??$parse_floating_point_possible_nan_is_snan@DV?$input_adapter_character_source@V?$string_input_adapter@D@__crt_stdio_input@@@__crt_strtox@@@__crt_strtox@@YA_NAEADAEAV?$input_adapter_character_source@V?$string_input_adapter@D@__crt_stdio_input@@@0@@Z 000000014012cc1c f i libucrt:input.obj
 0001:0012bc94       ??$parse_floating_point_write_result@M@__crt_strtox@@YA?AW4SLD_STATUS@@W4floating_point_parse_result@0@AEBUfloating_point_string@0@QEAM@Z 000000014012cc94 f i libucrt:input.obj
 0001:0012be04       ??$parse_floating_point_write_result@N@__crt_strtox@@YA?AW4SLD_STATUS@@W4floating_point_parse_result@0@AEBUfloating_point_string@0@QEAN@Z 000000014012ce04 f i libucrt:input.obj
 0001:0012bfe4       ??$parse_integer@_KV?$input_adapter_character_source@V?$string_input_adapter@D@__crt_stdio_input@@@__crt_strtox@@@__crt_strtox@@YA_KQEAU__crt_locale_pointers@@V?$input_adapter_character_source@V?$string_input_adapter@D@__crt_stdio_input@@@0@H_N@Z 000000014012cfe4 f i libucrt:input.obj
 0001:0012c3f0       ??$process_floating_point_specifier_t@M@?$input_processor@DV?$string_input_adapter@D@__crt_stdio_input@@@__crt_stdio_input@@AEAA_NXZ 000000014012d3f0 f i libucrt:input.obj
 0001:0012c494       ??$process_floating_point_specifier_t@N@?$input_processor@DV?$string_input_adapter@D@__crt_stdio_input@@@__crt_stdio_input@@AEAA_NXZ 000000014012d494 f i libucrt:input.obj
 0001:0012c53c       ??$process_string_specifier_tchar@D@?$input_processor@DV?$string_input_adapter@D@__crt_stdio_input@@@__crt_stdio_input@@AEAA_NW4conversion_mode@1@D@Z 000000014012d53c f i libucrt:input.obj
 0001:0012c6f0       ??$process_string_specifier_tchar@_W@?$input_processor@DV?$string_input_adapter@D@__crt_stdio_input@@@__crt_stdio_input@@AEAA_NW4conversion_mode@1@_W@Z 000000014012d6f0 f i libucrt:input.obj
 0001:0012c8d8       ??$skip_whitespace@Vstring_input_adapter@__crt_stdio_input@@D@__crt_stdio_input@@YAHAEAV?$string_input_adapter@D@0@QEAU__crt_locale_pointers@@@Z 000000014012d8d8 f i libucrt:input.obj
 0001:0012c92c       ?advance@?$format_string_parser@D@__crt_stdio_input@@QEAA_NXZ 000000014012d92c f i libucrt:input.obj
 0001:0012caf4       ?as_double@floating_point_value@__crt_strtox@@QEBAAEANXZ 000000014012daf4 f i libucrt:input.obj
 0001:0012cb30       ?as_float@floating_point_value@__crt_strtox@@QEBAAEAMXZ 000000014012db30 f i libucrt:input.obj
 0001:0012cb6c       ?assemble_floating_point_value@__crt_strtox@@YA?AW4SLD_STATUS@@_KH_N1AEBVfloating_point_value@1@@Z 000000014012db6c f i libucrt:input.obj
 0001:0012cf0c       ?assemble_floating_point_value_from_big_integer@__crt_strtox@@YA?AW4SLD_STATUS@@AEBUbig_integer@1@I_N1AEBVfloating_point_value@1@@Z 000000014012df0c f i libucrt:input.obj
 0001:0012d06c       ?convert_decimal_string_to_floating_type_common@__crt_strtox@@YA?AW4SLD_STATUS@@AEBUfloating_point_string@1@AEBVfloating_point_value@1@@Z 000000014012e06c f i libucrt:input.obj
 0001:0012eebc       ?convert_hexadecimal_string_to_floating_type_common@__crt_strtox@@YA?AW4SLD_STATUS@@AEBUfloating_point_string@1@AEBVfloating_point_value@1@@Z 000000014012febc f i libucrt:input.obj
 0001:0012ef70       ?divide@__crt_strtox@@YA_KAEAUbig_integer@1@AEBU21@@Z 000000014012ff70 f i libucrt:input.obj
 0001:0012f39c       ?length@?$format_string_parser@D@__crt_stdio_input@@QEBA_KXZ 000000014013039c f i libucrt:input.obj
 0001:0012f438       ?process@?$input_processor@DV?$string_input_adapter@D@__crt_stdio_input@@@__crt_stdio_input@@QEAAHXZ 0000000140130438 f i libucrt:input.obj
 0001:0012f52c       ?process_conversion_specifier@?$input_processor@DV?$string_input_adapter@D@__crt_stdio_input@@@__crt_stdio_input@@AEAA_NXZ 000000014013052c f i libucrt:input.obj
 0001:0012f64c       ?process_floating_point_specifier@?$input_processor@DV?$string_input_adapter@D@__crt_stdio_input@@@__crt_stdio_input@@AEAA_NXZ 000000014013064c f i libucrt:input.obj
 0001:0012f6bc       ?process_integer_specifier@?$input_processor@DV?$string_input_adapter@D@__crt_stdio_input@@@__crt_stdio_input@@AEAA_NI_N@Z 00000001401306bc f i libucrt:input.obj
 0001:0012f774       ?process_literal_character_tchar@?$input_processor@DV?$string_input_adapter@D@__crt_stdio_input@@@__crt_stdio_input@@AEAA_ND@Z 0000000140130774 f i libucrt:input.obj
 0001:0012f7f8       ?process_state@?$input_processor@DV?$string_input_adapter@D@__crt_stdio_input@@@__crt_stdio_input@@AEAA_NXZ 00000001401307f8 f i libucrt:input.obj
 0001:0012f8b0       ?process_string_specifier@?$input_processor@DV?$string_input_adapter@D@__crt_stdio_input@@@__crt_stdio_input@@AEAA_NW4conversion_mode@2@@Z 00000001401308b0 f i libucrt:input.obj
 0001:0012f93c       ?scan_conversion_specifier@?$format_string_parser@D@__crt_stdio_input@@AEAA_NXZ 000000014013093c f i libucrt:input.obj
 0001:0012fae0       ?scan_optional_field_width@?$format_string_parser@D@__crt_stdio_input@@AEAA_NXZ 0000000140130ae0 f i libucrt:input.obj
 0001:0012fb88       ?scan_optional_length_modifier@?$format_string_parser@D@__crt_stdio_input@@AEAAXXZ 0000000140130b88 f i libucrt:input.obj
 0001:0012fcc0       ?scan_scanset_range@?$format_string_parser@D@__crt_stdio_input@@AEAA_NXZ 0000000140130cc0 f i libucrt:input.obj
 0001:0012fe74       ?write_character@?$input_processor@DV?$string_input_adapter@D@__crt_stdio_input@@@__crt_stdio_input@@AEAA_NQEFA_W_KAEAPEFA_WAEA_KD@Z 0000000140130e74 f i libucrt:input.obj
 0001:0012ff0c       ?write_integer@?$input_processor@DV?$string_input_adapter@D@__crt_stdio_input@@@__crt_stdio_input@@AEAA_N_K@Z 0000000140130f0c f i libucrt:input.obj
 0001:0012ff84       __stdio_common_vsscanf     0000000140130f84 f   libucrt:input.obj
 0001:00130120       qsort                      0000000140131120 f   libucrt:qsort.obj
 0001:001304d0       strncmp                    00000001401314d0 f   libucrt:strncmp.obj
 0001:001305c4       ??$parse_floating_point@V?$c_string_character_source@D@__crt_strtox@@N@__crt_strtox@@YA?AW4SLD_STATUS@@QEAU__crt_locale_pointers@@V?$c_string_character_source@D@0@QEAN@Z 00000001401315c4 f i libucrt:atof.obj
 0001:00130664       ??$parse_floating_point_from_source@V?$c_string_character_source@D@__crt_strtox@@@__crt_strtox@@YA?AW4floating_point_parse_result@0@QEAU__crt_locale_pointers@@AEAV?$c_string_character_source@D@0@AEAUfloating_point_string@0@@Z 0000000140131664 f i libucrt:atof.obj
 0001:00130b14       ??$parse_floating_point_possible_infinity@DV?$c_string_character_source@D@__crt_strtox@@PEBD@__crt_strtox@@YA?AW4floating_point_parse_result@0@AEADAEAV?$c_string_character_source@D@0@PEBD@Z 0000000140131b14 f i libucrt:atof.obj
 0001:00130c70       ??$parse_floating_point_possible_nan@DV?$c_string_character_source@D@__crt_strtox@@PEBD@__crt_strtox@@YA?AW4floating_point_parse_result@0@AEADAEAV?$c_string_character_source@D@0@PEBD@Z 0000000140131c70 f i libucrt:atof.obj
 0001:00130e5c       ??$parse_floating_point_possible_nan_is_ind@DV?$c_string_character_source@D@__crt_strtox@@@__crt_strtox@@YA_NAEADAEAV?$c_string_character_source@D@0@@Z 0000000140131e5c f i libucrt:atof.obj
 0001:00130ea0       ??$parse_floating_point_possible_nan_is_snan@DV?$c_string_character_source@D@__crt_strtox@@@__crt_strtox@@YA_NAEADAEAV?$c_string_character_source@D@0@@Z 0000000140131ea0 f i libucrt:atof.obj
 0001:00130ee4       atof                       0000000140131ee4 f   libucrt:atof.obj
 0001:00130ef0       log                        0000000140131ef0 f   libucrt:log.obj
 0001:00131420       logf                       0000000140132420 f   libucrt:logf.obj
 0001:00131820       powf                       0000000140132820 f   libucrt:powf.obj
 0001:00132a44       _wcstombs_s_l              0000000140133a44 f   libucrt:wcstombs.obj
 0001:00132b2c       wcstombs                   0000000140133b2c f   libucrt:wcstombs.obj
 0001:00132b34       ldexp                      0000000140133b34 f   libucrt:ldexp.obj
 0001:00132ca4       feof                       0000000140133ca4 f   libucrt:feoferr.obj
 0001:00132cd0       ferror                     0000000140133cd0 f   libucrt:feoferr.obj
 0001:00132da8       fputs                      0000000140133da8 f   libucrt:fputs.obj
 0001:00132eb0       rand                       0000000140133eb0 f   libucrt:rand.obj
 0001:00132fa0       strspn                     0000000140133fa0 f   libucrt:strspn.obj
 0001:00133370       fmaxf                      0000000140134370 f   libucrt:fmaxf.obj
 0001:001333d4       fminf                      00000001401343d4 f   libucrt:fminf.obj
 0001:00133438       __acrt_initialize_locks    0000000140134438 f   libucrt:locks.obj
 0001:00133480       __acrt_lock                0000000140134480 f   libucrt:locks.obj
 0001:0013349c       __acrt_uninitialize_locks  000000014013449c f   libucrt:locks.obj
 0001:001334d4       __acrt_unlock              00000001401344d4 f   libucrt:locks.obj
 0001:001334f0       _lock_locales              00000001401344f0 f   libucrt:locks.obj
 0001:0013350c       _unlock_locales            000000014013450c f   libucrt:locks.obj
 0001:001337f8       setlocale                  00000001401347f8 f   libucrt:setlocale.obj
 0001:00133844       __pctype_func              0000000140134844 f   libucrt:ctype.obj
 0001:00133880       islower                    0000000140134880 f   libucrt:_ctype.obj
 0001:00133930       isspace                    0000000140134930 f   libucrt:_ctype.obj
 0001:001339e0       isupper                    00000001401349e0 f   libucrt:_ctype.obj
 0001:00133a88       ___lc_codepage_func        0000000140134a88 f   libucrt:initctype.obj
 0001:00133ab8       ___lc_locale_name_func     0000000140134ab8 f   libucrt:initctype.obj
 0001:00133aec       ___mb_cur_max_func         0000000140134aec f   libucrt:initctype.obj
 0001:00133b1c       __acrt_locale_initialize_ctype 0000000140134b1c f   libucrt:initctype.obj
 0001:00134180       _wcsdup                    0000000140135180 f   libucrt:wcsdup.obj
 0001:00134204       abort                      0000000140135204 f   libucrt:abort.obj
 0001:0013425c       __strncnt                  000000014013525c f   libucrt:strncnt.obj
 0001:00134274       _seh_filter_exe            0000000140135274 f   libucrt:exception_filter.obj
 0001:00134664       __acrt_initialize_thread_local_exit_callback 0000000140135664 f   libucrt:exit.obj
 0001:0013466c       _c_exit                    000000014013566c f   libucrt:exit.obj
 0001:0013467c       _cexit                     000000014013567c f   libucrt:exit.obj
 0001:0013468c       _exit                      000000014013568c f   libucrt:exit.obj
 0001:00134698       _register_thread_local_exe_atexit_callback 0000000140135698 f   libucrt:exit.obj
 0001:001346d4       exit                       00000001401356d4 f   libucrt:exit.obj
 0001:001348a0       __acrt_allocate_buffer_for_argv 00000001401358a0 f   libucrt:argv_parsing.obj
 0001:00134900       _configure_narrow_argv     0000000140135900 f   libucrt:argv_parsing.obj
 0001:00134d4c       __dcrt_get_or_create_narrow_environment_nolock 0000000140135d4c f   libucrt:environment_initialization.obj
 0001:00134d88       __dcrt_uninitialize_environments_nolock 0000000140135d88 f   libucrt:environment_initialization.obj
 0001:00134dc0       _get_initial_narrow_environment 0000000140135dc0 f   libucrt:environment_initialization.obj
 0001:00134e10       _initialize_narrow_environment 0000000140135e10 f   libucrt:environment_initialization.obj
 0001:00135158       _crt_atexit                0000000140136158 f   libucrt:onexit.obj
 0001:00135168       _execute_onexit_table      0000000140136168 f   libucrt:onexit.obj
 0001:001351a4       _initialize_onexit_table   00000001401361a4 f   libucrt:onexit.obj
 0001:001351cc       _register_onexit_function  00000001401361cc f   libucrt:onexit.obj
 0001:00135340       __acrt_initialize          0000000140136340 f   libucrt:initialization.obj
 0001:00135354       __acrt_uninitialize        0000000140136354 f   libucrt:initialization.obj
 0001:0013538c       _query_app_type            000000014013638c f   libucrt:report_runtime_error.obj
 0001:00135394       _set_app_type              0000000140136394 f   libucrt:report_runtime_error.obj
 0001:0013539c       __acrt_has_user_matherr    000000014013639c f   libucrt:matherr.obj
 0001:001353bc       __acrt_initialize_user_matherr 00000001401363bc f   libucrt:matherr.obj
 0001:001353c4       __acrt_invoke_user_matherr 00000001401363c4 f   libucrt:matherr.obj
 0001:001353f4       __setusermatherr           00000001401363f4 f   libucrt:matherr.obj
 0001:0013541c       _initterm                  000000014013641c f   libucrt:initterm.obj
 0001:00135480       _initterm_e                0000000140136480 f   libucrt:initterm.obj
 0001:001354c0       _get_fmode                 00000001401364c0 f   libucrt:setmode.obj
 0001:001354f0       _set_fmode                 00000001401364f0 f   libucrt:setmode.obj
 0001:00135530       _setmode_nolock            0000000140136530 f   libucrt:setmode.obj
 0001:00135610       __acrt_initialize_command_line 0000000140136610 f   libucrt:argv_data.obj
 0001:00135638       __p___argc                 0000000140136638 f   libucrt:argv_data.obj
 0001:00135640       __p___argv                 0000000140136640 f   libucrt:argv_data.obj
 0001:001358b0       ?commit_locale_name@_expandlocale_locale_name_cache@@QEAAXQEB_W_K@Z 00000001401368b0 f i libucrt:wsetlocale.obj
 0001:00135928       __acrt_copy_locale_name    0000000140136928 f   libucrt:wsetlocale.obj
 0001:001359ac       __acrt_set_locale_changed  00000001401369ac f   libucrt:wsetlocale.obj
 0001:001359b8       __acrt_uninitialize_locale 00000001401369b8 f   libucrt:wsetlocale.obj
 0001:001359e8       __lc_lctowcs               00000001401369e8 f   libucrt:wsetlocale.obj
 0001:00135a8c       __lc_wcstolc               0000000140136a8c f   libucrt:wsetlocale.obj
 0001:00135bf4       _configthreadlocale        0000000140136bf4 f   libucrt:wsetlocale.obj
 0001:001361a0       _wcscats                   00000001401371a0 f   libucrt:wsetlocale.obj
 0001:00136208       _wsetlocale                0000000140137208 f   libucrt:wsetlocale.obj
 0001:00136f58       _query_new_mode            0000000140137f58 f   libucrt:new_mode.obj
 0001:00136f60       _set_new_mode              0000000140137f60 f   libucrt:new_mode.obj
 0001:00136f8c       __p__commode               0000000140137f8c f   libucrt:ncommode.obj
 0001:00136f94       terminate                  0000000140137f94 f   libucrt:terminate.obj
 0001:00136fb4       strcpy_s                   0000000140137fb4 f   libucrt:strcpy_s.obj
 0001:00137014       wcsncmp                    0000000140138014 f   libucrt:wcsncmp.obj
 0001:001373b8       __acrt_getptd              00000001401383b8 f   libucrt:per_thread_data.obj
 0001:0013748c       __acrt_getptd_head         000000014013848c f   libucrt:per_thread_data.obj
 0001:00137534       __acrt_getptd_noexit       0000000140138534 f   libucrt:per_thread_data.obj
 0001:00137600       __acrt_initialize_ptd      0000000140138600 f   libucrt:per_thread_data.obj
 0001:0013763c       __acrt_uninitialize_ptd    000000014013863c f   libucrt:per_thread_data.obj
 0001:00137660       _free_base                 0000000140138660 f   libucrt:free_base.obj
 0001:001376a0       _malloc_base               00000001401386a0 f   libucrt:malloc_base.obj
 0001:00137700       _mbtowc_l                  0000000140138700 f   libucrt:mbtowc.obj
 0001:00137880       mbtowc                     0000000140138880 f   libucrt:mbtowc.obj
 0001:00137888       _wctomb_s_l                0000000140138888 f   libucrt:wctomb.obj
 0001:00137a24       __acrt_update_locale_info  0000000140138a24 f   libucrt:locale_update.obj
 0001:00137a58       __acrt_update_multibyte_info 0000000140138a58 f   libucrt:locale_update.obj
 0001:00138498       __acrt_fp_format           0000000140139498 f   libucrt:cvt.obj
 0001:001387d4       _fileno                    00000001401397d4 f   libucrt:fileno.obj
 0001:001387fc       _get_printf_count_output   00000001401397fc f   libucrt:printf_count_output.obj
 0001:00138814       __acrt_should_use_temporary_buffer 0000000140139814 f   libucrt:_sftbuf.obj
 0001:0013885c       __acrt_stdio_begin_temporary_buffering_nolock 000000014013985c f   libucrt:_sftbuf.obj
 0001:00138924       __acrt_stdio_end_temporary_buffering_nolock 0000000140139924 f   libucrt:_sftbuf.obj
 0001:00138b5c       __acrt_initialize_lowio    0000000140139b5c f   libucrt:ioinit.obj
 0001:00138b98       __acrt_uninitialize_lowio  0000000140139b98 f   libucrt:ioinit.obj
 0001:00138bd8       _fdtest                    0000000140139bd8 f   libucrt:_test.obj
 0001:00138c24       _errcode                   0000000140139c24 f   libucrt:fpexcept.obj
 0001:00138c68       _except1                   0000000140139c68 f   libucrt:fpexcept.obj
 0001:00138d5c       _except2                   0000000140139d5c f   libucrt:fpexcept.obj
 0001:00138e64       _handle_exc                0000000140139e64 f   libucrt:fpexcept.obj
 0001:001390cc       _handle_qnan2              000000014013a0cc f   libucrt:fpexcept.obj
 0001:001390d4       _raise_exc                 000000014013a0d4 f   libucrt:fpexcept.obj
 0001:001390fc       _raise_exc_ex              000000014013a0fc f   libucrt:fpexcept.obj
 0001:0013940c       _raise_excf                000000014013a40c f   libucrt:fpexcept.obj
 0001:00139438       _set_errno_from_matherr    000000014013a438 f   libucrt:fpexcept.obj
 0001:00139468       _umatherr                  000000014013a468 f   libucrt:fpexcept.obj
 0001:0013953c       _decomp                    000000014013a53c f   libucrt:util.obj
 0001:0013966c       _set_exp                   000000014013a66c f   libucrt:util.obj
 0001:001396a4       _sptype                    000000014013a6a4 f   libucrt:util.obj
 0001:00139718       _clrfp                     000000014013a718 f   libucrt:fpctrl.obj
 0001:00139738       _ctrlfp                    000000014013a738 f   libucrt:fpctrl.obj
 0001:001397b4       _set_statfp                000000014013a7b4 f   libucrt:fpctrl.obj
 0001:001397d4       _statfp                    000000014013a7d4 f   libucrt:fpctrl.obj
 0001:001397e8       _calloc_base               000000014013a7e8 f   libucrt:calloc_base.obj
 0001:00139984       _handle_error              000000014013a984 f   libucrt:libm_error.obj
 0001:00139aac       _handle_errorf             000000014013aaac f   libucrt:libm_error.obj
 0001:00139be0       _handle_nan                000000014013abe0 f   libucrt:libm_error.obj
 0001:00139bfc       _handle_nanf               000000014013abfc f   libucrt:libm_error.obj
 0001:00139c10       __remainder_piby2d2f_forAsm 000000014013ac10 f   libucrt:remainder_piby2f_forasm.obj
 0001:00139d60       __remainder_piby2_fma3     000000014013ad60 f   libucrt:remainder_piby2_forfma3.obj
 0001:00139f50       __remainder_piby2_fma3_bdl 000000014013af50 f   libucrt:remainder_piby2_forfma3.obj
 0001:00139fc8       _cos_special               000000014013afc8 f   libucrt:sincos_special.obj
 0001:00139fdc       _cosf_special              000000014013afdc f   libucrt:sincos_special.obj
 0001:00139ff0       _sin_special               000000014013aff0 f   libucrt:sincos_special.obj
 0001:0013a134       _sinf_special              000000014013b134 f   libucrt:sincos_special.obj
 0001:0013a148       _tanf_special              000000014013b148 f   libucrt:sincos_special.obj
 0001:0013a160       __acrt_initialize_fma3     000000014013b160 f   libucrt:fma3_available.obj
 0001:0013a1d0       __remainder_piby2d2f_forC  000000014013b1d0 f   libucrt:remainder_piby2f_forc.obj
 0001:0013a35c       _msize_base                000000014013b35c f   libucrt:msize.obj
 0001:0013a614       __acrt_AppPolicyGetProcessTerminationMethodInternal 000000014013b614 f   libucrt:winapi_thunks.obj
 0001:0013a664       __acrt_AreFileApisANSI     000000014013b664 f   libucrt:winapi_thunks.obj
 0001:0013a6a0       __acrt_CompareStringEx     000000014013b6a0 f   libucrt:winapi_thunks.obj
 0001:0013a77c       __acrt_EnumSystemLocalesEx 000000014013b77c f   libucrt:winapi_thunks.obj
 0001:0013a814       __acrt_FlsAlloc            000000014013b814 f   libucrt:winapi_thunks.obj
 0001:0013a85c       __acrt_FlsFree             000000014013b85c f   libucrt:winapi_thunks.obj
 0001:0013a8a4       __acrt_FlsGetValue         000000014013b8a4 f   libucrt:winapi_thunks.obj
 0001:0013a8ec       __acrt_FlsSetValue         000000014013b8ec f   libucrt:winapi_thunks.obj
 0001:0013a940       __acrt_GetLocaleInfoEx     000000014013b940 f   libucrt:winapi_thunks.obj
 0001:0013a9c4       __acrt_GetUserDefaultLocaleName 000000014013b9c4 f   libucrt:winapi_thunks.obj
 0001:0013aa28       __acrt_InitializeCriticalSectionEx 000000014013ba28 f   libucrt:winapi_thunks.obj
 0001:0013aa8c       __acrt_IsValidLocaleName   000000014013ba8c f   libucrt:winapi_thunks.obj
 0001:0013aae4       __acrt_LCIDToLocaleName    000000014013bae4 f   libucrt:winapi_thunks.obj
 0001:0013ab54       __acrt_LCMapStringEx       000000014013bb54 f   libucrt:winapi_thunks.obj
 0001:0013ac30       __acrt_LocaleNameToLCID    000000014013bc30 f   libucrt:winapi_thunks.obj
 0001:0013ac80       __acrt_can_use_vista_locale_apis 000000014013bc80 f   libucrt:winapi_thunks.obj
 0001:0013acb0       __acrt_eagerly_load_locale_apis 000000014013bcb0 f   libucrt:winapi_thunks.obj
 0001:0013ae0c       __acrt_initialize_winapi_thunks 000000014013be0c f   libucrt:winapi_thunks.obj
 0001:0013ae40       __acrt_uninitialize_winapi_thunks 000000014013be40 f   libucrt:winapi_thunks.obj
 0001:0013ae84       _fcloseall                 000000014013be84 f   libucrt:closeall.obj
 0001:0013af38       __acrt_stdio_free_buffer_nolock 000000014013bf38 f   libucrt:_freebuf.obj
 0001:0013afec       _close                     000000014013bfec f   libucrt:close.obj
 0001:0013b090       _close_nolock              000000014013c090 f   libucrt:close.obj
 0001:0013b150       ?__acrt_stdio_allocate_stream@@YA?AV__crt_stdio_stream@@XZ 000000014013c150 f   libucrt:stream.obj
 0001:0013b1a8       ?__acrt_stdio_free_stream@@YAXV__crt_stdio_stream@@@Z 000000014013c1a8 f   libucrt:stream.obj
 0001:0013b33c       _commit                    000000014013c33c f   libucrt:commit.obj
 0001:0013bc4c       _write                     000000014013cc4c f   libucrt:write.obj
 0001:0013bd38       _write_nolock              000000014013cd38 f   libucrt:write.obj
 0001:0013c01c       __acrt_stdio_refill_and_read_narrow_nolock 000000014013d01c f   libucrt:_filbuf.obj
 0001:0013c2e8       __acrt_stdio_flush_and_write_narrow_nolock 000000014013d2e8 f   libucrt:_flsbuf.obj
 0001:0013c908       _read                      000000014013d908 f   libucrt:read.obj
 0001:0013ca24       _read_nolock               000000014013da24 f   libucrt:read.obj
 0001:0013d008       _lseeki64                  000000014013e008 f   libucrt:lseek.obj
 0001:0013d010       _lseeki64_nolock           000000014013e010 f   libucrt:lseek.obj
 0001:0013d018       __acrt_stdio_allocate_buffer_nolock 000000014013e018 f   libucrt:_getbuf.obj
 0001:0013d084       __acrt_initialize_timeset  000000014013e084 f   libucrt:timeset.obj
 0001:0013d0d4       _isleadbyte_l              000000014013e0d4 f i libucrt:_wctype.obj
 0001:0013d438       __acrt_LCMapStringA        000000014013e438 f   libucrt:lcmapstringa.obj
 0001:0013d4d0       __acrt_MultiByteToWideChar 000000014013e4d0 f   libucrt:multibytetowidechar.obj
 0001:0013d52c       __acrt_WideCharToMultiByte 000000014013e52c f   libucrt:widechartomultibyte.obj
 0001:0013d5dc       _realloc_base              000000014013e5dc f   libucrt:realloc_base.obj
 0001:0013d660       __remainder_piby2_forAsm   000000014013e660 f   libucrt:remainder_piby2_forasm.obj
 0001:0013d870       __remainder_piby2_cw_forAsm 000000014013e870 f   libucrt:remainder_piby2_forasm.obj
 0001:0013d9a4       ??$__acrt_stdio_parse_mode@D@@YA?AU__acrt_stdio_stream_mode@@QEBD@Z 000000014013e9a4 f i libucrt:openfile.obj
 0001:0013dc68       ??$__acrt_stdio_parse_mode@_W@@YA?AU__acrt_stdio_stream_mode@@QEB_W@Z 000000014013ec68 f i libucrt:openfile.obj
 0001:0013df6c       _openfile                  000000014013ef6c f   libucrt:openfile.obj
 0001:0013e008       _wopenfile                 000000014013f008 f   libucrt:openfile.obj
 0001:0013e0b0       _pow_special               000000014013f0b0 f   libucrt:pow_special.obj
 0001:0013e1d4       _powf_special              000000014013f1d4 f   libucrt:pow_special.obj
 0001:0013e360       iswctype                   000000014013f360 f   libucrt:iswctype.obj
 0001:0013e3cc       _isctype_l                 000000014013f3cc f   libucrt:isctype.obj
 0001:0013e4d4       fegetround                 000000014013f4d4 f   libucrt:fegetround.obj
 0001:0013e4f0       _log10_special             000000014013f4f0 f   libucrt:log_special.obj
 0001:0013e510       _log_special               000000014013f510 f   libucrt:log_special.obj
 0001:0013e5c8       _logf_special              000000014013f5c8 f   libucrt:log_special.obj
 0001:0013e690       ?__wcsrtombs_utf8@__crt_mbstring@@YA_KPEADPEAPEB_W_KPEAU_Mbstatet@@@Z 000000014013f690 f   libucrt:wcrtomb.obj
 0001:0013e7ac       _copysign                  000000014013f7ac f   libucrt:_copysign.obj
 0001:0013e9e0       _mbstowcs_s_l              000000014013f9e0 f   libucrt:mbstowcs.obj
 0001:0013eb14       mbstowcs_s                 000000014013fb14 f   libucrt:mbstowcs.obj
 0001:0013ecb0       __acrt_GetLocaleInfoA      000000014013fcb0 f   libucrt:getlocaleinfoa.obj
 0001:0013ee78       __acrt_GetStringTypeA      000000014013fe78 f   libucrt:getstringtypea.obj
 0001:0013f008       wcscpy_s                   0000000140140008 f   libucrt:wcscpy_s.obj
 0001:0013f0b8       __acrt_get_sigabrt_handler 00000001401400b8 f   libucrt:signal.obj
 0001:0013f0e8       __acrt_initialize_signal_handlers 00000001401400e8 f   libucrt:signal.obj
 0001:0013f108       raise                      0000000140140108 f   libucrt:signal.obj
 0001:0013f374       __ascii_wcsicmp            0000000140140374 f   libucrt:wcsicmp.obj
 0001:0013f3b4       _wcsicmp                   00000001401403b4 f   libucrt:wcsicmp.obj
 0001:0013f3fc       _wcsicmp_l                 00000001401403fc f   libucrt:wcsicmp.obj
 0001:0013f524       __acrt_get_process_end_policy 0000000140140524 f   libucrt:win_policies.obj
 0001:0013f574       ??$__acrt_wcs_to_mbs_cp@U__crt_win32_buffer_internal_dynamic_resizing@@@@YAHQEB_WAEAV?$__crt_win32_buffer@DU__crt_win32_buffer_internal_dynamic_resizing@@@@I@Z 0000000140140574 f i libucrt:argv_wildcards.obj
 0001:0013fda4       __acrt_expand_narrow_argv_wildcards 0000000140140da4 f   libucrt:argv_wildcards.obj
 0001:0013fdac       __acrt_GetModuleFileNameA  0000000140140dac f   libucrt:getmodulefilenamea.obj
 0001:001405f4       __acrt_initialize_multibyte 00000001401415f4 f   libucrt:mbctype.obj
 0001:00140654       __acrt_update_thread_multibyte_data 0000000140141654 f   libucrt:mbctype.obj
 0001:00140670       _setmbcp_nolock            0000000140141670 f   libucrt:mbctype.obj
 0001:001409a4       _ismbblead                 00000001401419a4 f   libucrt:ismbbyte.obj
 0001:001409b8       __dcrt_get_narrow_environment_from_os 00000001401419b8 f   libucrt:get_environment_from_os.obj
 0001:00140ec4       __dcrt_set_variable_in_narrow_environment_nolock 0000000140141ec4 f   libucrt:setenv.obj
 0001:00140ecc       _recalloc_base             0000000140141ecc f   libucrt:recalloc.obj
 0001:00140f64       __acrt_initialize_heap     0000000140141f64 f   libucrt:heap_handle.obj
 0001:00140f80       __acrt_uninitialize_heap   0000000140141f80 f   libucrt:heap_handle.obj
 0001:00140f8c       __acrt_execute_initializers 0000000140141f8c f   libucrt:shared_initialization.obj
 0001:0014100c       __acrt_execute_uninitializers 000000014014200c f   libucrt:shared_initialization.obj
 0001:00141048       __acrt_initialize_new_handler 0000000140142048 f   libucrt:new_handler.obj
 0001:00141050       _callnewh                  0000000140142050 f   libucrt:new_handler.obj
 0001:00141080       _query_new_handler         0000000140142080 f   libucrt:new_handler.obj
 0001:001410b4       wcscat_s                   00000001401420b4 f   libucrt:wcscat_s.obj
 0001:00141134       wcsncpy_s                  0000000140142134 f   libucrt:wcsncpy_s.obj
 0001:00141218       __acrt_lowio_create_handle_array 0000000140142218 f   libucrt:osfinfo.obj
 0001:001412c0       __acrt_lowio_destroy_handle_array 00000001401422c0 f   libucrt:osfinfo.obj
 0001:00141310       __acrt_lowio_ensure_fh_exists 0000000140142310 f   libucrt:osfinfo.obj
 0001:001413b8       __acrt_lowio_lock_fh       00000001401423b8 f   libucrt:osfinfo.obj
 0001:001413e0       __acrt_lowio_set_os_handle 00000001401423e0 f   libucrt:osfinfo.obj
 0001:001414a0       __acrt_lowio_unlock_fh     00000001401424a0 f   libucrt:osfinfo.obj
 0001:001414c8       _alloc_osfhnd              00000001401424c8 f   libucrt:osfinfo.obj
 0001:00141608       _free_osfhnd               0000000140142608 f   libucrt:osfinfo.obj
 0001:001416c4       _get_osfhandle             00000001401426c4 f   libucrt:osfinfo.obj
 0001:0014173c       __acrt_initialize_fmode    000000014014273c f   libucrt:txtmode.obj
 0001:00141758       __acrt_locale_free_monetary 0000000140142758 f   libucrt:initmon.obj
 0001:00141864       __acrt_locale_initialize_monetary 0000000140142864 f   libucrt:initmon.obj
 0001:00141d98       __acrt_locale_free_numeric 0000000140142d98 f   libucrt:initnum.obj
 0001:00141e04       __acrt_locale_initialize_numeric 0000000140142e04 f   libucrt:initnum.obj
 0001:00142484       __acrt_locale_free_time    0000000140143484 f   libucrt:inittime.obj
 0001:0014258c       __acrt_locale_initialize_time 000000014014358c f   libucrt:inittime.obj
 0001:00142628       wcsncat_s                  0000000140143628 f   libucrt:wcsncat_s.obj
 0001:00142728       wcscspn                    0000000140143728 f   libucrt:wcscspn.obj
 0001:00142768       wcspbrk                    0000000140143768 f   libucrt:wcspbrk.obj
 0001:0014279c       __acrt_add_locale_ref      000000014014379c f   libucrt:locale_refcounting.obj
 0001:00142828       __acrt_free_locale         0000000140143828 f   libucrt:locale_refcounting.obj
 0001:001429a0       __acrt_locale_add_lc_time_reference 00000001401439a0 f   libucrt:locale_refcounting.obj
 0001:001429c8       __acrt_locale_free_lc_time_if_unreferenced 00000001401439c8 f   libucrt:locale_refcounting.obj
 0001:00142a00       __acrt_locale_release_lc_time_reference 0000000140143a00 f   libucrt:locale_refcounting.obj
 0001:00142a28       __acrt_release_locale_ref  0000000140143a28 f   libucrt:locale_refcounting.obj
 0001:00142ad0       __acrt_update_thread_locale_data 0000000140143ad0 f   libucrt:locale_refcounting.obj
 0001:00142b40       _updatetlocinfoEx_nolock   0000000140143b40 f   libucrt:locale_refcounting.obj
 0001:0014335c       __acrt_get_qualified_locale 000000014014435c f   libucrt:get_qualified_locale.obj
 0001:00143d90       __acrt_get_qualified_locale_downlevel 0000000140144d90 f   libucrt:getqloc_downlevel.obj
 0001:00144010       ?__mbrtowc_utf8@__crt_mbstring@@YA_KPEA_WPEBD_KPEAU_Mbstatet@@@Z 0000000140145010 f   libucrt:mbrtowc.obj
 0001:0014404c       ?__mbsrtowcs_utf8@__crt_mbstring@@YA_KPEA_WPEAPEBD_KPEAU_Mbstatet@@@Z 000000014014504c f   libucrt:mbrtowc.obj
 0001:001441c4       ?__c32rtomb_utf8@__crt_mbstring@@YA_KPEAD_UPEAU_Mbstatet@@@Z 00000001401451c4 f   libucrt:c32rtomb.obj
 0001:00144278       c32rtomb                   0000000140145278 f   libucrt:c32rtomb.obj
 0001:00144280       __acrt_fp_strflt_to_string 0000000140145280 f   libucrt:_fptostr.obj
 0001:001443f0       __acrt_fltout              00000001401453f0 f   libucrt:cfout.obj
 0001:00145630       _isatty                    0000000140146630 f   libucrt:isatty.obj
 0001:00145690       __acrt_fenv_get_common_round_control 0000000140146690 f   libucrt:_fenvutils.obj
 0001:0014569c       __acrt_fenv_get_control    000000014014669c f   libucrt:_fenvutils.obj
 0001:00145790       __acrt_fenv_get_status     0000000140146790 f   libucrt:_fenvutils.obj
 0001:001457e4       __acrt_fenv_set_control    00000001401467e4 f   libucrt:_fenvutils.obj
 0001:0014592c       __acrt_fenv_set_status     000000014014692c f   libucrt:_fenvutils.obj
 0001:001459c0       _get_fpsr                  00000001401469c0 f   libucrt:fpsr.obj
 0001:001459d0       _set_fpsr                  00000001401469d0 f   libucrt:fpsr.obj
 0001:001459da       _fclrf                     00000001401469da f   libucrt:fpsr.obj
 0001:001459ee       _frnd                      00000001401469ee f   libucrt:fpsr.obj
 0001:00145a10       __acrt_DownlevelLCIDToLocaleName 0000000140146a10 f   libucrt:lcidtoname_downlevel.obj
 0001:00145b04       __acrt_DownlevelLocaleNameToLCID 0000000140146b04 f   libucrt:lcidtoname_downlevel.obj
 0001:00145bb4       _putwch_nolock             0000000140146bb4 f   libucrt:putwch.obj
 0001:00145bf0       __ascii_wcsnicmp           0000000140146bf0 f   libucrt:wcsnicmp.obj
 0001:00145c3c       _wcsnicmp                  0000000140146c3c f   libucrt:wcsnicmp.obj
 0001:00145c84       _wcsnicmp_l                0000000140146c84 f   libucrt:wcsnicmp.obj
 0001:00145dd4       __ascii_strnicmp           0000000140146dd4 f   libucrt:strnicmp.obj
 0001:00145e20       _strnicmp                  0000000140146e20 f   libucrt:strnicmp.obj
 0001:00145e70       _strnicmp_l                0000000140146e70 f   libucrt:strnicmp.obj
 0001:0014660c       _sopen_nolock              000000014014760c f   libucrt:open.obj
 0001:00146724       _sopen_s                   0000000140147724 f   libucrt:open.obj
 0001:00146758       _wsopen_nolock             0000000140147758 f   libucrt:open.obj
 0001:00146b40       _wsopen_s                  0000000140147b40 f   libucrt:open.obj
 0001:00146b74       __acrt_GetStringTypeW      0000000140147b74 f   libucrt:getstringtypew.obj
 0001:00146b7c       ?__c16rtomb_utf8@__crt_mbstring@@YA_KPEAD_SPEAU_Mbstatet@@@Z 0000000140147b7c f   libucrt:c16rtomb.obj
 0001:00146c20       strncpy_s                  0000000140147c20 f   libucrt:strncpy_s.obj
 0001:00146cf4       _towlower_l                0000000140147cf4 f   libucrt:towlower.obj
 0001:00146e50       strpbrk                    0000000140147e50 f   libucrt:strpbrk.obj
 0001:00147218       _mbsdec                    0000000140148218 f   libucrt:mbsdec.obj
 0001:00147220       _mbsdec_l                  0000000140148220 f   libucrt:mbsdec.obj
 0001:001472cc       _strnicoll                 00000001401482cc f   libucrt:strnicol.obj
 0001:001472e4       _strnicoll_l               00000001401482e4 f   libucrt:strnicol.obj
 0001:001473e4       __acrt_SetEnvironmentVariableA 00000001401483e4 f   libucrt:setenvironmentvariablea.obj
 0001:001476bc       _itow_s                    00000001401486bc f   libucrt:xtoa.obj
 0001:001476dc       wcscmp                     00000001401486dc f   libucrt:wcscmp.obj
 0001:00147714       ?__mbrtoc32_utf8@__crt_mbstring@@YA_KPEA_UPEBD_KPEAU_Mbstatet@@@Z 0000000140148714 f   libucrt:mbrtoc32.obj
 0001:001478ec       _controlfp_s               00000001401488ec f   libucrt:contrlfp.obj
 0001:00147950       fegetenv                   0000000140148950 f   libucrt:fegetenv.obj
 0001:00147970       fesetenv                   0000000140148970 f   libucrt:fesetenv.obj
 0001:001479bc       feholdexcept               00000001401489bc f   libucrt:feholdexcept.obj
 0001:00147a0c       ceil                       0000000140148a0c f   libucrt:ceil.obj
 0001:00147ad0       log10                      0000000140148ad0 f   libucrt:log10.obj
 0001:0014807c       __dcrt_lowio_ensure_console_output_initialized 000000014014907c f   libucrt:initcon.obj
 0001:001480d0       __dcrt_terminate_console_output 00000001401490d0 f   libucrt:initcon.obj
 0001:001480ec       __dcrt_write_console       00000001401490ec f   libucrt:initcon.obj
 0001:001481ac       _chsize_nolock             00000001401491ac f   libucrt:chsize.obj
 0001:00148318       __acrt_LCMapStringW        0000000140149318 f   libucrt:lcmapstringw.obj
 0001:00148700       __acrt_CompareStringA      0000000140149700 f   libucrt:comparestringa.obj
 0001:0014878c       _clearfp                   000000014014978c f   libucrt:ieee.obj
 0001:001487fc       _control87                 00000001401497fc f   libucrt:ieee.obj
 0001:00148ad0       _FindPESection             0000000140149ad0 f   LIBCMT:pesect.obj
 0001:00148b20       _IsNonwritableInCurrentImage 0000000140149b20 f   LIBCMT:pesect.obj
 0001:00148b70       _ValidateImageBase         0000000140149b70 f   LIBCMT:pesect.obj
 0001:00148b9c       __GSHandlerCheck_SEH       0000000140149b9c f   LIBCMT:gshandlerseh.obj
 0001:00148c24       __GSHandlerCheck_EH        0000000140149c24 f   LIBCMT:gshandlereh.obj
 0001:00148ca4       _local_unwind              0000000140149ca4 f   libvcruntime:jmpuwind.obj
 0001:00148cd0       wcschr                     0000000140149cd0 f   libvcruntime:wcschr.obj
 0001:00148d60       _guard_dispatch_icall_nop  0000000140149d60 f   LIBCMT:guard_dispatch.obj
 0001:00148d80       _guard_xfg_dispatch_icall_nop 0000000140149d80 f   LIBCMT:guard_xfg_dispatch.obj
 0001:00148db0       memcpy_repmovs             0000000140149db0 f   libvcruntime:memcpy.obj
 0001:00148dc0       memcpy                     0000000140149dc0 f   libvcruntime:memcpy.obj
 0001:00148dc0       memcpy_$fo_default$        0000000140149dc0     libvcruntime:memcpy.obj
 0001:00148dc0       memmove                    0000000140149dc0 f   libvcruntime:memcpy.obj
 0001:00149450       memset_repstos             000000014014a450 f   libvcruntime:memset.obj
 0001:00149460       memset                     000000014014a460 f   libvcruntime:memset.obj
 0001:00149800       memcmp                     000000014014a800 f   libvcruntime:memcmp.obj
 0001:001498e0       memchr                     000000014014a8e0 f   libvcruntime:memchr.obj
 0001:0014ce80       ??__Finstance@?1??errorCategory@vk@@YAAEBVerror_category@std@@XZ@YAXXZ 000000014014de80 f i Zenith_DebugVariables.obj
 0002:00000000       __imp_CreateBitmap         0000000140150000     gdi32:GDI32.dll
 0002:00000008       __imp_DeleteObject         0000000140150008     gdi32:GDI32.dll
 0002:00000010       __imp_CreateDIBSection     0000000140150010     gdi32:GDI32.dll
 0002:00000018       __imp_CreateDCW            0000000140150018     gdi32:GDI32.dll
 0002:00000020       __imp_DeleteDC             0000000140150020     gdi32:GDI32.dll
 0002:00000028       __imp_GetDeviceCaps        0000000140150028     gdi32:GDI32.dll
 0002:00000030       __imp_GetDeviceGammaRamp   0000000140150030     gdi32:GDI32.dll
 0002:00000038       __imp_SetDeviceGammaRamp   0000000140150038     gdi32:GDI32.dll
 0002:00000040       __imp_ChoosePixelFormat    0000000140150040     gdi32:GDI32.dll
 0002:00000048       __imp_DescribePixelFormat  0000000140150048     gdi32:GDI32.dll
 0002:00000050       __imp_SetPixelFormat       0000000140150050     gdi32:GDI32.dll
 0002:00000058       __imp_SwapBuffers          0000000140150058     gdi32:GDI32.dll
 0002:00000060       __imp_CreateRectRgn        0000000140150060     gdi32:GDI32.dll
 0002:00000068       \177GDI32_NULL_THUNK_DATA  0000000140150068     gdi32:GDI32.dll
 0002:00000070       __imp_ImmReleaseContext    0000000140150070     imm32:IMM32.dll
 0002:00000078       __imp_ImmSetCompositionWindow 0000000140150078     imm32:IMM32.dll
 0002:00000080       __imp_ImmSetCandidateWindow 0000000140150080     imm32:IMM32.dll
 0002:00000088       __imp_ImmGetContext        0000000140150088     imm32:IMM32.dll
 0002:00000090       \177IMM32_NULL_THUNK_DATA  0000000140150090     imm32:IMM32.dll
 0002:00000098       __imp_FlushFileBuffers     0000000140150098     kernel32:KERNEL32.dll
 0002:000000a0       __imp_EnumSystemLocalesW   00000001401500a0     kernel32:KERNEL32.dll
 0002:000000a8       __imp_GetUserDefaultLCID   00000001401500a8     kernel32:KERNEL32.dll
 0002:000000b0       __imp_IsValidLocale        00000001401500b0     kernel32:KERNEL32.dll
 0002:000000b8       __imp_GetLocaleInfoW       00000001401500b8     kernel32:KERNEL32.dll
 0002:000000c0       __imp_LCMapStringW         00000001401500c0     kernel32:KERNEL32.dll
 0002:000000c8       __imp_CompareStringW       00000001401500c8     kernel32:KERNEL32.dll
 0002:000000d0       __imp_HeapSize             00000001401500d0     kernel32:KERNEL32.dll
 0002:000000d8       __imp_HeapReAlloc          00000001401500d8     kernel32:KERNEL32.dll
 0002:000000e0       __imp_GetFileType          00000001401500e0     kernel32:KERNEL32.dll
 0002:000000e8       __imp_HeapAlloc            00000001401500e8     kernel32:KERNEL32.dll
 0002:000000f0       __imp_HeapFree             00000001401500f0     kernel32:KERNEL32.dll
 0002:000000f8       __imp_GetCommandLineW      00000001401500f8     kernel32:KERNEL32.dll
 0002:00000100       __imp_GetCommandLineA      0000000140150100     kernel32:KERNEL32.dll
 0002:00000108       __imp_WriteFile            0000000140150108     kernel32:KERNEL32.dll
 0002:00000110       __imp_GetStdHandle         0000000140150110     kernel32:KERNEL32.dll
 0002:00000118       __imp_GetModuleFileNameW   0000000140150118     kernel32:KERNEL32.dll
 0002:00000120       __imp_ExitProcess          0000000140150120     kernel32:KERNEL32.dll
 0002:00000128       __imp_ReadFile             0000000140150128     kernel32:KERNEL32.dll
 0002:00000130       __imp_LoadLibraryExW       0000000140150130     kernel32:KERNEL32.dll
 0002:00000138       __imp_InitializeCriticalSectionAndSpinCount 0000000140150138     kernel32:KERNEL32.dll
 0002:00000140       __imp_SetLastError         0000000140150140     kernel32:KERNEL32.dll
 0002:00000148       __imp_RtlUnwindEx          0000000140150148     kernel32:KERNEL32.dll
 0002:00000150       __imp_RaiseException       0000000140150150     kernel32:KERNEL32.dll
 0002:00000158       __imp_RtlPcToFileHeader    0000000140150158     kernel32:KERNEL32.dll
 0002:00000160       __imp_TerminateProcess     0000000140150160     kernel32:KERNEL32.dll
 0002:00000168       __imp_GetCurrentProcess    0000000140150168     kernel32:KERNEL32.dll
 0002:00000170       __imp_InitializeSListHead  0000000140150170     kernel32:KERNEL32.dll
 0002:00000178       __imp_GetCurrentProcessId  0000000140150178     kernel32:KERNEL32.dll
 0002:00000180       __imp_IsProcessorFeaturePresent 0000000140150180     kernel32:KERNEL32.dll
 0002:00000188       __imp_SetUnhandledExceptionFilter 0000000140150188     kernel32:KERNEL32.dll
 0002:00000190       __imp_UnhandledExceptionFilter 0000000140150190     kernel32:KERNEL32.dll
 0002:00000198       __imp_IsDebuggerPresent    0000000140150198     kernel32:KERNEL32.dll
 0002:000001a0       __imp_RtlVirtualUnwind     00000001401501a0     kernel32:KERNEL32.dll
 0002:000001a8       __imp_RtlLookupFunctionEntry 00000001401501a8     kernel32:KERNEL32.dll
 0002:000001b0       __imp_RtlCaptureContext    00000001401501b0     kernel32:KERNEL32.dll
 0002:000001b8       __imp_WakeAllConditionVariable 00000001401501b8     kernel32:KERNEL32.dll
 0002:000001c0       __imp_GetCPInfo            00000001401501c0     kernel32:KERNEL32.dll
 0002:000001c8       __imp_GetStringTypeW       00000001401501c8     kernel32:KERNEL32.dll
 0002:000001d0       __imp_GetSystemTimeAsFileTime 00000001401501d0     kernel32:KERNEL32.dll
 0002:000001d8       __imp_LCMapStringEx        00000001401501d8     kernel32:KERNEL32.dll
 0002:000001e0       __imp_DecodePointer        00000001401501e0     kernel32:KERNEL32.dll
 0002:000001e8       __imp_EncodePointer        00000001401501e8     kernel32:KERNEL32.dll
 0002:000001f0       __imp_InitializeCriticalSectionEx 00000001401501f0     kernel32:KERNEL32.dll
 0002:000001f8       __imp_GetFileInformationByHandleEx 00000001401501f8     kernel32:KERNEL32.dll
 0002:00000200       __imp_GetConsoleMode       0000000140150200     kernel32:KERNEL32.dll
 0002:00000208       __imp_AreFileApisANSI      0000000140150208     kernel32:KERNEL32.dll
 0002:00000210       __imp_GetFileAttributesExW 0000000140150210     kernel32:KERNEL32.dll
 0002:00000218       __imp_FindNextFileW        0000000140150218     kernel32:KERNEL32.dll
 0002:00000220       __imp_FindFirstFileExW     0000000140150220     kernel32:KERNEL32.dll
 0002:00000228       __imp_FindFirstFileW       0000000140150228     kernel32:KERNEL32.dll
 0002:00000230       __imp_CloseHandle          0000000140150230     kernel32:KERNEL32.dll
 0002:00000238       __imp_GetLastError         0000000140150238     kernel32:KERNEL32.dll
 0002:00000240       __imp_InitializeCriticalSection 0000000140150240     kernel32:KERNEL32.dll
 0002:00000248       __imp_EnterCriticalSection 0000000140150248     kernel32:KERNEL32.dll
 0002:00000250       __imp_LeaveCriticalSection 0000000140150250     kernel32:KERNEL32.dll
 0002:00000258       __imp_DeleteCriticalSection 0000000140150258     kernel32:KERNEL32.dll
 0002:00000260       __imp_ReleaseSemaphore     0000000140150260     kernel32:KERNEL32.dll
 0002:00000268       __imp_WaitForSingleObject  0000000140150268     kernel32:KERNEL32.dll
 0002:00000270       __imp_CreateThread         0000000140150270     kernel32:KERNEL32.dll
 0002:00000278       __imp_CreateSemaphoreA     0000000140150278     kernel32:KERNEL32.dll
 0002:00000280       __imp_GlobalAlloc          0000000140150280     kernel32:KERNEL32.dll
 0002:00000288       __imp_GlobalUnlock         0000000140150288     kernel32:KERNEL32.dll
 0002:00000290       __imp_GlobalLock           0000000140150290     kernel32:KERNEL32.dll
 0002:00000298       __imp_GlobalFree           0000000140150298     kernel32:KERNEL32.dll
 0002:000002a0       __imp_MultiByteToWideChar  00000001401502a0     kernel32:KERNEL32.dll
 0002:000002a8       __imp_WideCharToMultiByte  00000001401502a8     kernel32:KERNEL32.dll
 0002:000002b0       __imp_Sleep                00000001401502b0     kernel32:KERNEL32.dll
 0002:000002b8       __imp_GetStartupInfoW      00000001401502b8     kernel32:KERNEL32.dll
 0002:000002c0       __imp_GetModuleHandleW     00000001401502c0     kernel32:KERNEL32.dll
 0002:000002c8       __imp_SetThreadExecutionState 00000001401502c8     kernel32:KERNEL32.dll
 0002:000002d0       __imp_TlsAlloc             00000001401502d0     kernel32:KERNEL32.dll
 0002:000002d8       __imp_TlsGetValue          00000001401502d8     kernel32:KERNEL32.dll
 0002:000002e0       __imp_TlsSetValue          00000001401502e0     kernel32:KERNEL32.dll
 0002:000002e8       __imp_TlsFree              00000001401502e8     kernel32:KERNEL32.dll
 0002:000002f0       __imp_FreeLibrary          00000001401502f0     kernel32:KERNEL32.dll
 0002:000002f8       __imp_GetProcAddress       00000001401502f8     kernel32:KERNEL32.dll
 0002:00000300       __imp_LoadLibraryA         0000000140150300     kernel32:KERNEL32.dll
 0002:00000308       __imp_QueryPerformanceCounter 0000000140150308     kernel32:KERNEL32.dll
 0002:00000310       __imp_QueryPerformanceFrequency 0000000140150310     kernel32:KERNEL32.dll
 0002:00000318       __imp_VerSetConditionMask  0000000140150318     kernel32:KERNEL32.dll
 0002:00000320       __imp_GetModuleHandleExW   0000000140150320     kernel32:KERNEL32.dll
 0002:00000328       __imp_FormatMessageW       0000000140150328     kernel32:KERNEL32.dll
 0002:00000330       __imp_GetLocaleInfoEx      0000000140150330     kernel32:KERNEL32.dll
 0002:00000338       __imp_LocalFree            0000000140150338     kernel32:KERNEL32.dll
 0002:00000340       __imp_SleepConditionVariableSRW 0000000140150340     kernel32:KERNEL32.dll
 0002:00000348       __imp_AcquireSRWLockShared 0000000140150348     kernel32:KERNEL32.dll
 0002:00000350       __imp_ReleaseSRWLockShared 0000000140150350     kernel32:KERNEL32.dll
 0002:00000358       __imp_GetCurrentThreadId   0000000140150358     kernel32:KERNEL32.dll
 0002:00000360       __imp_TryAcquireSRWLockExclusive 0000000140150360     kernel32:KERNEL32.dll
 0002:00000368       __imp_AcquireSRWLockExclusive 0000000140150368     kernel32:KERNEL32.dll
 0002:00000370       __imp_ReleaseSRWLockExclusive 0000000140150370     kernel32:KERNEL32.dll
 0002:00000378       __imp_FormatMessageA       0000000140150378     kernel32:KERNEL32.dll
 0002:00000380       __imp_GetConsoleOutputCP   0000000140150380     kernel32:KERNEL32.dll
 0002:00000388       __imp_GetFileSizeEx        0000000140150388     kernel32:KERNEL32.dll
 0002:00000390       __imp_SetFilePointerEx     0000000140150390     kernel32:KERNEL32.dll
 0002:00000398       __imp_ReadConsoleW         0000000140150398     kernel32:KERNEL32.dll
 0002:000003a0       __imp_IsValidCodePage      00000001401503a0     kernel32:KERNEL32.dll
 0002:000003a8       __imp_GetACP               00000001401503a8     kernel32:KERNEL32.dll
 0002:000003b0       __imp_GetOEMCP             00000001401503b0     kernel32:KERNEL32.dll
 0002:000003b8       __imp_GetEnvironmentStringsW 00000001401503b8     kernel32:KERNEL32.dll
 0002:000003c0       __imp_FreeEnvironmentStringsW 00000001401503c0     kernel32:KERNEL32.dll
 0002:000003c8       __imp_SetEnvironmentVariableW 00000001401503c8     kernel32:KERNEL32.dll
 0002:000003d0       __imp_GetProcessHeap       00000001401503d0     kernel32:KERNEL32.dll
 0002:000003d8       __imp_SetStdHandle         00000001401503d8     kernel32:KERNEL32.dll
 0002:000003e0       __imp_WriteConsoleW        00000001401503e0     kernel32:KERNEL32.dll
 0002:000003e8       __imp_SetEndOfFile         00000001401503e8     kernel32:KERNEL32.dll
 0002:000003f0       __imp_RtlUnwind            00000001401503f0     kernel32:KERNEL32.dll
 0002:000003f8       __imp_FindClose            00000001401503f8     kernel32:KERNEL32.dll
 0002:00000400       __imp_CreateFileW          0000000140150400     kernel32:KERNEL32.dll
 0002:00000408       \177KERNEL32_NULL_THUNK_DATA 0000000140150408     kernel32:KERNEL32.dll
 0002:00000410       __imp_DragFinish           0000000140150410     shell32:SHELL32.dll
 0002:00000418       __imp_DragQueryPoint       0000000140150418     shell32:SHELL32.dll
 0002:00000420       __imp_DragQueryFileW       0000000140150420     shell32:SHELL32.dll
 0002:00000428       __imp_ShellExecuteA        0000000140150428     shell32:SHELL32.dll
 0002:00000430       __imp_DragAcceptFiles      0000000140150430     shell32:SHELL32.dll
 0002:00000438       \177SHELL32_NULL_THUNK_DATA 0000000140150438     shell32:SHELL32.dll
 0002:00000440       __imp_GetDC                0000000140150440     user32:USER32.dll
 0002:00000448       __imp_ReleaseDC            0000000140150448     user32:USER32.dll
 0002:00000450       __imp_SetPropW             0000000140150450     user32:USER32.dll
 0002:00000458       __imp_GetPropW             0000000140150458     user32:USER32.dll
 0002:00000460       __imp_RemovePropW          0000000140150460     user32:USER32.dll
 0002:00000468       __imp_SetWindowTextW       0000000140150468     user32:USER32.dll
 0002:00000470       __imp_GetClientRect        0000000140150470     user32:USER32.dll
 0002:00000478       __imp_GetWindowRect        0000000140150478     user32:USER32.dll
 0002:00000480       __imp_AdjustWindowRectEx   0000000140150480     user32:USER32.dll
 0002:00000488       __imp_SetCursorPos         0000000140150488     user32:USER32.dll
 0002:00000490       __imp_SetCursor            0000000140150490     user32:USER32.dll
 0002:00000498       __imp_GetCursorPos         0000000140150498     user32:USER32.dll
 0002:000004a0       __imp_ClientToScreen       00000001401504a0     user32:USER32.dll
 0002:000004a8       __imp_ScreenToClient       00000001401504a8     user32:USER32.dll
 0002:000004b0       __imp_WindowFromPoint      00000001401504b0     user32:USER32.dll
 0002:000004b8       __imp_ClipCursor           00000001401504b8     user32:USER32.dll
 0002:000004c0       __imp_SetRect              00000001401504c0     user32:USER32.dll
 0002:000004c8       __imp_OffsetRect           00000001401504c8     user32:USER32.dll
 0002:000004d0       __imp_PtInRect             00000001401504d0     user32:USER32.dll
 0002:000004d8       __imp_GetWindowLongW       00000001401504d8     user32:USER32.dll
 0002:000004e0       __imp_SetWindowLongW       00000001401504e0     user32:USER32.dll
 0002:000004e8       __imp_GetClassLongPtrW     00000001401504e8     user32:USER32.dll
 0002:000004f0       __imp_LoadCursorW          00000001401504f0     user32:USER32.dll
 0002:000004f8       __imp_DestroyIcon          00000001401504f8     user32:USER32.dll
 0002:00000500       __imp_LoadImageW           0000000140150500     user32:USER32.dll
 0002:00000508       __imp_CreateIconIndirect   0000000140150508     user32:USER32.dll
 0002:00000510       __imp_SystemParametersInfoW 0000000140150510     user32:USER32.dll
 0002:00000518       __imp_MonitorFromWindow    0000000140150518     user32:USER32.dll
 0002:00000520       __imp_SetForegroundWindow  0000000140150520     user32:USER32.dll
 0002:00000528       __imp_GetRawInputData      0000000140150528     user32:USER32.dll
 0002:00000530       __imp_RegisterRawInputDevices 0000000140150530     user32:USER32.dll
 0002:00000538       __imp_RegisterDeviceNotificationW 0000000140150538     user32:USER32.dll
 0002:00000540       __imp_UnregisterDeviceNotification 0000000140150540     user32:USER32.dll
 0002:00000548       __imp_UnregisterClassW     0000000140150548     user32:USER32.dll
 0002:00000550       __imp_ToUnicode            0000000140150550     user32:USER32.dll
 0002:00000558       __imp_ChangeDisplaySettingsExW 0000000140150558     user32:USER32.dll
 0002:00000560       __imp_EnumDisplaySettingsW 0000000140150560     user32:USER32.dll
 0002:00000568       __imp_GetKeyState          0000000140150568     user32:USER32.dll
 0002:00000570       __imp_EnumDisplayDevicesW  0000000140150570     user32:USER32.dll
 0002:00000578       __imp_EnumDisplayMonitors  0000000140150578     user32:USER32.dll
 0002:00000580       __imp_GetRawInputDeviceInfoA 0000000140150580     user32:USER32.dll
 0002:00000588       __imp_GetRawInputDeviceList 0000000140150588     user32:USER32.dll
 0002:00000590       __imp_SetFocus             0000000140150590     user32:USER32.dll
 0002:00000598       __imp_IsZoomed             0000000140150598     user32:USER32.dll
 0002:000005a0       __imp_BringWindowToTop     00000001401505a0     user32:USER32.dll
 0002:000005a8       __imp_IsIconic             00000001401505a8     user32:USER32.dll
 0002:000005b0       __imp_IsWindowVisible      00000001401505b0     user32:USER32.dll
 0002:000005b8       __imp_SetWindowPlacement   00000001401505b8     user32:USER32.dll
 0002:000005c0       __imp_GetWindowPlacement   00000001401505c0     user32:USER32.dll
 0002:000005c8       __imp_SetWindowPos         00000001401505c8     user32:USER32.dll
 0002:000005d0       __imp_MoveWindow           00000001401505d0     user32:USER32.dll
 0002:000005d8       __imp_FlashWindow          00000001401505d8     user32:USER32.dll
 0002:000005e0       __imp_SetLayeredWindowAttributes 00000001401505e0     user32:USER32.dll
 0002:000005e8       __imp_GetLayeredWindowAttributes 00000001401505e8     user32:USER32.dll
 0002:000005f0       __imp_ShowWindow           00000001401505f0     user32:USER32.dll
 0002:000005f8       __imp_DestroyWindow        00000001401505f8     user32:USER32.dll
 0002:00000600       __imp_CreateWindowExW      0000000140150600     user32:USER32.dll
 0002:00000608       __imp_GetSystemMetrics     0000000140150608     user32:USER32.dll
 0002:00000610       __imp_MsgWaitForMultipleObjects 0000000140150610     user32:USER32.dll
 0002:00000618       __imp_ReleaseCapture       0000000140150618     user32:USER32.dll
 0002:00000620       __imp_SetCapture           0000000140150620     user32:USER32.dll
 0002:00000628       __imp_GetMonitorInfoW      0000000140150628     user32:USER32.dll
 0002:00000630       __imp_MapVirtualKeyW       0000000140150630     user32:USER32.dll
 0002:00000638       __imp_RegisterClassExW     0000000140150638     user32:USER32.dll
 0002:00000640       __imp_DefWindowProcW       0000000140150640     user32:USER32.dll
 0002:00000648       __imp_WaitMessage          0000000140150648     user32:USER32.dll
 0002:00000650       __imp_PostMessageW         0000000140150650     user32:USER32.dll
 0002:00000658       __imp_SendMessageW         0000000140150658     user32:USER32.dll
 0002:00000660       __imp_GetMessageTime       0000000140150660     user32:USER32.dll
 0002:00000668       __imp_PeekMessageW         0000000140150668     user32:USER32.dll
 0002:00000670       __imp_DispatchMessageW     0000000140150670     user32:USER32.dll
 0002:00000678       __imp_TranslateMessage     0000000140150678     user32:USER32.dll
 0002:00000680       __imp_TrackMouseEvent      0000000140150680     user32:USER32.dll
 0002:00000688       __imp_SetWindowLongPtrW    0000000140150688     user32:USER32.dll
 0002:00000690       __imp_GetWindowLongPtrW    0000000140150690     user32:USER32.dll
 0002:00000698       __imp_CallWindowProcW      0000000140150698     user32:USER32.dll
 0002:000006a0       __imp_GetMessageExtraInfo  00000001401506a0     user32:USER32.dll
 0002:000006a8       __imp_EmptyClipboard       00000001401506a8     user32:USER32.dll
 0002:000006b0       __imp_GetClipboardData     00000001401506b0     user32:USER32.dll
 0002:000006b8       __imp_SetClipboardData     00000001401506b8     user32:USER32.dll
 0002:000006c0       __imp_CloseClipboard       00000001401506c0     user32:USER32.dll
 0002:000006c8       __imp_OpenClipboard        00000001401506c8     user32:USER32.dll
 0002:000006d0       __imp_EnumDisplaySettingsExW 00000001401506d0     user32:USER32.dll
 0002:000006d8       __imp_GetActiveWindow      00000001401506d8     user32:USER32.dll
 0002:000006e0       \177USER32_NULL_THUNK_DATA 00000001401506e0     user32:USER32.dll
 0002:000006e8       __imp_??1Importer@Assimp@@QEAA@XZ 00000001401506e8     assimp-vc143-mt:assimp-vc143-mt.dll
 0002:000006f0       __imp_?ReadFile@Importer@Assimp@@QEAAPEBUaiScene@@PEBDI@Z 00000001401506f0     assimp-vc143-mt:assimp-vc143-mt.dll
 0002:000006f8       __imp_aiGetMaterialTexture 00000001401506f8     assimp-vc143-mt:assimp-vc143-mt.dll
 0002:00000700       __imp_??0Importer@Assimp@@QEAA@XZ 0000000140150700     assimp-vc143-mt:assimp-vc143-mt.dll
 0002:00000708       \177assimp-vc143-mt_NULL_THUNK_DATA 0000000140150708     assimp-vc143-mt:assimp-vc143-mt.dll
 0002:00000710       __imp_?empty@Mat@cv@@QEBA_NXZ 0000000140150710     opencv_world4100:opencv_world4100.dll
 0002:00000718       __imp_?imread@cv@@YA?AVMat@1@AEBV?$basic_string@DU?$char_traits@D@std@@V?$allocator@D@2@@std@@H@Z 0000000140150718     opencv_world4100:opencv_world4100.dll
 0002:00000720       __imp_??1Mat@cv@@QEAA@XZ   0000000140150720     opencv_world4100:opencv_world4100.dll
 0002:00000728       \177opencv_world4100_NULL_THUNK_DATA 0000000140150728     opencv_world4100:opencv_world4100.dll
 0002:00000730       __imp_vkQueueWaitIdle      0000000140150730     vulkan-1:vulkan-1.dll
 0002:00000738       __imp_vkCreateSampler      0000000140150738     vulkan-1:vulkan-1.dll
 0002:00000740       __imp_vkQueuePresentKHR    0000000140150740     vulkan-1:vulkan-1.dll
 0002:00000748       __imp_vkAcquireNextImageKHR 0000000140150748     vulkan-1:vulkan-1.dll
 0002:00000750       __imp_vkGetSwapchainImagesKHR 0000000140150750     vulkan-1:vulkan-1.dll
 0002:00000758       __imp_vkDestroySwapchainKHR 0000000140150758     vulkan-1:vulkan-1.dll
 0002:00000760       __imp_vkCreateSwapchainKHR 0000000140150760     vulkan-1:vulkan-1.dll
 0002:00000768       __imp_vkGetPhysicalDeviceSurfacePresentModesKHR 0000000140150768     vulkan-1:vulkan-1.dll
 0002:00000770       __imp_vkGetPhysicalDeviceSurfaceFormatsKHR 0000000140150770     vulkan-1:vulkan-1.dll
 0002:00000778       __imp_vkGetPhysicalDeviceSurfaceCapabilitiesKHR 0000000140150778     vulkan-1:vulkan-1.dll
 0002:00000780       __imp_vkCreateFramebuffer  0000000140150780     vulkan-1:vulkan-1.dll
 0002:00000788       __imp_vkCreatePipelineLayout 0000000140150788     vulkan-1:vulkan-1.dll
 0002:00000790       __imp_vkCreateGraphicsPipelines 0000000140150790     vulkan-1:vulkan-1.dll
 0002:00000798       __imp_vkDestroyShaderModule 0000000140150798     vulkan-1:vulkan-1.dll
 0002:000007a0       __imp_vkCreateShaderModule 00000001401507a0     vulkan-1:vulkan-1.dll
 0002:000007a8       __imp_vkGetDeviceImageMemoryRequirements 00000001401507a8     vulkan-1:vulkan-1.dll
 0002:000007b0       __imp_vkGetDeviceBufferMemoryRequirements 00000001401507b0     vulkan-1:vulkan-1.dll
 0002:000007b8       __imp_vkGetPhysicalDeviceMemoryProperties2 00000001401507b8     vulkan-1:vulkan-1.dll
 0002:000007c0       __imp_vkGetBufferMemoryRequirements2 00000001401507c0     vulkan-1:vulkan-1.dll
 0002:000007c8       __imp_vkGetImageMemoryRequirements2 00000001401507c8     vulkan-1:vulkan-1.dll
 0002:000007d0       __imp_vkBindImageMemory2   00000001401507d0     vulkan-1:vulkan-1.dll
 0002:000007d8       __imp_vkBindBufferMemory2  00000001401507d8     vulkan-1:vulkan-1.dll
 0002:000007e0       __imp_vkDestroyImageView   00000001401507e0     vulkan-1:vulkan-1.dll
 0002:000007e8       __imp_vkCreateImageView    00000001401507e8     vulkan-1:vulkan-1.dll
 0002:000007f0       __imp_vkDestroyImage       00000001401507f0     vulkan-1:vulkan-1.dll
 0002:000007f8       __imp_vkCreateImage        00000001401507f8     vulkan-1:vulkan-1.dll
 0002:00000800       __imp_vkDestroyBuffer      0000000140150800     vulkan-1:vulkan-1.dll
 0002:00000808       __imp_vkCreateBuffer       0000000140150808     vulkan-1:vulkan-1.dll
 0002:00000810       __imp_vkGetImageMemoryRequirements 0000000140150810     vulkan-1:vulkan-1.dll
 0002:00000818       __imp_vkGetBufferMemoryRequirements 0000000140150818     vulkan-1:vulkan-1.dll
 0002:00000820       __imp_vkBindImageMemory    0000000140150820     vulkan-1:vulkan-1.dll
 0002:00000828       __imp_vkBindBufferMemory   0000000140150828     vulkan-1:vulkan-1.dll
 0002:00000830       __imp_vkInvalidateMappedMemoryRanges 0000000140150830     vulkan-1:vulkan-1.dll
 0002:00000838       __imp_vkFlushMappedMemoryRanges 0000000140150838     vulkan-1:vulkan-1.dll
 0002:00000840       __imp_vkUnmapMemory        0000000140150840     vulkan-1:vulkan-1.dll
 0002:00000848       __imp_vkMapMemory          0000000140150848     vulkan-1:vulkan-1.dll
 0002:00000850       __imp_vkFreeDescriptorSets 0000000140150850     vulkan-1:vulkan-1.dll
 0002:00000858       __imp_vkAllocateMemory     0000000140150858     vulkan-1:vulkan-1.dll
 0002:00000860       __imp_vkGetDeviceProcAddr  0000000140150860     vulkan-1:vulkan-1.dll
 0002:00000868       __imp_vkGetInstanceProcAddr 0000000140150868     vulkan-1:vulkan-1.dll
 0002:00000870       __imp_vkGetPhysicalDeviceMemoryProperties 0000000140150870     vulkan-1:vulkan-1.dll
 0002:00000878       __imp_vkCmdEndRenderPass   0000000140150878     vulkan-1:vulkan-1.dll
 0002:00000880       __imp_vkCmdBeginRenderPass 0000000140150880     vulkan-1:vulkan-1.dll
 0002:00000888       __imp_vkCmdPushConstants   0000000140150888     vulkan-1:vulkan-1.dll
 0002:00000890       __imp_vkCmdPipelineBarrier 0000000140150890     vulkan-1:vulkan-1.dll
 0002:00000898       __imp_vkCmdCopyBufferToImage 0000000140150898     vulkan-1:vulkan-1.dll
 0002:000008a0       __imp_vkCmdBlitImage       00000001401508a0     vulkan-1:vulkan-1.dll
 0002:000008a8       __imp_vkCmdCopyBuffer      00000001401508a8     vulkan-1:vulkan-1.dll
 0002:000008b0       __imp_vkCmdDrawIndexed     00000001401508b0     vulkan-1:vulkan-1.dll
 0002:000008b8       __imp_vkCmdDraw            00000001401508b8     vulkan-1:vulkan-1.dll
 0002:000008c0       __imp_vkCmdBindVertexBuffers 00000001401508c0     vulkan-1:vulkan-1.dll
 0002:000008c8       __imp_vkCmdBindIndexBuffer 00000001401508c8     vulkan-1:vulkan-1.dll
 0002:000008d0       __imp_vkCmdBindDescriptorSets 00000001401508d0     vulkan-1:vulkan-1.dll
 0002:000008d8       __imp_vkCmdSetScissor      00000001401508d8     vulkan-1:vulkan-1.dll
 0002:000008e0       __imp_vkCmdSetViewport     00000001401508e0     vulkan-1:vulkan-1.dll
 0002:000008e8       __imp_vkCmdBindPipeline    00000001401508e8     vulkan-1:vulkan-1.dll
 0002:000008f0       __imp_vkBeginCommandBuffer 00000001401508f0     vulkan-1:vulkan-1.dll
 0002:000008f8       __imp_vkAllocateCommandBuffers 00000001401508f8     vulkan-1:vulkan-1.dll
 0002:00000900       __imp_vkGetPhysicalDeviceSurfaceSupportKHR 0000000140150900     vulkan-1:vulkan-1.dll
 0002:00000908       __imp_vkGetPhysicalDeviceFeatures2 0000000140150908     vulkan-1:vulkan-1.dll
 0002:00000910       __imp_vkEndCommandBuffer   0000000140150910     vulkan-1:vulkan-1.dll
 0002:00000918       __imp_vkCreateCommandPool  0000000140150918     vulkan-1:vulkan-1.dll
 0002:00000920       __imp_vkCreateRenderPass   0000000140150920     vulkan-1:vulkan-1.dll
 0002:00000928       __imp_vkResetDescriptorPool 0000000140150928     vulkan-1:vulkan-1.dll
 0002:00000930       __imp_vkCreateDescriptorPool 0000000140150930     vulkan-1:vulkan-1.dll
 0002:00000938       __imp_vkCreateSemaphore    0000000140150938     vulkan-1:vulkan-1.dll
 0002:00000940       __imp_vkWaitForFences      0000000140150940     vulkan-1:vulkan-1.dll
 0002:00000948       __imp_vkResetFences        0000000140150948     vulkan-1:vulkan-1.dll
 0002:00000950       __imp_vkCreateFence        0000000140150950     vulkan-1:vulkan-1.dll
 0002:00000958       __imp_vkQueueSubmit        0000000140150958     vulkan-1:vulkan-1.dll
 0002:00000960       __imp_vkGetDeviceQueue     0000000140150960     vulkan-1:vulkan-1.dll
 0002:00000968       __imp_vkCreateDevice       0000000140150968     vulkan-1:vulkan-1.dll
 0002:00000970       __imp_vkGetPhysicalDeviceQueueFamilyProperties 0000000140150970     vulkan-1:vulkan-1.dll
 0002:00000978       __imp_vkGetPhysicalDeviceProperties 0000000140150978     vulkan-1:vulkan-1.dll
 0002:00000980       __imp_vkEnumeratePhysicalDevices 0000000140150980     vulkan-1:vulkan-1.dll
 0002:00000988       __imp_vkCreateInstance     0000000140150988     vulkan-1:vulkan-1.dll
 0002:00000990       __imp_vkUpdateDescriptorSets 0000000140150990     vulkan-1:vulkan-1.dll
 0002:00000998       __imp_vkAllocateDescriptorSets 0000000140150998     vulkan-1:vulkan-1.dll
 0002:000009a0       __imp_vkCreateDescriptorSetLayout 00000001401509a0     vulkan-1:vulkan-1.dll
 0002:000009a8       __imp_vkResetCommandPool   00000001401509a8     vulkan-1:vulkan-1.dll
 0002:000009b0       __imp_vkFreeMemory         00000001401509b0     vulkan-1:vulkan-1.dll
 0002:000009b8       \177vulkan-1_NULL_THUNK_DATA 00000001401509b8     vulkan-1:vulkan-1.dll
 0002:000009c0       __guard_check_icall_fptr   00000001401509c0     LIBCMT:guard_support.obj
 0002:000009c8       __guard_xfg_check_icall_fptr 00000001401509c8     LIBCMT:guard_support.obj
 0002:000009d0       __guard_dispatch_icall_fptr 00000001401509d0     LIBCMT:guard_support.obj
 0002:000009d8       __guard_xfg_dispatch_icall_fptr 00000001401509d8     LIBCMT:guard_support.obj
 0002:000009e0       __guard_xfg_table_dispatch_icall_fptr 00000001401509e0     LIBCMT:guard_support.obj
 0002:000009e8       __castguard_check_failure_os_handled_fptr 00000001401509e8     LIBCMT:guard_support.obj
 0002:000009f0       __guard_memcpy_fptr        00000001401509f0     libvcruntime:softmemtag.obj
 0002:000009f8       __xc_a                     00000001401509f8     LIBCMT:initializers.obj
 0002:00001098       __xc_z                     0000000140151098     LIBCMT:initializers.obj
 0002:000010c0       __xi_a                     00000001401510c0     LIBCMT:initializers.obj
 0002:000010e0       __acrt_stdio_initializer   00000001401510e0     libucrt:stdio_initializer.obj
 0002:000010e8       __acrt_tran_fma3_initializer 00000001401510e8     libucrt:fma3_initializer.obj
 0002:000010f0       __acrt_timeset_initializer 00000001401510f0     libucrt:timeset_initializer.obj
 0002:000010f8       __acrt_multibyte_initializer 00000001401510f8     libucrt:multibyte_initializer.obj
 0002:00001100       __acrt_fmode_initializer   0000000140151100     libucrt:fmode_initializer.obj
 0002:00001108       __xi_z                     0000000140151108     LIBCMT:initializers.obj
 0002:00001110       __xl_a                     0000000140151110     LIBCMT:tlssup.obj
 0002:00001120       __xl_z                     0000000140151120     LIBCMT:tlssup.obj
 0002:00001128       __xp_a                     0000000140151128     LIBCMT:initializers.obj
 0002:00001130       __acrt_locale_terminator   0000000140151130     libucrt:locale_initializer.obj
 0002:00001138       __dcrt_console_output_terminator 0000000140151138     libucrt:console_output_initializer.obj
 0002:00001140       __acrt_stdio_terminator    0000000140151140     libucrt:stdio_initializer.obj
 0002:00001148       __xp_z                     0000000140151148     LIBCMT:initializers.obj
 0002:00001150       __xt_a                     0000000140151150     LIBCMT:initializers.obj
 0002:00001158       __xt_z                     0000000140151158     LIBCMT:initializers.obj
 0002:00001160       ??_C@_0BC@EOODALEL@Unknown?5exception@ 0000000140151160     Body.obj
 0002:00001178       ??_C@_0BF@KINCDENJ@bad?5array?5new?5length@ 0000000140151178     Body.obj
 0002:00001190       ??_C@_0BA@JFNIOLAK@string?5too?5long@ 0000000140151190     Body.obj
 0002:000011a0       ??_C@_05LAPONLG@false@     00000001401511a0     Body.obj
 0002:000011a8       ??_C@_04LOAJBDKD@true@     00000001401511a8     Body.obj
 0002:000011b0       ??_C@_02NJPGOMH@?$CFf@     00000001401511b0     Body.obj
 0002:000011b4       ??_C@_01PKGAHCOL@?$CJ@     00000001401511b4     Body.obj
 0002:000011b8       ??_C@_01IHBHIGKO@?0@       00000001401511b8     Body.obj
 0002:000011c0       ??_C@_08LHMBJDF@Vector3?$CI@ 00000001401511c0     Body.obj
 0002:000011cc       ??_C@_05GNCPACIO@Body?5@   00000001401511cc     Body.obj
 0002:000011d8       ??_C@_0BI@CFPLBAOH@invalid?5string?5position@ 00000001401511d8     Body.obj
 0002:000011f0       __real@3727c5ac            00000001401511f0     Body.obj
 0002:000011f4       __real@3d800000            00000001401511f4     Body.obj
 0002:000011f8       __real@3f800000            00000001401511f8     Body.obj
 0002:00001200       __real@3fe8000000000000    0000000140151200     Body.obj
 0002:00001208       __real@41800000            0000000140151208     Body.obj
 0002:00001210       __real@43e0000000000000    0000000140151210     Body.obj
 0002:00001218       __real@5f000000            0000000140151218     Body.obj
 0002:00001220       __xmm@000000000000000f0000000000000000 0000000140151220     Body.obj
 0002:00001230       __xmm@7fffffff7fffffff7fffffff7fffffff 0000000140151230     Body.obj
 0002:00001240       __xmm@80000000800000008000000080000000 0000000140151240     Body.obj
 0002:00001250       ??_C@_0EG@OFHODALL@C?3?2dev?2Zenith?2Middleware?2reactp@ 0000000140151250     RigidBody.obj
 0002:00001298       ??_C@_0BC@BPPBDOGB@?3?5Set?5isSleeping?$DN@ 0000000140151298     RigidBody.obj
 0002:000012ac       ?NULL_TREE_NODE@TreeNode@reactphysics3d@@2HB 00000001401512ac     DynamicAABBTree.obj
 0002:000012b0       __real@3f000000            00000001401512b0     DynamicAABBTree.obj
 0002:000012b4       ??_C@_02LMMGGCAJ@?3?5@     00000001401512b4     Collider.obj
 0002:000012b8       ??_C@_08LLGCOLLL@iostream@ 00000001401512b8     Collider.obj
 0002:000012c8       ?_Iostream_error@?4??message@_Iostream_error_category2@std@@UEBA?AV?$basic_string@DU?$char_traits@D@std@@V?$allocator@D@2@@3@H@Z@4QBDB 00000001401512c8     Collider.obj
 0002:000012e0       ??_C@_08EPJLHIJG@bad?5cast@ 00000001401512e0     Collider.obj
 0002:000012f0       ??_C@_0BA@ELKIONDK@bad?5locale?5name@ 00000001401512f0     Collider.obj
 0002:00001300       ??_C@_00CNPNBAHC@@         0000000140151300     Collider.obj
 0002:00001308       ??_7ios_base@std@@6B@      0000000140151308     Collider.obj
 0002:00001310       ??_C@_0BF@PHHKMMFD@ios_base?3?3badbit?5set@ 0000000140151310     Collider.obj
 0002:00001328       ??_C@_0BG@FMKFHCIL@ios_base?3?3failbit?5set@ 0000000140151328     Collider.obj
 0002:00001340       ??_C@_0BF@OOHOMBOF@ios_base?3?3eofbit?5set@ 0000000140151340     Collider.obj
 0002:00001358       ??_7?$basic_ios@DU?$char_traits@D@std@@@std@@6B@ 0000000140151358     Collider.obj
 0002:00001360       ??_7?$basic_istream@DU?$char_traits@D@std@@@std@@6B@ 0000000140151360     Collider.obj
 0002:00001368       ??_8?$basic_istream@DU?$char_traits@D@std@@@std@@7B@ 0000000140151368     Collider.obj
 0002:00001370       ??_7?$basic_ostream@DU?$char_traits@D@std@@@std@@6B@ 0000000140151370     Collider.obj
 0002:00001378       ??_7?$basic_iostream@DU?$char_traits@D@std@@@std@@6B@ 0000000140151378     Collider.obj
 0002:00001380       ??_7?$basic_streambuf@DU?$char_traits@D@std@@@std@@6B@ 0000000140151380     Collider.obj
 0002:000013f8       ??_7?$basic_stringbuf@DU?$char_traits@D@std@@V?$allocator@D@2@@std@@6B@ 00000001401513f8     Collider.obj
 0002:00001470       ??_7?$basic_stringstream@DU?$char_traits@D@std@@V?$allocator@D@2@@std@@6B@ 0000000140151470     Collider.obj
 0002:00001478       ??_8?$basic_stringstream@DU?$char_traits@D@std@@V?$allocator@D@2@@std@@7B?$basic_istream@DU?$char_traits@D@std@@@1@@ 0000000140151478     Collider.obj
 0002:00001480       ??_8?$basic_stringstream@DU?$char_traits@D@std@@V?$allocator@D@2@@std@@7B?$basic_ostream@DU?$char_traits@D@std@@@1@@ 0000000140151480     Collider.obj
 0002:00001488       ??_C@_02BBAHNLBA@?$CFp@    0000000140151488     Collider.obj
 0002:0000148c       ??_C@_02MDKMJEGG@eE@       000000014015148c     Collider.obj
 0002:00001490       ??_C@_02OOPEBDOJ@pP@       0000000140151490     Collider.obj
 0002:00001494       ??_C@_01LFCBOECM@?4@       0000000140151494     Collider.obj
 0002:00001498       __real@34000000            0000000140151498     Collider.obj
 0002:000014a0       __real@4202a05f20000000    00000001401514a0     Collider.obj
 0002:000014b0       __xmm@7fffffffffffffff7fffffffffffffff 00000001401514b0     Collider.obj
 0002:000014c0       ??_C@_0O@HFAFELNE@PhysicsCommon@ 00000001401514c0     ConvexMesh.obj
 0002:000014d0       ??_C@_0BA@FOIKENOD@vector?5too?5long@ 00000001401514d0     ConvexMesh.obj
 0002:000014e0       __real@3eaaaaab            00000001401514e0     ConvexMesh.obj
 0002:000014f0       __xmm@000000000000000f000000000000000d 00000001401514f0     ConvexMesh.obj
 0002:00001500       ??_C@_01CELHOKLL@?$HN@     0000000140151500     HalfEdgeStructure.obj
 0002:00001504       __real@7f7fffff            0000000140151504     HeightField.obj
 0002:00001508       __real@bf000000            0000000140151508     HeightField.obj
 0002:0000150c       __real@38d1b717            000000014015150c     CapsuleVsCapsuleAlgorithm.obj
 0002:00001510       __real@bf800000            0000000140151510     CapsuleVsCapsuleAlgorithm.obj
 0002:00001514       __real@3a83126f            0000000140151514     CapsuleVsConvexPolyhedronAlgorithm.obj
 0002:00001518       ??_7CapsuleVsCapsuleAlgorithm@reactphysics3d@@6B@ 0000000140151518     CollisionDispatch.obj
 0002:00001518       ??_7CapsuleVsConvexPolyhedronAlgorithm@reactphysics3d@@6B@ 0000000140151518     CollisionDispatch.obj
 0002:00001518       ??_7ConvexPolyhedronVsConvexPolyhedronAlgorithm@reactphysics3d@@6B@ 0000000140151518     CollisionDispatch.obj
 0002:00001518       ??_7SphereVsCapsuleAlgorithm@reactphysics3d@@6B@ 0000000140151518     CollisionDispatch.obj
 0002:00001518       ??_7SphereVsConvexPolyhedronAlgorithm@reactphysics3d@@6B@ 0000000140151518     CollisionDispatch.obj
 0002:00001518       ??_7SphereVsSphereAlgorithm@reactphysics3d@@6B@ 0000000140151518     CollisionDispatch.obj
 0002:00001520       __real@358637bd            0000000140151520     GJKAlgorithm.obj
 0002:00001524       __real@80000000            0000000140151524     VoronoiSimplex.obj
 0002:00001528       ?SEPARATING_AXIS_RELATIVE_TOLERANCE@SATAlgorithm@reactphysics3d@@0MB 0000000140151528     SATAlgorithm.obj
 0002:0000152c       ?SEPARATING_AXIS_ABSOLUTE_TOLERANCE@SATAlgorithm@reactphysics3d@@0MB 000000014015152c     SATAlgorithm.obj
 0002:00001530       __real@3a03126f            0000000140151530     SATAlgorithm.obj
 0002:00001534       __real@3f804189            0000000140151534     SATAlgorithm.obj
 0002:00001538       __real@00000000            0000000140151538     SphereVsSphereAlgorithm.obj
 0002:0000153c       __real@41000000            000000014015153c     BoxShape.obj
 0002:00001540       __real@ff7fffff            0000000140151540     BoxShape.obj
 0002:00001544       __real@3c23d70a            0000000140151544     CapsuleShape.obj
 0002:00001548       __real@3e800000            0000000140151548     CapsuleShape.obj
 0002:0000154c       __real@3f400000            000000014015154c     CapsuleShape.obj
 0002:00001550       __real@3f4ccccd            0000000140151550     CapsuleShape.obj
 0002:00001554       __real@3faaaaab            0000000140151554     CapsuleShape.obj
 0002:00001558       __real@40400000            0000000140151558     CapsuleShape.obj
 0002:0000155c       __real@40490fdb            000000014015155c     CapsuleShape.obj
 0002:00001560       __real@40800000            0000000140151560     CapsuleShape.obj
 0002:00001568       ??_7CollisionShape@reactphysics3d@@6B@ 0000000140151568     CollisionShape.obj
 0002:000015c0       ??_C@_01OHGJGJJP@?$FL@     00000001401515c0     ConvexMeshShape.obj
 0002:000015c4       ??_C@_01LBDDMOBJ@?$FN@     00000001401515c4     ConvexMeshShape.obj
 0002:000015c8       ??_7ConvexPolyhedronShape@reactphysics3d@@6B@ 00000001401515c8     ConvexPolyhedronShape.obj
 0002:00001670       ??_7ConvexShape@reactphysics3d@@6B@ 0000000140151670     ConvexShape.obj
 0002:000016d0       __real@28800000            00000001401516d0     ConvexShape.obj
 0002:000016d4       __real@3ecccccd            00000001401516d4     SphereShape.obj
 0002:000016d8       ??_7TriangleShape@reactphysics3d@@6B@ 00000001401516d8     TriangleShape.obj
 0002:00001780       ??_C@_03NMCKMMNE@v3?$DN@   0000000140151780     TriangleShape.obj
 0002:00001784       ??_C@_05PMMBDCBF@?0?5v2?$DN@ 0000000140151784     TriangleShape.obj
 0002:00001790       ??_C@_0BC@CJHIMOB@TriangleShape?$HLv1?$DN@ 0000000140151790     TriangleShape.obj
 0002:000017a8       ??_7BallAndSocketJointComponents@reactphysics3d@@6B@ 00000001401517a8     BallAndSocketJointComponents.obj
 0002:000017d0       ??_7BodyComponents@reactphysics3d@@6B@ 00000001401517d0     BodyComponents.obj
 0002:000017f8       ??_7ColliderComponents@reactphysics3d@@6B@ 00000001401517f8     ColliderComponents.obj
 0002:00001820       ??_7Components@reactphysics3d@@6B@ 0000000140151820     Components.obj
 0002:00001848       ??_7FixedJointComponents@reactphysics3d@@6B@ 0000000140151848     FixedJointComponents.obj
 0002:00001870       ??_7HingeJointComponents@reactphysics3d@@6B@ 0000000140151870     HingeJointComponents.obj
 0002:00001898       ??_7JointComponents@reactphysics3d@@6B@ 0000000140151898     JointComponents.obj
 0002:000018c0       ??_7RigidBodyComponents@reactphysics3d@@6B@ 00000001401518c0     RigidBodyComponents.obj
 0002:000018e8       ??_7SliderJointComponents@reactphysics3d@@6B@ 00000001401518e8     SliderJointComponents.obj
 0002:00001910       ??_7TransformComponents@reactphysics3d@@6B@ 0000000140151910     TransformComponents.obj
 0002:00001938       ?BETA@BallAndSocketJoint@reactphysics3d@@0MB 0000000140151938     BallAndSocketJoint.obj
 0002:0000193c       ?BETA@SliderJoint@reactphysics3d@@0MB 000000014015193c     SliderJoint.obj
 0002:00001940       ?ENTITY_INDEX_BITS@Entity@reactphysics3d@@0IB 0000000140151940     Entity.obj
 0002:00001944       ?ENTITY_INDEX_MASK@Entity@reactphysics3d@@0IB 0000000140151944     Entity.obj
 0002:00001948       ?ENTITY_GENERATION_BITS@Entity@reactphysics3d@@0IB 0000000140151948     Entity.obj
 0002:0000194c       ?ENTITY_GENERATION_MASK@Entity@reactphysics3d@@0IB 000000014015194c     Entity.obj
 0002:00001950       ?MINIMUM_FREE_INDICES@Entity@reactphysics3d@@0IB 0000000140151950     Entity.obj
 0002:00001958       ??_7OverlappingPair@OverlappingPairs@reactphysics3d@@6B@ 0000000140151958     OverlappingPairs.obj
 0002:00001960       ??_7ConvexOverlappingPair@OverlappingPairs@reactphysics3d@@6B@ 0000000140151960     OverlappingPairs.obj
 0002:00001968       ??_7ConcaveOverlappingPair@OverlappingPairs@reactphysics3d@@6B@ 0000000140151968     OverlappingPairs.obj
 0002:00001970       ??_C@_0EM@PFGDGJGM@C?3?2dev?2Zenith?2Middleware?2reactp@ 0000000140151970     PhysicsCommon.obj
 0002:000019c0       ??_C@_0FB@GPLIECFG@Error?5when?5destroying?5the?5Spher@ 00000001401519c0     PhysicsCommon.obj
 0002:00001a20       ??_C@_0EO@DPHHPGMA@Error?5when?5destroying?5the?5BoxSh@ 0000000140151a20     PhysicsCommon.obj
 0002:00001a70       ??_C@_0FC@EFKDKOOH@Error?5when?5destroying?5the?5Capsu@ 0000000140151a70     PhysicsCommon.obj
 0002:00001ad0       ??_C@_0FF@KMCKHGLM@Error?5when?5destroying?5the?5Conve@ 0000000140151ad0     PhysicsCommon.obj
 0002:00001b30       ??_C@_0FG@NBNEACHC@Error?5when?5destroying?5the?5Heigh@ 0000000140151b30     PhysicsCommon.obj
 0002:00001b90       ??_C@_0FG@MAJEIMDD@Error?5when?5destroying?5the?5Conca@ 0000000140151b90     PhysicsCommon.obj
 0002:00001bf0       __xmm@000000000000004f000000000000004d 0000000140151bf0     PhysicsCommon.obj
 0002:00001c00       __xmm@000000000000005f0000000000000050 0000000140151c00     PhysicsCommon.obj
 0002:00001c10       __xmm@000000000000005f0000000000000051 0000000140151c10     PhysicsCommon.obj
 0002:00001c20       __xmm@000000000000005f0000000000000054 0000000140151c20     PhysicsCommon.obj
 0002:00001c30       __xmm@000000000000005f0000000000000055 0000000140151c30     PhysicsCommon.obj
 0002:00001c40       ??_C@_0L@DJNNDLIF@worldName?$DN@ 0000000140151c40     PhysicsWorld.obj
 0002:00001c50       ??_C@_08HOIMABMK@gravity?$DN@ 0000000140151c50     PhysicsWorld.obj
 0002:00001c60       ??_C@_0CE@HDKBINCA@persistentContactDistanceThresh@ 0000000140151c60     PhysicsWorld.obj
 0002:00001c88       ??_C@_0BM@GKNFPPLL@defaultFrictionCoefficient?$DN@ 0000000140151c88     PhysicsWorld.obj
 0002:00001ca8       ??_C@_0BD@PDGCGOBP@defaultBounciness?$DN@ 0000000140151ca8     PhysicsWorld.obj
 0002:00001cc0       ??_C@_0BO@NHPODCD@restitutionVelocityThreshold?$DN@ 0000000140151cc0     PhysicsWorld.obj
 0002:00001ce0       ??_C@_0BD@DPPMLIOB@isSleepingEnabled?$DN@ 0000000140151ce0     PhysicsWorld.obj
 0002:00001cf8       ??_C@_0CD@HFKEFHFF@defaultVelocitySolverNbIteratio@ 0000000140151cf8     PhysicsWorld.obj
 0002:00001d20       ??_C@_0CD@GGFNMFKI@defaultPositionSolverNbIteratio@ 0000000140151d20     PhysicsWorld.obj
 0002:00001d48       ??_C@_0BI@MGIMKHAO@defaultTimeBeforeSleep?$DN@ 0000000140151d48     PhysicsWorld.obj
 0002:00001d60       ??_C@_0BM@HHEDNFNI@defaultSleepLinearVelocity?$DN@ 0000000140151d60     PhysicsWorld.obj
 0002:00001d80       ??_C@_0BN@MNKFONKN@defaultSleepAngularVelocity?$DN@ 0000000140151d80     PhysicsWorld.obj
 0002:00001da0       ??_C@_0CA@CEAPEIOH@cosAngleSimilarContactManifold?$DN@ 0000000140151da0     PhysicsWorld.obj
 0002:00001dc0       ??_C@_05MCBCHHEJ@world@    0000000140151dc0     PhysicsWorld.obj
 0002:00001dd0       ??_C@_0EL@FECLHGIJ@C?3?2dev?2Zenith?2Middleware?2reactp@ 0000000140151dd0     PhysicsWorld.obj
 0002:00001e20       ??_C@_0BC@NNBBIKPD@?5has?5been?5created@ 0000000140151e20     PhysicsWorld.obj
 0002:00001e38       ??_C@_0BO@MNMAGECI@Physics?5World?3?5Physics?5world?5@ 0000000140151e38     PhysicsWorld.obj
 0002:00001e58       ??_C@_0CI@CBAEOJB@Physics?5World?3?5Initial?5world?5se@ 0000000140151e58     PhysicsWorld.obj
 0002:00001e80       ??_C@_0BE@OGKEGJMD@?5has?5been?5destroyed@ 0000000140151e80     PhysicsWorld.obj
 0002:00001e98       ??_C@_0BH@OIJHLCBB@?3?5rigid?5body?5destroyed@ 0000000140151e98     PhysicsWorld.obj
 0002:00001eb0       ??_C@_06PCONMGBL@Joint?5@  0000000140151eb0     PhysicsWorld.obj
 0002:00001eb8       ??_C@_0BC@ILBPAHGD@?3?5joint?5destroyed@ 0000000140151eb8     PhysicsWorld.obj
 0002:00001ed0       ??_C@_0CG@FHAGCBPD@Physics?5World?3?5Set?5gravity?5vect@ 0000000140151ed0     PhysicsWorld.obj
 0002:00001ef8       ??_C@_0DG@HDMEDMBP@Error?5when?5getting?5rigid?5body?3?5@ 0000000140151ef8     PhysicsWorld.obj
 0002:00001f30       __xmm@000000000000000f0000000000000004 0000000140151f30     PhysicsWorld.obj
 0002:00001f40       __xmm@000000000000000f0000000000000005 0000000140151f40     PhysicsWorld.obj
 0002:00001f50       __xmm@000000000000003f0000000000000035 0000000140151f50     PhysicsWorld.obj
 0002:00001f60       __real@3f7fff58            0000000140151f60     Quaternion.obj
 0002:00001f68       ??_7HeapAllocator@reactphysics3d@@6B@ 0000000140151f68     HeapAllocator.obj
 0002:00001f80       ??_7DefaultAllocator@reactphysics3d@@6B@ 0000000140151f80     MemoryManager.obj
 0002:00001f98       ??_7PoolAllocator@reactphysics3d@@6B@ 0000000140151f98     PoolAllocator.obj
 0002:00001fb0       __xmm@00000001000000010000000100000001 0000000140151fb0     PoolAllocator.obj
 0002:00001fc0       __xmm@00000003000000020000000100000000 0000000140151fc0     PoolAllocator.obj
 0002:00001fd0       ??_7SingleFrameAllocator@reactphysics3d@@6B@ 0000000140151fd0     SingleFrameAllocator.obj
 0002:00001ff0       __real@3da3d70a            0000000140151ff0     BroadPhaseSystem.obj
 0002:00001ff4       ?BETA@ContactSolverSystem@reactphysics3d@@0MB 0000000140151ff4     ContactSolverSystem.obj
 0002:00001ff8       ?BETA_SPLIT_IMPULSE@ContactSolverSystem@reactphysics3d@@0MB 0000000140151ff8     ContactSolverSystem.obj
 0002:00001ffc       ?SLOP@ContactSolverSystem@reactphysics3d@@0MB 0000000140151ffc     ContactSolverSystem.obj
 0002:00002000       __real@be4ccccd            0000000140152000     ContactSolverSystem.obj
 0002:00002004       ?BETA@SolveBallAndSocketJointSystem@reactphysics3d@@0MB 0000000140152004     SolveBallAndSocketJointSystem.obj
 0002:00002008       __real@3e4ccccd            0000000140152008     SolveBallAndSocketJointSystem.obj
 0002:0000200c       ?BETA@SolveFixedJointSystem@reactphysics3d@@0MB 000000014015200c     SolveFixedJointSystem.obj
 0002:00002010       ?BETA@SolveHingeJointSystem@reactphysics3d@@0MB 0000000140152010     SolveHingeJointSystem.obj
 0002:00002014       __real@40c90fdb            0000000140152014     SolveHingeJointSystem.obj
 0002:00002018       __real@c0490fdb            0000000140152018     SolveHingeJointSystem.obj
 0002:0000201c       ?BETA@SolveSliderJointSystem@reactphysics3d@@0MB 000000014015201c     SolveSliderJointSystem.obj
 0002:00002020       ??_7DebugRenderer@reactphysics3d@@6B@ 0000000140152020     DebugRenderer.obj
 0002:00002038       __real@3ea0d97c            0000000140152038     DebugRenderer.obj
 0002:0000203c       __real@3eb2b8c2            000000014015203c     DebugRenderer.obj
 0002:00002040       __real@3fc90fdb            0000000140152040     DebugRenderer.obj
 0002:00002048       ??_7?$basic_filebuf@DU?$char_traits@D@std@@@std@@6B@ 0000000140152048     DefaultLogger.obj
 0002:000020c0       ??_C@_01CLKCMJKC@?5@       00000001401520c0     DefaultLogger.obj
 0002:000020c4       ??_C@_01EEMJAFIK@?6@       00000001401520c4     Zenith_AssetHandler.obj
 0002:000020c8       ??_C@_0BI@BDMPCJHK@Resetting?5vertex?5buffer@ 00000001401520c8     Zenith_AssetHandler.obj
 0002:000020e0       ??_C@_0BH@EHPOMDAM@Resetting?5index?5buffer@ 00000001401520e0     Zenith_AssetHandler.obj
 0002:000020f8       ??_C@_0CK@EBLGKIEN@Assertion?5failed?3?5Texture2D?5doe@ 00000001401520f8     Zenith_AssetHandler.obj
 0002:00002128       ??_C@_0CL@PMDCDKDK@Assertion?5failed?3?5Run?5out?5of?5te@ 0000000140152128     Zenith_AssetHandler.obj
 0002:00002158       ??_C@_0CM@BELIMIHD@Assertion?5failed?3?5Run?5out?5of?5ma@ 0000000140152158     Zenith_AssetHandler.obj
 0002:00002188       ??_C@_0CA@MMOGIFNF@invalid?5unordered_map?$DMK?0?5T?$DO?5key@ 0000000140152188     Zenith_AssetHandler.obj
 0002:000021a8       ??_C@_0BL@GOIGLPKN@unordered_map?1set?5too?5long@ 00000001401521a8     Zenith_AssetHandler.obj
 0002:000021c8       ??_C@_0BK@OGNNAFAB@invalid?5hash?5bucket?5count@ 00000001401521c8     Zenith_AssetHandler.obj
 0002:000021e8       ??_7LeafNodeBase@Zenith_DebugVariableTree@@6B@ 00000001401521e8     Zenith_MemoryManagement.obj
 0002:000021f8       ??_7TextNode@Zenith_DebugVariableTree@@6B@ 00000001401521f8     Zenith_MemoryManagement.obj
 0002:00002208       ??_C@_0BA@JMGBBEFI@Debug?5Variables@ 0000000140152208     Zenith_MemoryManagement.obj
 0002:00002218       ??_C@_06LEBJIAPJ@Memory@   0000000140152218     Zenith_MemoryManagement.obj
 0002:00002220       ??_C@_07POGKKA@Summary@    0000000140152220     Zenith_MemoryManagement.obj
 0002:00002230       __xmm@000000000000000f0000000000000006 0000000140152230     Zenith_MemoryManagement.obj
 0002:00002240       __xmm@000000000000000f0000000000000007 0000000140152240     Zenith_MemoryManagement.obj
 0002:00002250       __xmm@000000000000000f000000000000000f 0000000140152250     Zenith_MemoryManagement.obj
 0002:00002260       ??_C@_0M@FDEALFJ@Total?5Frame@ 0000000140152260     Zenith_Multithreading.obj
 0002:00002270       ??_C@_0BF@NBKGHFNG@Wait?5for?5Task?5System@ 0000000140152270     Zenith_Multithreading.obj
 0002:00002288       ??_C@_09ONEINPNJ@Animation@ 0000000140152288     Zenith_Multithreading.obj
 0002:00002298       ??_C@_0N@MELNCBGK@Scene?5Update@ 0000000140152298     Zenith_Multithreading.obj
 0002:000022a8       ??_C@_07ONFAPAAB@Physics@  00000001401522a8     Zenith_Multithreading.obj
 0002:000022b0       ??_C@_0N@NCKCCHJM@Flux?5Shadows@ 00000001401522b0     Zenith_Multithreading.obj
 0002:000022c0       ??_C@_0BG@PNFACNIG@Flux?5Deferred?5Shading@ 00000001401522c0     Zenith_Multithreading.obj
 0002:000022d8       ??_C@_0M@BCFJKMFO@Flux?5Skybox@ 00000001401522d8     Zenith_Multithreading.obj
 0002:000022e8       ??_C@_0BD@KAPBLFFE@Flux?5Static?5Meshes@ 00000001401522e8     Zenith_Multithreading.obj
 0002:00002300       ??_C@_0BF@PHPEPLLC@Flux?5Animated?5Meshes@ 0000000140152300     Zenith_Multithreading.obj
 0002:00002318       ??_C@_0N@NKFJMIAH@Flux?5Terrain@ 0000000140152318     Zenith_Multithreading.obj
 0002:00002328       ??_C@_0L@GJPDAPKE@Flux?5Water@ 0000000140152328     Zenith_Multithreading.obj
 0002:00002338       ??_C@_08HMJCANJA@Flux?5Fog@ 0000000140152338     Zenith_Multithreading.obj
 0002:00002348       ??_C@_09BCNNDHGG@Flux?5SDFs@ 0000000140152348     Zenith_Multithreading.obj
 0002:00002358       ??_C@_08GGKCFCIA@Flux?5PFX@ 0000000140152358     Zenith_Multithreading.obj
 0002:00002368       ??_C@_09NJMHHNHA@Flux?5Text@ 0000000140152368     Zenith_Multithreading.obj
 0002:00002378       ??_C@_0L@FFNECBCA@Flux?5Quads@ 0000000140152378     Zenith_Multithreading.obj
 0002:00002388       ??_C@_0BL@OGDFGJIJ@Flux?5Swapchain?5Begin?5Frame@ 0000000140152388     Zenith_Multithreading.obj
 0002:000023a8       ??_C@_0BB@JHMILBHL@Visibility?5Check@ 00000001401523a8     Zenith_Multithreading.obj
 0002:000023c0       ??_C@_0N@JHOECEKE@Zenith?5Tools@ 00000001401523c0     Zenith_Core.obj
 0002:000023d0       ??_C@_0BC@KIKMNCDL@Camera?5Position?3?5@ 00000001401523d0     Zenith_Core.obj
 0002:000023e8       ??_C@_0BE@JNJFFFHF@Camera?5Facing?5Dir?3?5@ 00000001401523e8     Zenith_Core.obj
 0002:000023fc       ??_C@_05MKOPJMEO@FPS?3?5@  00000001401523fc     Zenith_Core.obj
 0002:00002408       __real@3e112e0be826d695    0000000140152408     Zenith_Core.obj
 0002:00002410       ?_Charconv_digits@std@@3QBDB 0000000140152410     Zenith_DebugVariables.obj
 0002:00002438       ??_C@_0BC@JOAOKPFE@Number?5is?5too?5big@ 0000000140152438     Zenith_DebugVariables.obj
 0002:00002450       ??_C@_0BN@CAABEHAA@Missing?5precision?5specifier?4@ 0000000140152450     Zenith_DebugVariables.obj
 0002:00002470       ??_C@_03OJHLLCGB@inf@      0000000140152470     Zenith_DebugVariables.obj
 0002:00002478       ??_C@_08OFCDMILK@nan?$CIind?$CJ@ 0000000140152478     Zenith_DebugVariables.obj
 0002:00002484       ??_C@_03LHCJEHON@nan@      0000000140152484     Zenith_DebugVariables.obj
 0002:00002488       ??_C@_09IPFBKMDL@nan?$CIsnan?$CJ@ 0000000140152488     Zenith_DebugVariables.obj
 0002:00002498       ?_Adjustment@?CB@???$__to_chars@D@std@@YA?AU?$pair@PEADW4errc@std@@@1@QEAD0U__floating_decimal_32@1@W4chars_format@1@II@Z@4QBEB 0000000140152498     Zenith_DebugVariables.obj
 0002:000024c0       ?_Max_shifted_mantissa@?DC@???$__to_chars@D@std@@YA?AU?$pair@PEADW4errc@std@@@1@QEAD0U__floating_decimal_32@1@W4chars_format@1@II@Z@4QBIB 00000001401524c0     Zenith_DebugVariables.obj
 0002:000024f0       ?_Adjustment@?CB@???$__to_chars@D@std@@YA?AU?$pair@PEADW4errc@std@@@1@QEAD0U__floating_decimal_64@1@W4chars_format@1@N@Z@4QBEB 00000001401524f0     Zenith_DebugVariables.obj
 0002:00002630       ?_Max_shifted_mantissa@?DC@???$__to_chars@D@std@@YA?AU?$pair@PEADW4errc@std@@@1@QEAD0U__floating_decimal_64@1@W4chars_format@1@N@Z@4QB_KB 0000000140152630     Zenith_DebugVariables.obj
 0002:000026e8       ??_C@_0CO@ILLNLEBH@Precision?5not?5allowed?5for?5this?5@ 00000001401526e8     Zenith_DebugVariables.obj
 0002:00002718       ??_7format_error@std@@6B@  0000000140152718     Zenith_DebugVariables.obj
 0002:00002728       ??_C@_0BI@KLAHEKGE@String?5pointer?5is?5null?4@ 0000000140152728     Zenith_DebugVariables.obj
 0002:00002740       ??_C@_0CC@OGKFJOLL@integral?5cannot?5be?5stored?5in?5ch@ 0000000140152740     Zenith_DebugVariables.obj
 0002:00002768       ??_7?$_Fmt_iterator_buffer@V?$back_insert_iterator@V?$basic_string@DU?$char_traits@D@std@@V?$allocator@D@2@@std@@@std@@DU_Fmt_buffer_traits@2@@std@@6B@ 0000000140152768     Zenith_DebugVariables.obj
 0002:00002770       ??_C@_0BJ@FNNNKMGD@Invalid?5fill?5?$CItoo?5long?$CJ?4@ 0000000140152770     Zenith_DebugVariables.obj
 0002:00002790       ??_C@_0CA@EOADLFNL@Unmatched?5?8?$HN?8?5in?5format?5string?4@ 0000000140152790     Zenith_DebugVariables.obj
 0002:000027b0       ??_C@_0BH@MCHHCMKF@Invalid?5format?5string?4@ 00000001401527b0     Zenith_DebugVariables.obj
 0002:000027c8       ??_C@_0BK@NMCHMIGI@Unknown?5format?5specifier?4@ 00000001401527c8     Zenith_DebugVariables.obj
 0002:000027e8       ??_C@_0BO@FFAGMLDI@Missing?5?8?$HN?8?5in?5format?5string?4@ 00000001401527e8     Zenith_DebugVariables.obj
 0002:00002808       ??_C@_02HDBOMKFI@0b@       0000000140152808     Zenith_DebugVariables.obj
 0002:0000280c       ??_C@_02OGJKOOPK@0B@       000000014015280c     Zenith_DebugVariables.obj
 0002:00002810       ??_C@_02MDDDDAID@0x@       0000000140152810     Zenith_DebugVariables.obj
 0002:00002814       ??_C@_02FGLHBECB@0X@       0000000140152814     Zenith_DebugVariables.obj
 0002:00002818       ??_C@_0DB@GIGELLBG@Can?5not?5switch?5from?5manual?5to?5a@ 0000000140152818     Zenith_DebugVariables.obj
 0002:0000284c       ??_C@_01GBGANLPD@0@        000000014015284c     Zenith_DebugVariables.obj
 0002:00002850       ??_C@_0BL@KNEDAEPA@invalid?5fill?5character?5?8?$HL?8@ 0000000140152850     Zenith_DebugVariables.obj
 0002:00002870       ??_C@_0BD@GHJPJCGO@Number?5is?5too?5big?4@ 0000000140152870     Zenith_DebugVariables.obj
 0002:00002888       ??_C@_0BM@ONFDPAFF@Invalid?5type?5specification?4@ 0000000140152888     Zenith_DebugVariables.obj
 0002:000028a8       ??_C@_0CE@OLPMMFCN@Invalid?5presentation?5type?5speci@ 00000001401528a8     Zenith_DebugVariables.obj
 0002:000028d0       ??_C@_0CD@PLBGEFIO@Invalid?5presentation?5type?5for?5b@ 00000001401528d0     Zenith_DebugVariables.obj
 0002:000028f8       ??_C@_0CD@IFHOEGFC@Invalid?5presentation?5type?5for?5c@ 00000001401528f8     Zenith_DebugVariables.obj
 0002:00002920       ??_C@_0CG@PIIJGCKO@Invalid?5presentation?5type?5for?5i@ 0000000140152920     Zenith_DebugVariables.obj
 0002:00002948       ??_C@_0CN@EEOMCCM@Invalid?5presentation?5type?5for?5f@ 0000000140152948     Zenith_DebugVariables.obj
 0002:00002978       ??_C@_0CF@MMFFCGKF@Invalid?5presentation?5type?5for?5s@ 0000000140152978     Zenith_DebugVariables.obj
 0002:000029a0       ??_C@_0CG@LHDOJLDP@Invalid?5presentation?5type?5for?5p@ 00000001401529a0     Zenith_DebugVariables.obj
 0002:000029c8       ??_C@_0DM@LDJDLGDF@Hash?1sign?5modifier?5requires?5an?5@ 00000001401529c8     Zenith_DebugVariables.obj
 0002:00002a10       ??_C@_0EC@JCIMBFLB@Zero?5modifier?5requires?5an?5arith@ 0000000140152a10     Zenith_DebugVariables.obj
 0002:00002a58       ??_C@_0BJ@FLMOJPKL@Width?5is?5not?5an?5integer?4@ 0000000140152a58     Zenith_DebugVariables.obj
 0002:00002a74       ??_C@_04OIDKPPKK@?$HL?3x?$HN@ 0000000140152a74     Zenith_DebugVariables.obj
 0002:00002a80       ??_C@_0BA@INGMONDA@Negative?5width?4@ 0000000140152a80     Zenith_DebugVariables.obj
 0002:00002a90       ??_C@_07PBILKAFL@Success@  0000000140152a90     Zenith_DebugVariables.obj
 0002:00002a98       ??_C@_08DMGHBFAP@NotReady@ 0000000140152a98     Zenith_DebugVariables.obj
 0002:00002aa8       ??_C@_07MKALMBDJ@Timeout@  0000000140152aa8     Zenith_DebugVariables.obj
 0002:00002ab0       ??_C@_08NMBJGLBM@EventSet@ 0000000140152ab0     Zenith_DebugVariables.obj
 0002:00002ac0       ??_C@_0L@GPNDGHLB@EventReset@ 0000000140152ac0     Zenith_DebugVariables.obj
 0002:00002ad0       ??_C@_0L@GAHNLADL@Incomplete@ 0000000140152ad0     Zenith_DebugVariables.obj
 0002:00002ae0       ??_C@_0BF@CPLEGLMF@ErrorOutOfHostMemory@ 0000000140152ae0     Zenith_DebugVariables.obj
 0002:00002af8       ??_C@_0BH@KFDIHGLF@ErrorOutOfDeviceMemory@ 0000000140152af8     Zenith_DebugVariables.obj
 0002:00002b10       ??_C@_0BK@KHPDEMGP@ErrorInitializationFailed@ 0000000140152b10     Zenith_DebugVariables.obj
 0002:00002b30       ??_C@_0BA@BPMNMHHC@ErrorDeviceLost@ 0000000140152b30     Zenith_DebugVariables.obj
 0002:00002b40       ??_C@_0BF@KEGEGKKE@ErrorMemoryMapFailed@ 0000000140152b40     Zenith_DebugVariables.obj
 0002:00002b58       ??_C@_0BF@EGJLFNFD@ErrorLayerNotPresent@ 0000000140152b58     Zenith_DebugVariables.obj
 0002:00002b70       ??_C@_0BJ@BOACDOPN@ErrorExtensionNotPresent@ 0000000140152b70     Zenith_DebugVariables.obj
 0002:00002b90       ??_C@_0BH@KNOHKIBN@ErrorFeatureNotPresent@ 0000000140152b90     Zenith_DebugVariables.obj
 0002:00002ba8       ??_C@_0BI@GPFJFJHE@ErrorIncompatibleDriver@ 0000000140152ba8     Zenith_DebugVariables.obj
 0002:00002bc0       ??_C@_0BE@PCPIFOEA@ErrorTooManyObjects@ 0000000140152bc0     Zenith_DebugVariables.obj
 0002:00002bd8       ??_C@_0BI@PFLABPKP@ErrorFormatNotSupported@ 0000000140152bd8     Zenith_DebugVariables.obj
 0002:00002bf0       ??_C@_0BE@CENLJPJM@ErrorFragmentedPool@ 0000000140152bf0     Zenith_DebugVariables.obj
 0002:00002c08       ??_C@_0N@ILFEPIDE@ErrorUnknown@ 0000000140152c08     Zenith_DebugVariables.obj
 0002:00002c18       ??_C@_0BF@NOCLNFLA@ErrorOutOfPoolMemory@ 0000000140152c18     Zenith_DebugVariables.obj
 0002:00002c30       ??_C@_0BL@LIIACJAJ@ErrorInvalidExternalHandle@ 0000000140152c30     Zenith_DebugVariables.obj
 0002:00002c50       ??_C@_0BD@EEHBEEHO@ErrorFragmentation@ 0000000140152c50     Zenith_DebugVariables.obj
 0002:00002c68       ??_C@_0CB@PKPOOPPK@ErrorInvalidOpaqueCaptureAddres@ 0000000140152c68     Zenith_DebugVariables.obj
 0002:00002c90       ??_C@_0BI@CLPODDFL@PipelineCompileRequired@ 0000000140152c90     Zenith_DebugVariables.obj
 0002:00002ca8       ??_C@_0BE@KKJHDBKO@ErrorSurfaceLostKHR@ 0000000140152ca8     Zenith_DebugVariables.obj
 0002:00002cc0       ??_C@_0BK@KMKJMKPC@ErrorNativeWindowInUseKHR@ 0000000140152cc0     Zenith_DebugVariables.obj
 0002:00002ce0       ??_C@_0O@IOAIMMFF@SuboptimalKHR@ 0000000140152ce0     Zenith_DebugVariables.obj
 0002:00002cf0       ??_C@_0BC@OACLCPFL@ErrorOutOfDateKHR@ 0000000140152cf0     Zenith_DebugVariables.obj
 0002:00002d08       ??_C@_0BM@EPICIIJN@ErrorIncompatibleDisplayKHR@ 0000000140152d08     Zenith_DebugVariables.obj
 0002:00002d28       ??_C@_0BJ@HLKJPJON@ErrorValidationFailedEXT@ 0000000140152d28     Zenith_DebugVariables.obj
 0002:00002d48       ??_C@_0BF@NMEKDNGJ@ErrorInvalidShaderNV@ 0000000140152d48     Zenith_DebugVariables.obj
 0002:00002d60       ??_C@_0BP@CDJBDOOP@ErrorImageUsageNotSupportedKHR@ 0000000140152d60     Zenith_DebugVariables.obj
 0002:00002d80       ??_C@_0CH@NDHIPEG@ErrorVideoPictureLayoutNotSuppo@ 0000000140152d80     Zenith_DebugVariables.obj
 0002:00002da8       ??_C@_0CK@PAJCLGHH@ErrorVideoProfileOperationNotSu@ 0000000140152da8     Zenith_DebugVariables.obj
 0002:00002dd8       ??_C@_0CH@LACJAGNH@ErrorVideoProfileFormatNotSuppo@ 0000000140152dd8     Zenith_DebugVariables.obj
 0002:00002e00       ??_C@_0CG@KBKFFBJO@ErrorVideoProfileCodecNotSuppor@ 0000000140152e00     Zenith_DebugVariables.obj
 0002:00002e28       ??_C@_0CE@CFGBDHAB@ErrorVideoStdVersionNotSupporte@ 0000000140152e28     Zenith_DebugVariables.obj
 0002:00002e50       ??_C@_0CM@LJFHGLIP@ErrorInvalidDrmFormatModifierPl@ 0000000140152e50     Zenith_DebugVariables.obj
 0002:00002e80       ??_C@_0BF@PBLBJFOO@ErrorNotPermittedKHR@ 0000000140152e80     Zenith_DebugVariables.obj
 0002:00002e98       ??_C@_0O@EPJFOLME@ThreadIdleKHR@ 0000000140152e98     Zenith_DebugVariables.obj
 0002:00002ea8       ??_C@_0O@JLFPALOE@ThreadDoneKHR@ 0000000140152ea8     Zenith_DebugVariables.obj
 0002:00002eb8       ??_C@_0BF@HGIALFIA@OperationDeferredKHR@ 0000000140152eb8     Zenith_DebugVariables.obj
 0002:00002ed0       ??_C@_0BI@HGCNKOAL@OperationNotDeferredKHR@ 0000000140152ed0     Zenith_DebugVariables.obj
