 test

 Timestamp is 67f159d2 (Sat Apr  5 17:26:58 2025)

 Preferred load address is 0000000140000000

 Start         Length     Name                   Class
 0001:00000000 00002dc0H .text$di                CODE
 0001:00002dc0 0015ffa0H .text$mn                CODE
 0001:00162d60 00000040H .text$mn$00             CODE
 0001:00162da0 00000be0H .text$mn$21             CODE
 0001:00163980 00000fb0H .text$x                 CODE
 0001:00164930 000046b8H .text$yd                CODE
 0002:00000000 000009d0H .idata$5                DATA
 0002:000009d0 00000038H .00cfg                  DATA
 0002:00000a08 00000008H .CRT$XCA                DATA
 0002:00000a10 00000008H .CRT$XCAA               DATA
 0002:00000a18 00000018H .CRT$XCC                DATA
 0002:00000a30 00000010H .CRT$XCL                DATA
 0002:00000a40 00000620H .CRT$XCU                DATA
 0002:00001060 00000008H .CRT$XCZ                DATA
 0002:00001068 00000008H .CRT$XIA                DATA
 0002:00001070 00000008H .CRT$XIAA               DATA
 0002:00001078 00000008H .CRT$XIAC               DATA
 0002:00001080 00000030H .CRT$XIC                DATA
 0002:000010b0 00000008H .CRT$XIZ                DATA
 0002:000010b8 00000008H .CRT$XLA                DATA
 0002:000010c0 00000008H .CRT$XLZ                DATA
 0002:000010c8 00000008H .CRT$XPA                DATA
 0002:000010d0 00000010H .CRT$XPX                DATA
 0002:000010e0 00000008H .CRT$XPXA               DATA
 0002:000010e8 00000008H .CRT$XPZ                DATA
 0002:000010f0 00000008H .CRT$XTA                DATA
 0002:000010f8 00000008H .CRT$XTZ                DATA
 0002:00001100 00000000H .gehcont$y              DATA
 0002:00001100 00000000H .gfids$y                DATA
 0002:00001100 00000000H .giats$y                DATA
 0002:00001100 00039570H .rdata                  DATA
 0002:0003a670 00000190H .rdata$00               DATA
 0002:0003a800 00000000H .rdata$CastGuardVftablesA DATA
 0002:0003a800 00000000H .rdata$CastGuardVftablesC DATA
 0002:0003a800 00000028H .rdata$T                DATA
 0002:0003a828 00000d8cH .rdata$r                DATA
 0002:0003b5b4 0000042cH .rdata$voltmd           DATA
 0002:0003b9e0 000004c0H .rdata$zzzdbg           DATA
 0002:0003bea0 00000008H .rtc$IAA                DATA
 0002:0003bea8 00000008H .rtc$IZZ                DATA
 0002:0003beb0 00000008H .rtc$TAA                DATA
 0002:0003beb8 00000008H .rtc$TZZ                DATA
 0002:0003bec0 00000008H .tls                    DATA
 0002:0003bec8 00000024H .tls$                   DATA
 0002:0003beec 00000004H .tls$ZZZ                DATA
 0002:0003bef0 000123f0H .xdata                  DATA
 0002:0004e2e0 000017c4H .xdata$x                DATA
 0002:0004faa4 00000000H .edata                  DATA
 0002:0004faa4 000000a0H .idata$2                DATA
 0002:0004fb44 00000014H .idata$3                DATA
 0002:0004fb58 000009d0H .idata$4                DATA
 0002:00050528 00001952H .idata$6                DATA
 0003:00000000 000067e0H .data                   DATA
 0003:000067e0 000009c0H .data$r                 DATA
 0003:000071a0 000002b0H .data$rs                DATA
 0003:00007450 0005e3acH .bss                    DATA
 0004:00000000 0000ed6cH .pdata                  DATA
 0005:00000000 00013410H _RDATA                  DATA
 0006:00000000 00000060H .rsrc$01                DATA
 0006:00000060 00000180H .rsrc$02                DATA

  Address         Publics by Value              Rva+Base               Lib:Object

 0000:00000000       __AbsoluteZero             0000000000000000     <absolute>
 0000:00000000       ___safe_se_handler_count   0000000000000000     <absolute>
 0000:00000000       ___safe_se_handler_table   0000000000000000     <absolute>
 0000:00000000       __arm64x_extra_rfe_table   0000000000000000     <absolute>
 0000:00000000       __arm64x_extra_rfe_table_size 0000000000000000     <absolute>
 0000:00000000       __arm64x_native_entrypoint 0000000000000000     <absolute>
 0000:00000000       __arm64x_redirection_metadata 0000000000000000     <absolute>
 0000:00000000       __arm64x_redirection_metadata_count 0000000000000000     <absolute>
 0000:00000000       __dynamic_value_reloc_table 0000000000000000     <absolute>
 0000:00000000       __enclave_config           0000000000000000     <absolute>
 0000:00000000       __guard_check_icall_a64n_fptr 0000000000000000     <absolute>
 0000:00000000       __guard_eh_cont_count      0000000000000000     <absolute>
 0000:00000000       __guard_eh_cont_table      0000000000000000     <absolute>
 0000:00000000       __guard_fids_count         0000000000000000     <absolute>
 0000:00000000       __guard_fids_table         0000000000000000     <absolute>
 0000:00000000       __guard_iat_count          0000000000000000     <absolute>
 0000:00000000       __guard_iat_table          0000000000000000     <absolute>
 0000:00000000       __guard_longjmp_count      0000000000000000     <absolute>
 0000:00000000       __guard_longjmp_table      0000000000000000     <absolute>
 0000:00000000       __hybrid_auxiliary_delayload_iat 0000000000000000     <absolute>
 0000:00000000       __hybrid_auxiliary_delayload_iat_copy 0000000000000000     <absolute>
 0000:00000000       __hybrid_auxiliary_iat     0000000000000000     <absolute>
 0000:00000000       __hybrid_auxiliary_iat_copy 0000000000000000     <absolute>
 0000:00000000       __hybrid_code_map          0000000000000000     <absolute>
 0000:00000000       __hybrid_code_map_count    0000000000000000     <absolute>
 0000:00000000       __hybrid_image_info_bitfield 0000000000000000     <absolute>
 0000:00000000       __x64_code_ranges_to_entry_points 0000000000000000     <absolute>
 0000:00000000       __x64_code_ranges_to_entry_points_count 0000000000000000     <absolute>
 0000:00000100       __guard_flags              0000000000000100     <absolute>
 0000:00000000       __ImageBase                0000000140000000     <linker-defined>
 0001:00002dc0       ??$?0PEAD$0A@@?$basic_string@DU?$char_traits@D@std@@V?$allocator@D@2@@std@@QEAA@PEAD0AEBV?$allocator@D@1@@Z 0000000140003dc0 f i Body.obj
 0001:00002f00       ??$?HDU?$char_traits@D@std@@V?$allocator@D@1@@std@@YA?AV?$basic_string@DU?$char_traits@D@std@@V?$allocator@D@2@@0@QEBD$$QEAV10@@Z 0000000140003f00 f i Body.obj
 0001:00003030       ??$_Integral_to_string@DH@std@@YA?AV?$basic_string@DU?$char_traits@D@std@@V?$allocator@D@2@@0@H@Z 0000000140004030 f i Body.obj
 0001:00003030       ?to_string@std@@YA?AV?$basic_string@DU?$char_traits@D@std@@V?$allocator@D@2@@1@H@Z 0000000140004030 f i Body.obj
 0001:000030e0       ??$_Reallocate_grow_by@V<lambda_65e615be2a453ca0576c979606f46740>@@PEBD_K@?$basic_string@DU?$char_traits@D@std@@V?$allocator@D@2@@std@@AEAAAEAV01@_KV<lambda_65e615be2a453ca0576c979606f46740>@@PEBD_K@Z 00000001400040e0 f i Body.obj
 0001:00003270       ??$_Reallocate_grow_by@V<lambda_f3a66ab6a0570788f31503db83886f49>@@_KPEBD_K@?$basic_string@DU?$char_traits@D@std@@V?$allocator@D@2@@std@@AEAAAEAV01@_KV<lambda_f3a66ab6a0570788f31503db83886f49>@@_KPEBD2@Z 0000000140004270 f i Body.obj
 0001:00003420       ??$_UIntegral_to_buff@DI@std@@YAPEADPEADI@Z 0000000140004420 f i Body.obj
 0001:00003460       ??$_UIntegral_to_string@DI@std@@YA?AV?$basic_string@DU?$char_traits@D@std@@V?$allocator@D@2@@0@I@Z 0000000140004460 f i Body.obj
 0001:00003460       ?to_string@std@@YA?AV?$basic_string@DU?$char_traits@D@std@@V?$allocator@D@2@@1@I@Z 0000000140004460 f i Body.obj
 0001:000034c0       ??0?$basic_string@DU?$char_traits@D@std@@V?$allocator@D@2@@std@@QEAA@U_String_constructor_concat_tag@1@AEAV01@1@Z 00000001400044c0 f i Body.obj
 0001:000036c0       ??0?$basic_string@DU?$char_traits@D@std@@V?$allocator@D@2@@std@@QEAA@_KD@Z 00000001400046c0 f i Body.obj
 0001:000037f0       ??0Body@reactphysics3d@@QEAA@AEAVPhysicsWorld@1@UEntity@1@@Z 00000001400047f0 f   Body.obj
 0001:00003810       ??0bad_alloc@std@@QEAA@AEBV01@@Z 0000000140004810 f i Body.obj
 0001:00003850       ??0bad_array_new_length@std@@QEAA@AEBV01@@Z 0000000140004850 f i Body.obj
 0001:00003890       ??0bad_array_new_length@std@@QEAA@XZ 0000000140004890 f i Body.obj
 0001:000038c0       ??0exception@std@@QEAA@AEBV01@@Z 00000001400048c0 f i Body.obj
 0001:00003900       ??1?$basic_string@DU?$char_traits@D@std@@V?$allocator@D@2@@std@@QEAA@XZ 0000000140004900 f i Body.obj
 0001:00003900       ??1Message@reactphysics3d@@QEAA@XZ 0000000140004900 f i TriangleMesh.obj
 0001:00003900       ??1TextEntry@@QEAA@XZ      0000000140004900 f i Test_State_InGame.obj
 0001:00003900       ?_Tidy_deallocate@?$basic_string@DU?$char_traits@D@std@@V?$allocator@D@2@@std@@AEAAXXZ 0000000140004900 f i Body.obj
 0001:00003960       ??1Body@reactphysics3d@@UEAA@XZ 0000000140004960 f   Body.obj
 0001:00003970       ??1bad_alloc@std@@UEAA@XZ  0000000140004970 f i libcpmt:xthrow.obj
 0001:00003970       ??1bad_array_new_length@std@@UEAA@XZ 0000000140004970 f i Body.obj
 0001:00003970       ??1bad_cast@std@@UEAA@XZ   0000000140004970 f i Collider.obj
 0001:00003970       ??1bad_exception@std@@UEAA@XZ 0000000140004970 f i libvcruntime:frame.obj
 0001:00003970       ??1failure@ios_base@std@@UEAA@XZ 0000000140004970 f i Collider.obj
 0001:00003970       ??1invalid_argument@std@@UEAA@XZ 0000000140004970 f i libcpmt:xthrow.obj
 0001:00003970       ??1length_error@std@@UEAA@XZ 0000000140004970 f i libcpmt:xthrow.obj
 0001:00003970       ??1out_of_range@std@@UEAA@XZ 0000000140004970 f i libcpmt:xthrow.obj
 0001:00003970       ??1runtime_error@std@@UEAA@XZ 0000000140004970 f i Zenith_DebugVariables.obj
 0001:00003970       ??1system_error@std@@UEAA@XZ 0000000140004970 f i Collider.obj
 0001:00003990       ??_EBody@reactphysics3d@@UEAAPEAXI@Z 0000000140004990 f i Body.obj
 0001:00003990       ??_GBody@reactphysics3d@@UEAAPEAXI@Z 0000000140004990 f i Body.obj
 0001:000039c0       ??_Ebad_alloc@std@@UEAAPEAXI@Z 00000001400049c0 f i Body.obj
 0001:000039c0       ??_Ebad_array_new_length@std@@UEAAPEAXI@Z 00000001400049c0 f i Body.obj
 0001:000039c0       ??_Ebad_cast@std@@UEAAPEAXI@Z 00000001400049c0 f i Collider.obj
 0001:000039c0       ??_Ebad_exception@std@@UEAAPEAXI@Z 00000001400049c0 f i libvcruntime:frame.obj
 0001:000039c0       ??_Eexception@std@@UEAAPEAXI@Z 00000001400049c0 f i Body.obj
 0001:000039c0       ??_Einvalid_argument@std@@UEAAPEAXI@Z 00000001400049c0 f i libcpmt:xthrow.obj
 0001:000039c0       ??_Elength_error@std@@UEAAPEAXI@Z 00000001400049c0 f i libcpmt:xthrow.obj
 0001:000039c0       ??_Elogic_error@std@@UEAAPEAXI@Z 00000001400049c0 f i libcpmt:xthrow.obj
 0001:000039c0       ??_Eout_of_range@std@@UEAAPEAXI@Z 00000001400049c0 f i libcpmt:xthrow.obj
 0001:000039c0       ??_Eruntime_error@std@@UEAAPEAXI@Z 00000001400049c0 f i Collider.obj
 0001:000039c0       ??_Gbad_alloc@std@@UEAAPEAXI@Z 00000001400049c0 f i Body.obj
 0001:000039c0       ??_Gbad_array_new_length@std@@UEAAPEAXI@Z 00000001400049c0 f i Body.obj
 0001:000039c0       ??_Gbad_cast@std@@UEAAPEAXI@Z 00000001400049c0 f i Collider.obj
 0001:000039c0       ??_Gbad_exception@std@@UEAAPEAXI@Z 00000001400049c0 f i libvcruntime:frame.obj
 0001:000039c0       ??_Gexception@std@@UEAAPEAXI@Z 00000001400049c0 f i Body.obj
 0001:000039c0       ??_Ginvalid_argument@std@@UEAAPEAXI@Z 00000001400049c0 f i libcpmt:xthrow.obj
 0001:000039c0       ??_Glength_error@std@@UEAAPEAXI@Z 00000001400049c0 f i libcpmt:xthrow.obj
 0001:000039c0       ??_Glogic_error@std@@UEAAPEAXI@Z 00000001400049c0 f i libcpmt:xthrow.obj
 0001:000039c0       ??_Gout_of_range@std@@UEAAPEAXI@Z 00000001400049c0 f i libcpmt:xthrow.obj
 0001:000039c0       ??_Gruntime_error@std@@UEAAPEAXI@Z 00000001400049c0 f i Collider.obj
 0001:00003a10       ??_H@YAXPEAX_K1P6APEAX0@Z@Z 0000000140004a10 f i Body.obj
 0001:00003a60       ?_Deallocate_for_capacity@?$basic_string@DU?$char_traits@D@std@@V?$allocator@D@2@@std@@CAXAEAV?$allocator@D@2@QEAD_K@Z 0000000140004a60 f i Body.obj
 0001:00003aa0       ?_Throw_bad_array_new_length@std@@YAXXZ 0000000140004aa0 f i Body.obj
 0001:00003aa0       ?__scrt_throw_std_bad_array_new_length@@YAXXZ 0000000140004aa0 f i LIBCMT:throw_bad_alloc.obj
 0001:00003ac0       ?_Xlen_string@std@@YAXXZ   0000000140004ac0 f i Body.obj
 0001:00003ae0       ?add@?$Array@PEAVCollider@reactphysics3d@@@reactphysics3d@@QEAAXAEBQEAVCollider@2@@Z 0000000140004ae0 f i Body.obj
 0001:00003ae0       ?add@?$Array@_K@reactphysics3d@@QEAAXAEB_K@Z 0000000140004ae0 f i OverlappingPairs.obj
 0001:00003c30       ?add@?$Map@HUEntity@reactphysics3d@@U?$hash@H@std@@U?$equal_to@H@4@@reactphysics3d@@QEAA_NAEBV?$Pair@HUEntity@reactphysics3d@@@2@_N@Z 0000000140004c30 f i Body.obj
 0001:00003db0       ?addCollider@Body@reactphysics3d@@UEAAPEAVCollider@2@PEAVCollisionShape@2@AEBVTransform@2@@Z 0000000140004db0 f   Body.obj
 0001:00005030       ?append@?$basic_string@DU?$char_traits@D@std@@V?$allocator@D@2@@std@@QEAAAEAV12@QEBD_K@Z 0000000140006030 f i Body.obj
 0001:000050c0       ?askForBroadPhaseCollisionCheck@Body@reactphysics3d@@IEBAXXZ 00000001400060c0 f   Body.obj
 0001:000051a0       ?findEntry@?$Map@UEntity@reactphysics3d@@IU?$hash@UEntity@reactphysics3d@@@std@@U?$equal_to@UEntity@reactphysics3d@@@4@@reactphysics3d@@AEBA_KAEBUEntity@2@@Z 00000001400061a0 f i Body.obj
 0001:00005290       ?getCollider@Body@reactphysics3d@@QEBAPEBVCollider@2@I@Z 0000000140006290 f   Body.obj
 0001:00005320       ?getNbColliders@Body@reactphysics3d@@QEBAIXZ 0000000140006320 f   Body.obj
 0001:00005370       ?getTransform@Body@reactphysics3d@@QEBAAEBVTransform@2@XZ 0000000140006370 f   Body.obj
 0001:000053c0       ?isActive@Body@reactphysics3d@@QEBA_NXZ 00000001400063c0 f   Body.obj
 0001:00005410       ?do_decimal_point@?$numpunct@D@std@@MEBADXZ 0000000140006410 f   Collider.obj
 0001:00005410       ?isDebugEnabled@Body@reactphysics3d@@QEBA_NXZ 0000000140006410 f   Body.obj
 0001:00005420       ?removeAllColliders@Body@reactphysics3d@@IEAAXXZ 0000000140006420 f   Body.obj
 0001:000056c0       ?removeCollider@Body@reactphysics3d@@UEAAXPEAVCollider@2@@Z 00000001400066c0 f   Body.obj
 0001:00005dc0       ?reserve@?$Array@H@reactphysics3d@@QEAAX_K@Z 0000000140006dc0 f i ConcaveMeshShape.obj
 0001:00005dc0       ?reserve@?$Array@I@reactphysics3d@@QEAAX_K@Z 0000000140006dc0 f i ConvexMesh.obj
 0001:00005dc0       ?reserve@?$Array@UEntity@reactphysics3d@@@reactphysics3d@@QEAAX_K@Z 0000000140006dc0 f i Body.obj
 0001:00005ed0       ?reserve@?$Map@HUEntity@reactphysics3d@@U?$hash@H@std@@U?$equal_to@H@4@@reactphysics3d@@QEAAX_K@Z 0000000140006ed0 f i Body.obj
 0001:00005ed0       ?reserve@?$Map@UEntity@reactphysics3d@@IU?$hash@UEntity@reactphysics3d@@@std@@U?$equal_to@UEntity@reactphysics3d@@@4@@reactphysics3d@@QEAAX_K@Z 0000000140006ed0 f i BallAndSocketJointComponents.obj
 0001:00006250       ?setIsActive@Body@reactphysics3d@@UEAAX_N@Z 0000000140007250 f   Body.obj
 0001:00006c10       ?setTransform@Body@reactphysics3d@@UEAAXAEBVTransform@2@@Z 0000000140007c10 f   Body.obj
 0001:00007c40       ?setUserData@Body@reactphysics3d@@QEAAXPEAX@Z 0000000140008c40 f   Body.obj
 0001:00007ca0       ?updateBroadPhaseState@Body@reactphysics3d@@IEBAXXZ 0000000140008ca0 f   Body.obj
 0001:00008110       ?what@exception@std@@UEBAPEBDXZ 0000000140009110 f i Body.obj
 0001:00008130       __local_stdio_printf_options 0000000140009130 f i Body.obj
 0001:00008140       _scprintf                  0000000140009140 f i Body.obj
 0001:000081a0       sprintf_s                  00000001400091a0 f i Body.obj
 0001:00008200       ??0RigidBody@reactphysics3d@@QEAA@AEAVPhysicsWorld@1@UEntity@1@@Z 0000000140009200 f   RigidBody.obj
 0001:00008230       ??_ERigidBody@reactphysics3d@@UEAAPEAXI@Z 0000000140009230 f i RigidBody.obj
 0001:00008230       ??_GRigidBody@reactphysics3d@@UEAAPEAXI@Z 0000000140009230 f i RigidBody.obj
 0001:00008270       ?addCollider@RigidBody@reactphysics3d@@UEAAPEAVCollider@2@PEAVCollisionShape@2@AEBVTransform@2@@Z 0000000140009270 f   RigidBody.obj
 0001:00009530       ?applyWorldForceAtCenterOfMass@RigidBody@reactphysics3d@@QEAAXAEBUVector3@2@@Z 000000014000a530 f   RigidBody.obj
 0001:00009680       ?awakeNeighborDisabledBodies@RigidBody@reactphysics3d@@IEAAXXZ 000000014000a680 f   RigidBody.obj
 0001:00009c00       ?checkForDisabledOverlappingPairs@RigidBody@reactphysics3d@@IEAAXXZ 000000014000ac00 f   RigidBody.obj
 0001:0000a150       ?enableGravity@RigidBody@reactphysics3d@@QEAAX_N@Z 000000014000b150 f   RigidBody.obj
 0001:0000a570       ?enableOverlappingPairs@RigidBody@reactphysics3d@@IEAAXXZ 000000014000b570 f   RigidBody.obj
 0001:0000aa80       ?find@?$Map@_K_KU?$hash@_K@std@@U?$equal_to@_K@2@@reactphysics3d@@QEBA?AVIterator@12@AEB_K@Z 000000014000ba80 f i RigidBody.obj
 0001:0000ac30       ?getLinearVelocity@RigidBody@reactphysics3d@@QEBA?AUVector3@2@XZ 000000014000bc30 f   RigidBody.obj
 0001:0000aca0       ?removeCollider@RigidBody@reactphysics3d@@UEAAXPEAVCollider@2@@Z 000000014000bca0 f   RigidBody.obj
 0001:0000acd0       ?setAngularLockAxisFactor@RigidBody@reactphysics3d@@QEBAXAEBUVector3@2@@Z 000000014000bcd0 f   RigidBody.obj
 0001:0000ad40       ?setAngularVelocity@RigidBody@reactphysics3d@@QEAAXAEBUVector3@2@@Z 000000014000bd40 f   RigidBody.obj
 0001:0000b6a0       ?setIsActive@RigidBody@reactphysics3d@@UEAAX_N@Z 000000014000c6a0 f   RigidBody.obj
 0001:0000b720       ?setIsSleeping@RigidBody@reactphysics3d@@QEAAX_N@Z 000000014000c720 f   RigidBody.obj
 0001:0000bc70       ?setLinearVelocity@RigidBody@reactphysics3d@@QEAAXAEBUVector3@2@@Z 000000014000cc70 f   RigidBody.obj
 0001:0000c5d0       ?setTransform@RigidBody@reactphysics3d@@UEAAXAEBVTransform@2@@Z 000000014000d5d0 f   RigidBody.obj
 0001:0000caa0       ?setType@RigidBody@reactphysics3d@@QEAAXW4BodyType@2@@Z 000000014000daa0 f   RigidBody.obj
 0001:0000d250       ?to_string@std@@YA?AV?$basic_string@DU?$char_traits@D@std@@V?$allocator@D@2@@1@M@Z 000000014000e250 f i RigidBody.obj
 0001:0000d2d0       ??0?$Stack@H@reactphysics3d@@QEAA@AEAVMemoryAllocator@1@_K@Z 000000014000e2d0 f i DynamicAABBTree.obj
 0001:0000d400       ??0DynamicAABBTree@reactphysics3d@@QEAA@AEAVMemoryAllocator@1@M@Z 000000014000e400 f   DynamicAABBTree.obj
 0001:0000d420       ??1DynamicAABBTree@reactphysics3d@@QEAA@XZ 000000014000e420 f   DynamicAABBTree.obj
 0001:0000d440       ?addObjectInternal@DynamicAABBTree@reactphysics3d@@AEAAHAEBVAABB@2@@Z 000000014000e440 f   DynamicAABBTree.obj
 0001:0000d530       ?allocate@?$Stack@H@reactphysics3d@@AEAAX_K@Z 000000014000e530 f i DynamicAABBTree.obj
 0001:0000d530       ?allocate@?$Stack@UEntity@reactphysics3d@@@reactphysics3d@@AEAAX_K@Z 000000014000e530 f i PhysicsWorld.obj
 0001:0000d640       ?allocateNode@DynamicAABBTree@reactphysics3d@@AEAAHXZ 000000014000e640 f   DynamicAABBTree.obj
 0001:0000d7d0       ?balanceSubTreeAtNode@DynamicAABBTree@reactphysics3d@@AEAAHH@Z 000000014000e7d0 f   DynamicAABBTree.obj
 0001:0000ded0       ?init@DynamicAABBTree@reactphysics3d@@AEAAXXZ 000000014000eed0 f   DynamicAABBTree.obj
 0001:0000dfc0       ?insertLeafNode@DynamicAABBTree@reactphysics3d@@AEAAXH@Z 000000014000efc0 f   DynamicAABBTree.obj
 0001:0000e6a0       ?raycast@DynamicAABBTree@reactphysics3d@@QEBAXAEBURay@2@AEAVDynamicAABBTreeRaycastCallback@2@@Z 000000014000f6a0 f   DynamicAABBTree.obj
 0001:0000e9c0       ?removeLeafNode@DynamicAABBTree@reactphysics3d@@AEAAXH@Z 000000014000f9c0 f   DynamicAABBTree.obj
 0001:0000ebb0       ?removeObject@DynamicAABBTree@reactphysics3d@@QEAAXH@Z 000000014000fbb0 f   DynamicAABBTree.obj
 0001:0000ec00       ?reportAllShapesOverlappingWithAABB@DynamicAABBTree@reactphysics3d@@QEBAXAEBVAABB@2@AEAV?$Array@H@2@@Z 000000014000fc00 f   DynamicAABBTree.obj
 0001:0000ef50       ?reportAllShapesOverlappingWithShapes@DynamicAABBTree@reactphysics3d@@QEBAXAEBV?$Array@H@2@I_KAEAV?$Array@V?$Pair@HH@reactphysics3d@@@2@@Z 000000014000ff50 f   DynamicAABBTree.obj
 0001:0000f350       ?updateObject@DynamicAABBTree@reactphysics3d@@QEAA_NHAEBVAABB@2@_N@Z 0000000140010350 f   DynamicAABBTree.obj
 0001:0000f4d0       ??$?6U?$char_traits@D@std@@@std@@YAAEAV?$basic_ostream@DU?$char_traits@D@std@@@0@AEAV10@PEBD@Z 00000001400104d0 f i Collider.obj
 0001:0000f790       ??$_Construct@$00PEBD@?$basic_string@DU?$char_traits@D@std@@V?$allocator@D@2@@std@@AEAAXQEBD_K@Z 0000000140010790 f i Collider.obj
 0001:0000f8b0       ??$_Fput_v3@$0A@@?$num_put@DV?$ostreambuf_iterator@DU?$char_traits@D@std@@@std@@@std@@AEBA?AV?$ostreambuf_iterator@DU?$char_traits@D@std@@@1@V21@AEAVios_base@1@DPEBD_K_N@Z 00000001400108b0 f i Collider.obj
 0001:0000ff50       ??$_Maklocstr@D@std@@YAPEADPEBDPEADAEBU_Cvtvec@@@Z 0000000140010f50 f i Collider.obj
 0001:0000ffc0       ??$_Reallocate_grow_by@V<lambda_b986da8d428e4af07c64af60eec09b61>@@_K_KD@?$basic_string@DU?$char_traits@D@std@@V?$allocator@D@2@@std@@AEAAAEAV01@_KV<lambda_b986da8d428e4af07c64af60eec09b61>@@_K2D@Z 0000000140010fc0 f i Collider.obj
 0001:00010180       ??$_Reallocate_grow_by@V<lambda_e1befb086ad3257e3f042a63030725f7>@@_KD@?$basic_string@DU?$char_traits@D@std@@V?$allocator@D@2@@std@@AEAAAEAV01@_KV<lambda_e1befb086ad3257e3f042a63030725f7>@@_KD@Z 0000000140011180 f i Collider.obj
 0001:00010310       ??$endl@DU?$char_traits@D@std@@@std@@YAAEAV?$basic_ostream@DU?$char_traits@D@std@@@0@AEAV10@@Z 0000000140011310 f i Collider.obj
 0001:000103b0       ??$use_facet@V?$ctype@D@std@@@std@@YAAEBV?$ctype@D@0@AEBVlocale@0@@Z 00000001400113b0 f i Collider.obj
 0001:00010620       ??$use_facet@V?$num_put@DV?$ostreambuf_iterator@DU?$char_traits@D@std@@@std@@@std@@@std@@YAAEBV?$num_put@DV?$ostreambuf_iterator@DU?$char_traits@D@std@@@std@@@0@AEBVlocale@0@@Z 0000000140011620 f i Collider.obj
 0001:00010870       ??$use_facet@V?$numpunct@D@std@@@std@@YAAEBV?$numpunct@D@0@AEBVlocale@0@@Z 0000000140011870 f i Collider.obj
 0001:00010980       ??0?$basic_streambuf@DU?$char_traits@D@std@@@std@@IEAA@XZ 0000000140011980 f i Collider.obj
 0001:00010a70       ??0?$basic_string@DU?$char_traits@D@std@@V?$allocator@D@2@@std@@QEAA@AEBV01@@Z 0000000140011a70 f i Collider.obj
 0001:00010b90       ??0?$basic_stringstream@DU?$char_traits@D@std@@V?$allocator@D@2@@std@@QEAA@XZ 0000000140011b90 f i Collider.obj
 0001:00010d00       ??0Collider@reactphysics3d@@QEAA@UEntity@1@PEAVBody@1@AEAVMemoryManager@1@@Z 0000000140011d00 f   Collider.obj
 0001:00010d30       ??0_System_error@std@@IEAA@Verror_code@1@AEBV?$basic_string@DU?$char_traits@D@std@@V?$allocator@D@2@@1@@Z 0000000140011d30 f i Collider.obj
 0001:00010f20       ??0_System_error@std@@QEAA@AEBV01@@Z 0000000140011f20 f i Collider.obj
 0001:00010f70       ??0bad_cast@std@@QEAA@AEBV01@@Z 0000000140011f70 f i Collider.obj
 0001:00010fb0       ??0bad_cast@std@@QEAA@XZ   0000000140011fb0 f i Collider.obj
 0001:00010fe0       ??0failure@ios_base@std@@QEAA@AEBV012@@Z 0000000140011fe0 f i Collider.obj
 0001:00011040       ??0failure@ios_base@std@@QEAA@PEBDAEBVerror_code@2@@Z 0000000140012040 f i Collider.obj
 0001:00011100       ??0runtime_error@std@@QEAA@AEBV01@@Z 0000000140012100 f i Collider.obj
 0001:00011140       ??0sentry@?$basic_ostream@DU?$char_traits@D@std@@@std@@QEAA@AEAV12@@Z 0000000140012140 f i Collider.obj
 0001:000111d0       ??0system_error@std@@QEAA@AEBV01@@Z 00000001400121d0 f i Collider.obj
 0001:00011230       ??1?$basic_stringbuf@DU?$char_traits@D@std@@V?$allocator@D@2@@std@@UEAA@XZ 0000000140012230 f i Collider.obj
 0001:00011360       ??6?$basic_ostream@DU?$char_traits@D@std@@@std@@QEAAAEAV01@M@Z 0000000140012360 f i Collider.obj
 0001:00011560       ??_D?$basic_stringstream@DU?$char_traits@D@std@@V?$allocator@D@2@@std@@QEAAXXZ 0000000140012560 f i Collider.obj
 0001:00011650       ??_E?$basic_iostream@DU?$char_traits@D@std@@@std@@$4PPPPPPPM@A@EAAPEAXI@Z 0000000140012650 f i Collider.obj
 0001:0001165c       ??_E?$basic_istream@DU?$char_traits@D@std@@@std@@$4PPPPPPPM@A@EAAPEAXI@Z 000000014001265c f i Collider.obj
 0001:00011668       ??_E?$basic_ostream@DU?$char_traits@D@std@@@std@@$4PPPPPPPM@A@EAAPEAXI@Z 0000000140012668 f i Collider.obj
 0001:00011674       ??_E?$basic_stringstream@DU?$char_traits@D@std@@V?$allocator@D@2@@std@@$4PPPPPPPM@A@EAAPEAXI@Z 0000000140012674 f i Collider.obj
 0001:00011680       ??_E?$basic_ios@DU?$char_traits@D@std@@@std@@UEAAPEAXI@Z 0000000140012680 f i Collider.obj
 0001:00011680       ??_G?$basic_ios@DU?$char_traits@D@std@@@std@@UEAAPEAXI@Z 0000000140012680 f i Collider.obj
 0001:000116c0       ??_E?$basic_iostream@DU?$char_traits@D@std@@@std@@UEAAPEAXI@Z 00000001400126c0 f i Collider.obj
 0001:000116c0       ??_G?$basic_iostream@DU?$char_traits@D@std@@@std@@UEAAPEAXI@Z 00000001400126c0 f i Collider.obj
 0001:00011770       ??_E?$basic_istream@DU?$char_traits@D@std@@@std@@UEAAPEAXI@Z 0000000140012770 f i Collider.obj
 0001:00011770       ??_G?$basic_istream@DU?$char_traits@D@std@@@std@@UEAAPEAXI@Z 0000000140012770 f i Collider.obj
 0001:000117e0       ??_E?$basic_ostream@DU?$char_traits@D@std@@@std@@UEAAPEAXI@Z 00000001400127e0 f i Collider.obj
 0001:000117e0       ??_G?$basic_ostream@DU?$char_traits@D@std@@@std@@UEAAPEAXI@Z 00000001400127e0 f i Collider.obj
 0001:00011850       ??_E?$basic_streambuf@DU?$char_traits@D@std@@@std@@UEAAPEAXI@Z 0000000140012850 f i Collider.obj
 0001:00011850       ??_G?$basic_streambuf@DU?$char_traits@D@std@@@std@@UEAAPEAXI@Z 0000000140012850 f i Collider.obj
 0001:000118d0       ??_E?$basic_stringbuf@DU?$char_traits@D@std@@V?$allocator@D@2@@std@@UEAAPEAXI@Z 00000001400128d0 f i Collider.obj
 0001:000118d0       ??_G?$basic_stringbuf@DU?$char_traits@D@std@@V?$allocator@D@2@@std@@UEAAPEAXI@Z 00000001400128d0 f i Collider.obj
 0001:00011910       ??_E?$basic_stringstream@DU?$char_traits@D@std@@V?$allocator@D@2@@std@@UEAAPEAXI@Z 0000000140012910 f i Collider.obj
 0001:00011910       ??_G?$basic_stringstream@DU?$char_traits@D@std@@V?$allocator@D@2@@std@@UEAAPEAXI@Z 0000000140012910 f i Collider.obj
 0001:00011950       ??_E?$ctype@D@std@@MEAAPEAXI@Z 0000000140012950 f i Collider.obj
 0001:00011950       ??_G?$ctype@D@std@@MEAAPEAXI@Z 0000000140012950 f i Collider.obj
 0001:000119c0       ??_E?$codecvt@DDU_Mbstatet@@@std@@MEAAPEAXI@Z 00000001400129c0 f i DefaultLogger.obj
 0001:000119c0       ??_E?$num_put@DV?$ostreambuf_iterator@DU?$char_traits@D@std@@@std@@@std@@MEAAPEAXI@Z 00000001400129c0 f i Collider.obj
 0001:000119c0       ??_G?$codecvt@DDU_Mbstatet@@@std@@MEAAPEAXI@Z 00000001400129c0 f i DefaultLogger.obj
 0001:000119c0       ??_G?$num_put@DV?$ostreambuf_iterator@DU?$char_traits@D@std@@@std@@@std@@MEAAPEAXI@Z 00000001400129c0 f i Collider.obj
 0001:000119f0       ??_E?$numpunct@D@std@@MEAAPEAXI@Z 00000001400129f0 f i Collider.obj
 0001:000119f0       ??_G?$numpunct@D@std@@MEAAPEAXI@Z 00000001400129f0 f i Collider.obj
 0001:00011a50       ??_ECollider@reactphysics3d@@UEAAPEAXI@Z 0000000140012a50 f i Collider.obj
 0001:00011a50       ??_GCollider@reactphysics3d@@UEAAPEAXI@Z 0000000140012a50 f i Collider.obj
 0001:00011a80       ??_E_Facet_base@std@@UEAAPEAXI@Z 0000000140012a80 f i Collider.obj
 0001:00011a80       ??_G_Facet_base@std@@UEAAPEAXI@Z 0000000140012a80 f i Collider.obj
 0001:00011ab0       ??_EErrorCategoryImpl@vk@@UEAAPEAXI@Z 0000000140012ab0 f i Zenith_DebugVariables.obj
 0001:00011ab0       ??_E_Generic_error_category@std@@UEAAPEAXI@Z 0000000140012ab0 f i Test_State_InGame.obj
 0001:00011ab0       ??_E_Iostream_error_category2@std@@UEAAPEAXI@Z 0000000140012ab0 f i Collider.obj
 0001:00011ab0       ??_E_System_error_category@std@@UEAAPEAXI@Z 0000000140012ab0 f i Test_State_InGame.obj
 0001:00011ab0       ??_GErrorCategoryImpl@vk@@UEAAPEAXI@Z 0000000140012ab0 f i Zenith_DebugVariables.obj
 0001:00011ab0       ??_G_Generic_error_category@std@@UEAAPEAXI@Z 0000000140012ab0 f i Test_State_InGame.obj
 0001:00011ab0       ??_G_Iostream_error_category2@std@@UEAAPEAXI@Z 0000000140012ab0 f i Collider.obj
 0001:00011ab0       ??_G_System_error_category@std@@UEAAPEAXI@Z 0000000140012ab0 f i Test_State_InGame.obj
 0001:00011ae0       ??_E_System_error@std@@UEAAPEAXI@Z 0000000140012ae0 f i Collider.obj
 0001:00011ae0       ??_Efailure@ios_base@std@@UEAAPEAXI@Z 0000000140012ae0 f i Collider.obj
 0001:00011ae0       ??_Esystem_error@std@@UEAAPEAXI@Z 0000000140012ae0 f i Collider.obj
 0001:00011ae0       ??_G_System_error@std@@UEAAPEAXI@Z 0000000140012ae0 f i Collider.obj
 0001:00011ae0       ??_Gfailure@ios_base@std@@UEAAPEAXI@Z 0000000140012ae0 f i Collider.obj
 0001:00011ae0       ??_Gsystem_error@std@@UEAAPEAXI@Z 0000000140012ae0 f i Collider.obj
 0001:00011b30       ??_Eios_base@std@@UEAAPEAXI@Z 0000000140012b30 f i Collider.obj
 0001:00011b30       ??_Gios_base@std@@UEAAPEAXI@Z 0000000140012b30 f i Collider.obj
 0001:00011b70       ?_Decref@facet@locale@std@@UEAAPEAV_Facet_base@3@XZ 0000000140012b70 f i Collider.obj
 0001:00011b80       ?_Getcat@?$numpunct@D@std@@SA_KPEAPEBVfacet@locale@2@PEBV42@@Z 0000000140012b80 f i Collider.obj
 0001:00011dc0       ?_Incref@facet@locale@std@@UEAAXXZ 0000000140012dc0 f i Collider.obj
 0001:00011dd0       ?_Iput@?$num_put@DV?$ostreambuf_iterator@DU?$char_traits@D@std@@@std@@@std@@AEBA?AV?$ostreambuf_iterator@DU?$char_traits@D@std@@@2@V32@AEAVios_base@2@DPEAD_K@Z 0000000140012dd0 f i Collider.obj
 0001:00012400       ??1VoronoiSimplex@reactphysics3d@@QEAA@XZ 0000000140013400 f i VoronoiSimplex.obj
 0001:00012400       ?DebugLogAllAllocations@VmaBlockMetadata_Linear@@UEBAXXZ 0000000140013400 f i Zenith_Vulkan_MemoryManager.obj
 0001:00012400       ?DebugLogAllAllocations@VmaBlockMetadata_TLSF@@UEBAXXZ 0000000140013400 f i Zenith_Vulkan_MemoryManager.obj
 0001:00012400       ?ImGui_ImplGlfw_MonitorCallback@@YAXPEAUGLFWmonitor@@H@Z 0000000140013400 f i zenithtools:imgui_impl_glfw.obj
 0001:00012400       ?MouseButtonPressedCallback@Zenith_Input@@SAXH@Z 0000000140013400 f i Zenith_Input.obj
 0001:00012400       ?OnCreate@HookesLaw_Behaviour@@UEAAXXZ 0000000140013400 f i SphereMovement_Behaviour.obj
 0001:00012400       ?OnCreate@PlayerController_Behaviour@@UEAAXXZ 0000000140013400 f i PlayerController_Behaviour.obj
 0001:00012400       ?OnCreate@RotationBehaviour_Behaviour@@UEAAXXZ 0000000140013400 f i SphereMovement_Behaviour.obj
 0001:00012400       ?_Lock@?$basic_streambuf@DU?$char_traits@D@std@@@std@@UEAAXXZ 0000000140013400 f i Collider.obj
 0001:00012400       ?_Unlock@?$basic_streambuf@DU?$char_traits@D@std@@@std@@UEAAXXZ 0000000140013400 f i Collider.obj
 0001:00012400       ?destroyComponent@Components@reactphysics3d@@MEAAXI@Z 0000000140013400 f i Components.obj
 0001:00012400       ?imbue@?$basic_streambuf@DU?$char_traits@D@std@@@std@@MEAAXAEBVlocale@2@@Z 0000000140013400 f i Collider.obj
 0001:00012400       ?onContact@PhysicsEventListener@Zenith_Physics@@UEAAXAEBVCallbackData@CollisionCallback@reactphysics3d@@@Z 0000000140013400 f i Zenith_Physics.obj
 0001:00012400       ?onTrigger@EventListener@reactphysics3d@@UEAAXAEBVCallbackData@OverlapCallback@2@@Z 0000000140013400 f i DebugRenderer.obj
 0001:00012400       ?swap_or_move@?$basic_sparse_set@W4entity@entt@@V?$allocator@W4entity@entt@@@std@@@entt@@EEAAX_K0@Z 0000000140013400 f i Zenith_ColliderComponent.obj
 0001:00012400       ?swap_or_move@?$basic_storage@VZenith_TerrainComponent@@W4entity@entt@@V?$allocator@VZenith_TerrainComponent@@@std@@X@entt@@EEAAX_K0@Z 0000000140013400 f i Zenith_ColliderComponent.obj
 0001:00012400       __sanitizer_annotate_contiguous_container 0000000140013400 f i libcpmt:asan_noop.obj
 0001:00012400       __sanitizer_annotate_contiguous_container_default 0000000140013400 f i libcpmt:asan_noop.obj
 0001:00012400       _guard_check_icall_nop     0000000140013400 f i LIBCMT:guard_support.obj
 0001:00012400       _initialize_denormal_control 0000000140013400 f i LIBCMT:denormal_control.obj
 0001:00012400       _initialize_invalid_parameter_handler 0000000140013400 f i LIBCMT:invalid_parameter_handler.obj
 0001:00012410       ?_Osfx@?$basic_ostream@DU?$char_traits@D@std@@@std@@QEAAXXZ 0000000140013410 f i Collider.obj
 0001:000124c0       ?_Rep@?$num_put@DV?$ostreambuf_iterator@DU?$char_traits@D@std@@@std@@@std@@AEBA?AV?$ostreambuf_iterator@DU?$char_traits@D@std@@@2@V32@D_K@Z 00000001400134c0 f i Collider.obj
 0001:00012570       ?_Throw_bad_cast@std@@YAXXZ 0000000140013570 f i Collider.obj
 0001:00012590       ?_Xran@?$_String_val@U?$_Simple_types@D@std@@@std@@SAXXZ 0000000140013590 f i Collider.obj
 0001:00012590       ?_Xran@?$_String_val@U?$_Simple_types@_W@std@@@std@@SAXXZ 0000000140013590 f i Test_State_InGame.obj
 0001:000125b0       ?assign@?$basic_string@DU?$char_traits@D@std@@V?$allocator@D@2@@std@@QEAAAEAV12@QEBD_K@Z 00000001400135b0 f i Collider.obj
 0001:00012720       ?clear@ios_base@std@@QEAAXH@Z 0000000140013720 f i Collider.obj
 0001:000127a0       ?deallocate@?$allocator@D@std@@QEAAXQEAD_K@Z 00000001400137a0 f i Collider.obj
 0001:000127e0       ?default_error_condition@error_category@std@@UEBA?AVerror_condition@2@H@Z 00000001400137e0 f i Collider.obj
 0001:000127f0       ?do_falsename@?$numpunct@D@std@@MEBA?AV?$basic_string@DU?$char_traits@D@std@@V?$allocator@D@2@@2@XZ 00000001400137f0 f i Collider.obj
 0001:00012830       ?do_grouping@?$numpunct@D@std@@MEBA?AV?$basic_string@DU?$char_traits@D@std@@V?$allocator@D@2@@2@XZ 0000000140013830 f i Collider.obj
 0001:00012870       ?do_narrow@?$ctype@D@std@@MEBADDD@Z 0000000140013870 f i Collider.obj
 0001:00012870       ?do_widen@?$ctype@D@std@@MEBADD@Z 0000000140013870 f i Collider.obj
 0001:00012880       ?do_narrow@?$ctype@D@std@@MEBAPEBDPEBD0DPEAD@Z 0000000140013880 f i Collider.obj
 0001:000128a0       ?do_put@?$num_put@DV?$ostreambuf_iterator@DU?$char_traits@D@std@@@std@@@std@@MEBA?AV?$ostreambuf_iterator@DU?$char_traits@D@std@@@2@V32@AEAVios_base@2@DJ@Z 00000001400138a0 f i Collider.obj
 0001:000129b0       ?do_put@?$num_put@DV?$ostreambuf_iterator@DU?$char_traits@D@std@@@std@@@std@@MEBA?AV?$ostreambuf_iterator@DU?$char_traits@D@std@@@2@V32@AEAVios_base@2@DK@Z 00000001400139b0 f i Collider.obj
 0001:00012ac0       ?do_put@?$num_put@DV?$ostreambuf_iterator@DU?$char_traits@D@std@@@std@@@std@@MEBA?AV?$ostreambuf_iterator@DU?$char_traits@D@std@@@2@V32@AEAVios_base@2@DN@Z 0000000140013ac0 f i Collider.obj
 0001:00012dd0       ?do_put@?$num_put@DV?$ostreambuf_iterator@DU?$char_traits@D@std@@@std@@@std@@MEBA?AV?$ostreambuf_iterator@DU?$char_traits@D@std@@@2@V32@AEAVios_base@2@DO@Z 0000000140013dd0 f i Collider.obj
 0001:000130e0       ?do_put@?$num_put@DV?$ostreambuf_iterator@DU?$char_traits@D@std@@@std@@@std@@MEBA?AV?$ostreambuf_iterator@DU?$char_traits@D@std@@@2@V32@AEAVios_base@2@DPEBX@Z 00000001400140e0 f i Collider.obj
 0001:00013180       ?do_put@?$num_put@DV?$ostreambuf_iterator@DU?$char_traits@D@std@@@std@@@std@@MEBA?AV?$ostreambuf_iterator@DU?$char_traits@D@std@@@2@V32@AEAVios_base@2@D_J@Z 0000000140014180 f i Collider.obj
 0001:000132a0       ?do_put@?$num_put@DV?$ostreambuf_iterator@DU?$char_traits@D@std@@@std@@@std@@MEBA?AV?$ostreambuf_iterator@DU?$char_traits@D@std@@@2@V32@AEAVios_base@2@D_K@Z 00000001400142a0 f i Collider.obj
 0001:000133c0       ?do_put@?$num_put@DV?$ostreambuf_iterator@DU?$char_traits@D@std@@@std@@@std@@MEBA?AV?$ostreambuf_iterator@DU?$char_traits@D@std@@@2@V32@AEAVios_base@2@D_N@Z 00000001400143c0 f i Collider.obj
 0001:000136a0       ?do_thousands_sep@?$numpunct@D@std@@MEBADXZ 00000001400146a0 f i Collider.obj
 0001:000136b0       ?do_tolower@?$ctype@D@std@@MEBADD@Z 00000001400146b0 f i Collider.obj
 0001:000136c0       ?do_tolower@?$ctype@D@std@@MEBAPEBDPEADPEBD@Z 00000001400146c0 f i Collider.obj
 0001:00013710       ?do_toupper@?$ctype@D@std@@MEBADD@Z 0000000140014710 f i Collider.obj
 0001:00013720       ?do_toupper@?$ctype@D@std@@MEBAPEBDPEADPEBD@Z 0000000140014720 f i Collider.obj
 0001:00013770       ?do_truename@?$numpunct@D@std@@MEBA?AV?$basic_string@DU?$char_traits@D@std@@V?$allocator@D@2@@2@XZ 0000000140014770 f i Collider.obj
 0001:000137b0       ?do_widen@?$ctype@D@std@@MEBAPEBDPEBD0PEAD@Z 00000001400147b0 f i Collider.obj
 0001:000137d0       ?equivalent@error_category@std@@UEBA_NAEBVerror_code@2@H@Z 00000001400147d0 f i Collider.obj
 0001:000137f0       ?equivalent@error_category@std@@UEBA_NHAEBVerror_condition@2@@Z 00000001400147f0 f i Collider.obj
 0001:00013830       ?flush@?$basic_ostream@DU?$char_traits@D@std@@@std@@QEAAAEAV12@XZ 0000000140014830 f i Collider.obj
 0001:00013970       ?getBroadPhaseId@Collider@reactphysics3d@@QEBAHXZ 0000000140014970 f   Collider.obj
 0001:000139c0       ?getCollisionShape@Collider@reactphysics3d@@QEAAPEAVCollisionShape@2@XZ 00000001400149c0 f   Collider.obj
 0001:000139c0       ?getCollisionShape@Collider@reactphysics3d@@QEBAPEBVCollisionShape@2@XZ 00000001400149c0 f   Collider.obj
 0001:00013a10       ?getLocalToWorldTransform@Collider@reactphysics3d@@QEBA?BVTransform@2@XZ 0000000140014a10 f   Collider.obj
 0001:00013a90       ?getMaterial@Collider@reactphysics3d@@QEAAAEAVMaterial@2@XZ 0000000140014a90 f   Collider.obj
 0001:00013ae0       ?getWorldAABB@Collider@reactphysics3d@@QEBA?BVAABB@2@XZ 0000000140014ae0 f   Collider.obj
 0001:00013bb0       ?init@?$basic_ios@DU?$char_traits@D@std@@@std@@IEAAXPEAV?$basic_streambuf@DU?$char_traits@D@std@@@2@_N@Z 0000000140014bb0 f i Collider.obj
 0001:00013d20       ?make_error_code@std@@YA?AVerror_code@1@W4io_errc@1@@Z 0000000140014d20 f i Collider.obj
 0001:00013d40       ?message@_Iostream_error_category2@std@@UEBA?AV?$basic_string@DU?$char_traits@D@std@@V?$allocator@D@2@@2@H@Z 0000000140014d40 f i Collider.obj
 0001:00013df0       ?name@_Iostream_error_category2@std@@UEBAPEBDXZ 0000000140014df0 f i Collider.obj
 0001:00013e00       ?overflow@?$basic_streambuf@DU?$char_traits@D@std@@@std@@MEAAHH@Z 0000000140014e00 f i Collider.obj
 0001:00013e00       ?pbackfail@?$basic_streambuf@DU?$char_traits@D@std@@@std@@MEAAHH@Z 0000000140014e00 f i Collider.obj
 0001:00013e00       ?underflow@?$basic_streambuf@DU?$char_traits@D@std@@@std@@MEAAHXZ 0000000140014e00 f i Collider.obj
 0001:00013e10       ?overflow@?$basic_stringbuf@DU?$char_traits@D@std@@V?$allocator@D@2@@std@@MEAAHH@Z 0000000140014e10 f i Collider.obj
 0001:00014000       ?pbackfail@?$basic_stringbuf@DU?$char_traits@D@std@@V?$allocator@D@2@@std@@MEAAHH@Z 0000000140015000 f i Collider.obj
 0001:00014060       ?put@?$basic_ostream@DU?$char_traits@D@std@@@std@@QEAAAEAV12@D@Z 0000000140015060 f i Collider.obj
 0001:00014200       ?seekoff@?$basic_streambuf@DU?$char_traits@D@std@@@std@@MEAA?AV?$fpos@U_Mbstatet@@@2@_JHH@Z 0000000140015200 f i Collider.obj
 0001:00014200       ?seekpos@?$basic_streambuf@DU?$char_traits@D@std@@@std@@MEAA?AV?$fpos@U_Mbstatet@@@2@V32@H@Z 0000000140015200 f i Collider.obj
 0001:00014220       ?seekoff@?$basic_stringbuf@DU?$char_traits@D@std@@V?$allocator@D@2@@std@@MEAA?AV?$fpos@U_Mbstatet@@@2@_JHH@Z 0000000140015220 f i Collider.obj
 0001:000143b0       ?seekpos@?$basic_stringbuf@DU?$char_traits@D@std@@V?$allocator@D@2@@std@@MEAA?AV?$fpos@U_Mbstatet@@@2@V32@H@Z 00000001400153b0 f i Collider.obj
 0001:000144e0       ?setHasCollisionShapeChangedSize@Collider@reactphysics3d@@IEAAX_N@Z 00000001400154e0 f   Collider.obj
 0001:00014540       ?setbuf@?$basic_streambuf@DU?$char_traits@D@std@@@std@@MEAAPEAV12@PEAD_J@Z 0000000140015540 f i Collider.obj
 0001:00014550       ?CheckCorruption@VmaBlockMetadata_Linear@@UEAA?AW4VkResult@@PEBX@Z 0000000140015550 f i Zenith_Vulkan_MemoryManager.obj
 0001:00014550       ?CheckCorruption@VmaBlockMetadata_TLSF@@UEAA?AW4VkResult@@PEBX@Z 0000000140015550 f i Zenith_Vulkan_MemoryManager.obj
 0001:00014550       ?GetAllocationListBegin@VmaBlockMetadata_Linear@@UEBAPEAUVmaAllocHandle_T@@XZ 0000000140015550 f i Zenith_Vulkan_MemoryManager.obj
 0001:00014550       ?GetNextAllocation@VmaBlockMetadata_Linear@@UEBAPEAUVmaAllocHandle_T@@PEAU2@@Z 0000000140015550 f i Zenith_Vulkan_MemoryManager.obj
 0001:00014550       ?GetNextFreeRegionSize@VmaBlockMetadata_Linear@@UEBA_KPEAUVmaAllocHandle_T@@@Z 0000000140015550 f i Zenith_Vulkan_MemoryManager.obj
 0001:00014550       ?_Get_deleter@_Ref_count_base@std@@UEBAPEAXAEBVtype_info@@@Z 0000000140015550 f i Zenith_ColliderComponent.obj
 0001:00014550       ?get_at@?$basic_sparse_set@W4entity@entt@@V?$allocator@W4entity@entt@@@std@@@entt@@EEBAPEBX_K@Z 0000000140015550 f i Zenith_ColliderComponent.obj
 0001:00014550       ?showmanyc@?$basic_streambuf@DU?$char_traits@D@std@@@std@@MEAA_JXZ 0000000140015550 f i Collider.obj
 0001:00014550       ?sync@?$basic_streambuf@DU?$char_traits@D@std@@@std@@MEAAHXZ 0000000140015550 f i Collider.obj
 0001:00014550       __scrt_exe_initialize_mta  0000000140015550 f i LIBCMT:utility_desktop.obj
 0001:00014550       __scrt_initialize_winrt    0000000140015550 f i LIBCMT:utility_desktop.obj
 0001:00014550       __scrt_stub_for_initialize_mta 0000000140015550 f i LIBCMT:utility_desktop.obj
 0001:00014550       _get_startup_commit_mode   0000000140015550 f i LIBCMT:commit_mode.obj
 0001:00014550       _get_startup_new_mode      0000000140015550 f i LIBCMT:new_mode.obj
 0001:00014550       _get_startup_thread_locale_mode 0000000140015550 f i LIBCMT:thread_locale.obj
 0001:00014550       _matherr                   0000000140015550 f i LIBCMT:matherr.obj
 0001:00014560       ?uflow@?$basic_streambuf@DU?$char_traits@D@std@@@std@@MEAAHXZ 0000000140015560 f i Collider.obj
 0001:000145a0       ?underflow@?$basic_stringbuf@DU?$char_traits@D@std@@V?$allocator@D@2@@std@@MEAAHXZ 00000001400155a0 f i Collider.obj
 0001:00014610       ?xsgetn@?$basic_streambuf@DU?$char_traits@D@std@@@std@@MEAA_JPEAD_J@Z 0000000140015610 f i Collider.obj
 0001:000146d0       ?xsputn@?$basic_streambuf@DU?$char_traits@D@std@@@std@@MEAA_JPEBD_J@Z 00000001400156d0 f i Collider.obj
 0001:00014790       ??0CallbackData@CollisionCallback@reactphysics3d@@AEAA@PEAV?$Array@UContactPair@reactphysics3d@@@2@PEAV?$Array@VContactManifold@reactphysics3d@@@2@PEAV?$Array@VContactPoint@reactphysics3d@@@2@AEAV32@AEAVPhysicsWorld@2@@Z 0000000140015790 f   CollisionCallback.obj
 0001:00014920       ?getCollider1@ContactPair@CollisionCallback@reactphysics3d@@QEBAPEAVCollider@3@XZ 0000000140015920 f   CollisionCallback.obj
 0001:00014970       ?getContactPair@CallbackData@CollisionCallback@reactphysics3d@@QEBA?AVContactPair@23@_K@Z 0000000140015970 f   CollisionCallback.obj
 0001:000149e0       ?getContactPoint@ContactPair@CollisionCallback@reactphysics3d@@QEBA?AVContactPoint@23@I@Z 00000001400159e0 f   CollisionCallback.obj
 0001:00014a10       ?getEventType@ContactPair@CollisionCallback@reactphysics3d@@QEBA?AW4EventType@123@XZ 0000000140015a10 f   CollisionCallback.obj
 0001:00014a30       ?reserve@?$Array@PEAVRigidBody@reactphysics3d@@@reactphysics3d@@QEAAX_K@Z 0000000140015a30 f i PhysicsWorld.obj
 0001:00014a30       ?reserve@?$Array@UVertex@HalfEdgeStructure@reactphysics3d@@@reactphysics3d@@QEAAX_K@Z 0000000140015a30 f i ConvexMesh.obj
 0001:00014a30       ?reserve@?$Array@V?$Pair@II@reactphysics3d@@@reactphysics3d@@QEAAX_K@Z 0000000140015a30 f i HalfEdgeStructure.obj
 0001:00014a30       ?reserve@?$Array@_K@reactphysics3d@@QEAAX_K@Z 0000000140015a30 f i CollisionCallback.obj
 0001:00014b40       ??0ContactManifold@reactphysics3d@@QEAA@UEntity@1@000IE@Z 0000000140015b40 f   ContactManifold.obj
 0001:00014b80       ??$_Destroy_range@V?$allocator@UMessage@reactphysics3d@@@std@@@std@@YAXPEAUMessage@reactphysics3d@@QEAU12@AEAV?$allocator@UMessage@reactphysics3d@@@0@@Z 0000000140015b80 f i ConvexMesh.obj
 0001:00014c10       ??$_Emplace_reallocate@UMessage@reactphysics3d@@@?$vector@UMessage@reactphysics3d@@V?$allocator@UMessage@reactphysics3d@@@std@@@std@@AEAAPEAUMessage@reactphysics3d@@QEAU23@$$QEAU23@@Z 0000000140015c10 f i ConvexMesh.obj
 0001:00014e90       ??$_Uninitialized_move@PEAUMessage@reactphysics3d@@V?$allocator@UMessage@reactphysics3d@@@std@@@std@@YAPEAUMessage@reactphysics3d@@QEAU12@0PEAU12@AEAV?$allocator@UMessage@reactphysics3d@@@0@@Z 0000000140015e90 f i ConvexMesh.obj
 0001:00014f20       ??0?$Array@I@reactphysics3d@@QEAA@AEBV01@@Z 0000000140015f20 f i ConvexMesh.obj
 0001:00014f20       ??0?$Array@UEntity@reactphysics3d@@@reactphysics3d@@QEAA@AEBV01@@Z 0000000140015f20 f i BodyComponents.obj
 0001:00014fc0       ?_Xlength@?$vector@P6AXXZV?$allocator@P6AXXZ@std@@@std@@CAXXZ 0000000140015fc0 f i Flux_Graphics.obj
 0001:00014fc0       ?_Xlength@?$vector@PEAULeafNodeBase@Zenith_DebugVariableTree@@V?$allocator@PEAULeafNodeBase@Zenith_DebugVariableTree@@@std@@@std@@CAXXZ 0000000140015fc0 f i Zenith_DebugVariables.obj
 0001:00014fc0       ?_Xlength@?$vector@PEAUNode@Zenith_DebugVariableTree@@V?$allocator@PEAUNode@Zenith_DebugVariableTree@@@std@@@std@@CAXXZ 0000000140015fc0 f i Zenith_DebugVariables.obj
 0001:00014fc0       ?_Xlength@?$vector@PEAVZenith_CameraComponent@@V?$allocator@PEAVZenith_CameraComponent@@@std@@@std@@CAXXZ 0000000140015fc0 f i Zenith_Scene.obj
 0001:00014fc0       ?_Xlength@?$vector@PEAVZenith_ColliderComponent@@V?$allocator@PEAVZenith_ColliderComponent@@@std@@@std@@CAXXZ 0000000140015fc0 f i PlayerController_Behaviour.obj
 0001:00014fc0       ?_Xlength@?$vector@PEAVZenith_ModelComponent@@V?$allocator@PEAVZenith_ModelComponent@@@std@@@std@@CAXXZ 0000000140015fc0 f i Flux_AnimatedMeshes.obj
 0001:00014fc0       ?_Xlength@?$vector@PEAVZenith_ScriptComponent@@V?$allocator@PEAVZenith_ScriptComponent@@@std@@@std@@CAXXZ 0000000140015fc0 f i Zenith_Scene.obj
 0001:00014fc0       ?_Xlength@?$vector@PEAVZenith_TerrainComponent@@V?$allocator@PEAVZenith_TerrainComponent@@@std@@@std@@CAXXZ 0000000140015fc0 f i Zenith_ColliderComponent.obj
 0001:00014fc0       ?_Xlength@?$vector@PEAVZenith_TextComponent@@V?$allocator@PEAVZenith_TextComponent@@@std@@@std@@CAXXZ 0000000140015fc0 f i Flux_Text.obj
 0001:00014fc0       ?_Xlength@?$vector@PEAVZenith_TransformComponent@@V?$allocator@PEAVZenith_TransformComponent@@@std@@@std@@CAXXZ 0000000140015fc0 f i Zenith_ColliderComponent.obj
 0001:00014fc0       ?_Xlength@?$vector@PEAW4entity@entt@@V?$allocator@PEAW4entity@entt@@@std@@@std@@CAXXZ 0000000140015fc0 f i Zenith_ColliderComponent.obj
 0001:00014fc0       ?_Xlength@?$vector@PEBVZenith_Vulkan_CommandBuffer@@V?$allocator@PEBVZenith_Vulkan_CommandBuffer@@@std@@@std@@CAXXZ 0000000140015fc0 f i Zenith_Vulkan_CommandBuffer.obj
 0001:00014fc0       ?_Xlength@?$vector@U?$dense_map_node@IV?$shared_ptr@V?$basic_sparse_set@W4entity@entt@@V?$allocator@W4entity@entt@@@std@@@entt@@@std@@@internal@entt@@V?$allocator@U?$dense_map_node@IV?$shared_ptr@V?$basic_sparse_set@W4entity@entt@@V?$allocator@W4entity@entt@@@std@@@entt@@@std@@@internal@entt@@@std@@@std@@CAXXZ 0000000140015fc0 f i Zenith_ColliderComponent.obj
 0001:00014fc0       ?_Xlength@?$vector@U?$pair@U?$qua@M$0A@@glm@@M@std@@V?$allocator@U?$pair@U?$qua@M$0A@@glm@@M@std@@@2@@std@@CAXXZ 0000000140015fc0 f i Flux_MeshAnimation.obj
 0001:00014fc0       ?_Xlength@?$vector@U?$pair@U?$vec@$02M$0A@@glm@@M@std@@V?$allocator@U?$pair@U?$vec@$02M$0A@@glm@@M@std@@@2@@std@@CAXXZ 0000000140015fc0 f i Flux_MeshAnimation.obj
 0001:00014fc0       ?_Xlength@?$vector@U?$vec@$02M$0A@@glm@@V?$allocator@U?$vec@$02M$0A@@glm@@@std@@@std@@CAXXZ 0000000140015fc0 f i zenithtools:Zenith_Tools_TerrainExport.obj
 0001:00014fc0       ?_Xlength@?$vector@UAttachmentDescription@vk@@V?$allocator@UAttachmentDescription@vk@@@std@@@std@@CAXXZ 0000000140015fc0 f i Zenith_Vulkan_Pipeline.obj
 0001:00014fc0       ?_Xlength@?$vector@UAttachmentReference@vk@@V?$allocator@UAttachmentReference@vk@@@std@@@std@@CAXXZ 0000000140015fc0 f i Zenith_Vulkan_Pipeline.obj
 0001:00014fc0       ?_Xlength@?$vector@UDescriptorSetLayoutBinding@vk@@V?$allocator@UDescriptorSetLayoutBinding@vk@@@std@@@std@@CAXXZ 0000000140015fc0 f i Zenith_Vulkan_Pipeline.obj
 0001:00014fc0       ?_Xlength@?$vector@UDeviceQueueCreateInfo@vk@@V?$allocator@UDeviceQueueCreateInfo@vk@@@std@@@std@@CAXXZ 0000000140015fc0 f i Zenith_Vulkan.obj
 0001:00014fc0       ?_Xlength@?$vector@UFlux_BlendState@@V?$allocator@UFlux_BlendState@@@std@@@std@@CAXXZ 0000000140015fc0 f i Flux_AnimatedMeshes.obj
 0001:00014fc0       ?_Xlength@?$vector@UFlux_BufferElement@@V?$allocator@UFlux_BufferElement@@@std@@@std@@CAXXZ 0000000140015fc0 f i Flux_AnimatedMeshes.obj
 0001:00014fc0       ?_Xlength@?$vector@UMeshEntry@Zenith_ModelComponent@@V?$allocator@UMeshEntry@Zenith_ModelComponent@@@std@@@std@@CAXXZ 0000000140015fc0 f i Flux_AnimatedMeshes.obj
 0001:00014fc0       ?_Xlength@?$vector@UMessage@reactphysics3d@@V?$allocator@UMessage@reactphysics3d@@@std@@@std@@CAXXZ 0000000140015fc0 f i ConvexMesh.obj
 0001:00014fc0       ?_Xlength@?$vector@UNode@Flux_MeshAnimation@@V?$allocator@UNode@Flux_MeshAnimation@@@std@@@std@@CAXXZ 0000000140015fc0 f i Flux_MeshAnimation.obj
 0001:00014fc0       ?_Xlength@?$vector@UPipelineColorBlendAttachmentState@vk@@V?$allocator@UPipelineColorBlendAttachmentState@vk@@@std@@@std@@CAXXZ 0000000140015fc0 f i Zenith_Vulkan_Pipeline.obj
 0001:00014fc0       ?_Xlength@?$vector@UPushConstantRange@vk@@V?$allocator@UPushConstantRange@vk@@@std@@@std@@CAXXZ 0000000140015fc0 f i Zenith_Vulkan_Pipeline.obj
 0001:00014fc0       ?_Xlength@?$vector@UQueueFamilyProperties@vk@@V?$allocator@UQueueFamilyProperties@vk@@@std@@@std@@CAXXZ 0000000140015fc0 f i Zenith_Vulkan.obj
 0001:00014fc0       ?_Xlength@?$vector@USurfaceFormatKHR@vk@@V?$allocator@USurfaceFormatKHR@vk@@@std@@@std@@CAXXZ 0000000140015fc0 f i Zenith_Vulkan_Swapchain.obj
 0001:00014fc0       ?_Xlength@?$vector@UTextEntry@@V?$allocator@UTextEntry@@@std@@@std@@CAXXZ 0000000140015fc0 f i Zenith_TextComponent.obj
 0001:00014fc0       ?_Xlength@?$vector@UTextEntry_World@@V?$allocator@UTextEntry_World@@@std@@@std@@CAXXZ 0000000140015fc0 f i Zenith_TextComponent.obj
 0001:00014fc0       ?_Xlength@?$vector@UVertexInputAttributeDescription@vk@@V?$allocator@UVertexInputAttributeDescription@vk@@@std@@@std@@CAXXZ 0000000140015fc0 f i Zenith_Vulkan_Pipeline.obj
 0001:00014fc0       ?_Xlength@?$vector@UVertexInputBindingDescription@vk@@V?$allocator@UVertexInputBindingDescription@vk@@@std@@@std@@CAXXZ 0000000140015fc0 f i Zenith_Vulkan_Pipeline.obj
 0001:00014fc0       ?_Xlength@?$vector@UWriteDescriptorSet@vk@@V?$allocator@UWriteDescriptorSet@vk@@@std@@@std@@CAXXZ 0000000140015fc0 f i Zenith_Vulkan_CommandBuffer.obj
 0001:00014fc0       ?_Xlength@?$vector@U_Find_file_handle@filesystem@std@@V?$allocator@U_Find_file_handle@filesystem@std@@@3@@std@@CAXXZ 0000000140015fc0 f i zenithtools:Zenith_Tools_MeshExport.obj
 0001:00014fc0       ?_Xlength@?$vector@V?$Flags@W4DescriptorBindingFlagBits@vk@@@vk@@V?$allocator@V?$Flags@W4DescriptorBindingFlagBits@vk@@@vk@@@std@@@std@@CAXXZ 0000000140015fc0 f i Zenith_Vulkan_Pipeline.obj
 0001:00014fc0       ?_Xlength@?$vector@V?$basic_string@DU?$char_traits@D@std@@V?$allocator@D@2@@std@@V?$allocator@V?$basic_string@DU?$char_traits@D@std@@V?$allocator@D@2@@std@@@2@@std@@CAXXZ 0000000140015fc0 f i Zenith_DebugVariables.obj
 0001:00014fc0       ?_Xlength@?$vector@VAnimBone@Flux_MeshAnimation@@V?$allocator@VAnimBone@Flux_MeshAnimation@@@std@@@std@@CAXXZ 0000000140015fc0 f i Flux_MeshAnimation.obj
 0001:00014fc0       ?_Xlength@?$vector@VCommandBuffer@vk@@V?$allocator@VCommandBuffer@vk@@@std@@@std@@CAXXZ 0000000140015fc0 f i Zenith_Vulkan.obj
 0001:00014fc0       ?_Xlength@?$vector@VDescriptorSetLayout@vk@@V?$allocator@VDescriptorSetLayout@vk@@@std@@@std@@CAXXZ 0000000140015fc0 f i Zenith_Vulkan_Pipeline.obj
 0001:00014fc0       ?_Xlength@?$vector@VImage@vk@@V?$allocator@VImage@vk@@@std@@@std@@CAXXZ 0000000140015fc0 f i Zenith_Vulkan_Swapchain.obj
 0001:00014fc0       ?_Xlength@?$vector@VImageView@vk@@V?$allocator@VImageView@vk@@@std@@@std@@CAXXZ 0000000140015fc0 f i Zenith_Vulkan_Swapchain.obj
 0001:00014fc0       ?_Xlength@?$vector@VPhysicalDevice@vk@@V?$allocator@VPhysicalDevice@vk@@@std@@@std@@CAXXZ 0000000140015fc0 f i Zenith_Vulkan.obj
 0001:00014fc0       ?_Xlength@?$vector@VSemaphore@vk@@V?$allocator@VSemaphore@vk@@@std@@@std@@CAXXZ 0000000140015fc0 f i Zenith_Vulkan_CommandBuffer.obj
 0001:00014fc0       ?_Xlength@?$vector@W4ColourFormat@@V?$allocator@W4ColourFormat@@@std@@@std@@CAXXZ 0000000140015fc0 f i Zenith_Vulkan_Pipeline.obj
 0001:00014fc0       ?_Xlength@?$vector@W4PresentModeKHR@vk@@V?$allocator@W4PresentModeKHR@vk@@@std@@@std@@CAXXZ 0000000140015fc0 f i Zenith_Vulkan_Swapchain.obj
 0001:00014fc0       ?_Xlength@?$vector@W4entity@entt@@V?$allocator@W4entity@entt@@@std@@@std@@CAXXZ 0000000140015fc0 f i Zenith_ColliderComponent.obj
 0001:00014fc0       ?_Xlength@?$vector@_KV?$allocator@_K@std@@@std@@CAXXZ 0000000140015fc0 f i Zenith_ColliderComponent.obj
 0001:00014fe0       ?deallocate@?$allocator@UDeviceQueueCreateInfo@vk@@@std@@QEAAXQEAUDeviceQueueCreateInfo@vk@@_K@Z 0000000140015fe0 f i Zenith_Vulkan.obj
 0001:00014fe0       ?deallocate@?$allocator@UFlux_BufferElement@@@std@@QEAAXQEAUFlux_BufferElement@@_K@Z 0000000140015fe0 f i Flux_AnimatedMeshes.obj
 0001:00014fe0       ?deallocate@?$allocator@UMessage@reactphysics3d@@@std@@QEAAXQEAUMessage@reactphysics3d@@_K@Z 0000000140015fe0 f i ConvexMesh.obj
 0001:00015030       ?reserve@?$Array@UFace@HalfEdgeStructure@reactphysics3d@@@reactphysics3d@@QEAAX_K@Z 0000000140016030 f i ConvexMesh.obj
 0001:000151f0       ?reserve@?$Array@UVector3@reactphysics3d@@@reactphysics3d@@QEAAX_K@Z 00000001400161f0 f i ConvexMesh.obj
 0001:00015310       ??1?$Map@IV?$Pair@II@reactphysics3d@@U?$hash@I@std@@U?$equal_to@I@4@@reactphysics3d@@QEAA@XZ 0000000140016310 f i HalfEdgeStructure.obj
 0001:00015310       ??1?$Map@V?$Pair@II@reactphysics3d@@IU?$hash@V?$Pair@II@reactphysics3d@@@std@@U?$equal_to@V?$Pair@II@reactphysics3d@@@4@@reactphysics3d@@QEAA@XZ 0000000140016310 f i HalfEdgeStructure.obj
 0001:00015410       ?add@?$Map@V?$Pair@II@reactphysics3d@@IU?$hash@V?$Pair@II@reactphysics3d@@@std@@U?$equal_to@V?$Pair@II@reactphysics3d@@@4@@reactphysics3d@@QEAA_NAEBV?$Pair@V?$Pair@II@reactphysics3d@@I@2@_N@Z 0000000140016410 f i HalfEdgeStructure.obj
 0001:00015660       ?computeHalfEdges@HalfEdgeStructure@reactphysics3d@@QEAAXXZ 0000000140016660 f   HalfEdgeStructure.obj
 0001:00016ff0       ?findEntry@?$Map@V?$Pair@II@reactphysics3d@@IU?$hash@V?$Pair@II@reactphysics3d@@@std@@U?$equal_to@V?$Pair@II@reactphysics3d@@@4@@reactphysics3d@@AEBA_KAEBV?$Pair@II@2@@Z 0000000140017ff0 f i HalfEdgeStructure.obj
 0001:000171a0       ?reserve@?$Array@UEdge@HalfEdgeStructure@reactphysics3d@@@reactphysics3d@@QEAAX_K@Z 00000001400181a0 f i HalfEdgeStructure.obj
 0001:000172b0       ?reserve@?$Map@IV?$Pair@II@reactphysics3d@@U?$hash@I@std@@U?$equal_to@I@4@@reactphysics3d@@QEAAX_K@Z 00000001400182b0 f i HalfEdgeStructure.obj
 0001:00017650       ?reserve@?$Map@V?$Pair@II@reactphysics3d@@IU?$hash@V?$Pair@II@reactphysics3d@@@std@@U?$equal_to@V?$Pair@II@reactphysics3d@@@4@@reactphysics3d@@QEAAX_K@Z 0000000140018650 f i HalfEdgeStructure.obj
 0001:00017a60       ?reserve@?$Map@V?$Pair@II@reactphysics3d@@UEdge@HalfEdgeStructure@2@U?$hash@V?$Pair@II@reactphysics3d@@@std@@U?$equal_to@V?$Pair@II@reactphysics3d@@@6@@reactphysics3d@@QEAAX_K@Z 0000000140018a60 f i HalfEdgeStructure.obj
 0001:00017e70       ?reserve@?$Map@V?$Pair@II@reactphysics3d@@V12@U?$hash@V?$Pair@II@reactphysics3d@@@std@@U?$equal_to@V?$Pair@II@reactphysics3d@@@4@@reactphysics3d@@QEAAX_K@Z 0000000140018e70 f i HalfEdgeStructure.obj
 0001:00018270       ??0?$basic_istream@DU?$char_traits@D@std@@@std@@QEAA@PEAV?$basic_streambuf@DU?$char_traits@D@std@@@1@_N@Z 0000000140019270 f i HeightField.obj
 0001:00018450       ??6?$basic_ostream@DU?$char_traits@D@std@@@std@@QEAAAEAV01@I@Z 0000000140019450 f i HeightField.obj
 0001:00018640       ?getVertexAt@HeightField@reactphysics3d@@QEBA?AUVector3@2@II@Z 0000000140019640 f   HeightField.obj
 0001:000186b0       ?testCollision@CapsuleVsCapsuleAlgorithm@reactphysics3d@@QEAA_NAEAUNarrowPhaseInfoBatch@2@IIAEAVMemoryAllocator@2@@Z 00000001400196b0 f   CapsuleVsCapsuleAlgorithm.obj
 0001:0001acd0       ?testCollision@CapsuleVsConvexPolyhedronAlgorithm@reactphysics3d@@QEAA_NAEAUNarrowPhaseInfoBatch@2@II_NAEAVMemoryAllocator@2@@Z 000000014001bcd0 f   CapsuleVsConvexPolyhedronAlgorithm.obj
 0001:0001bc70       ??0CollisionDispatch@reactphysics3d@@QEAA@AEAVMemoryAllocator@1@@Z 000000014001cc70 f   CollisionDispatch.obj
 0001:0001bd80       ??1CollisionDispatch@reactphysics3d@@QEAA@XZ 000000014001cd80 f   CollisionDispatch.obj
 0001:0001be20       ??_ECapsuleVsCapsuleAlgorithm@reactphysics3d@@UEAAPEAXI@Z 000000014001ce20 f i CollisionDispatch.obj
 0001:0001be20       ??_ECapsuleVsConvexPolyhedronAlgorithm@reactphysics3d@@UEAAPEAXI@Z 000000014001ce20 f i CollisionDispatch.obj
 0001:0001be20       ??_EConvexPolyhedronVsConvexPolyhedronAlgorithm@reactphysics3d@@UEAAPEAXI@Z 000000014001ce20 f i CollisionDispatch.obj
 0001:0001be20       ??_EDefaultAllocator@reactphysics3d@@UEAAPEAXI@Z 000000014001ce20 f i MemoryManager.obj
 0001:0001be20       ??_EError@vk@@UEAAPEAXI@Z  000000014001ce20 f i Zenith_DebugVariables.obj
 0001:0001be20       ??_EPhysicsEventListener@Zenith_Physics@@UEAAPEAXI@Z 000000014001ce20 f i Zenith_Physics.obj
 0001:0001be20       ??_ESphereVsCapsuleAlgorithm@reactphysics3d@@UEAAPEAXI@Z 000000014001ce20 f i CollisionDispatch.obj
 0001:0001be20       ??_ESphereVsConvexPolyhedronAlgorithm@reactphysics3d@@UEAAPEAXI@Z 000000014001ce20 f i CollisionDispatch.obj
 0001:0001be20       ??_ESphereVsSphereAlgorithm@reactphysics3d@@UEAAPEAXI@Z 000000014001ce20 f i CollisionDispatch.obj
 0001:0001be20       ??_GCapsuleVsCapsuleAlgorithm@reactphysics3d@@UEAAPEAXI@Z 000000014001ce20 f i CollisionDispatch.obj
 0001:0001be20       ??_GCapsuleVsConvexPolyhedronAlgorithm@reactphysics3d@@UEAAPEAXI@Z 000000014001ce20 f i CollisionDispatch.obj
 0001:0001be20       ??_GConvexPolyhedronVsConvexPolyhedronAlgorithm@reactphysics3d@@UEAAPEAXI@Z 000000014001ce20 f i CollisionDispatch.obj
 0001:0001be20       ??_GDefaultAllocator@reactphysics3d@@UEAAPEAXI@Z 000000014001ce20 f i MemoryManager.obj
 0001:0001be20       ??_GError@vk@@UEAAPEAXI@Z  000000014001ce20 f i Zenith_DebugVariables.obj
 0001:0001be20       ??_GPhysicsEventListener@Zenith_Physics@@UEAAPEAXI@Z 000000014001ce20 f i Zenith_Physics.obj
 0001:0001be20       ??_GSphereVsCapsuleAlgorithm@reactphysics3d@@UEAAPEAXI@Z 000000014001ce20 f i CollisionDispatch.obj
 0001:0001be20       ??_GSphereVsConvexPolyhedronAlgorithm@reactphysics3d@@UEAAPEAXI@Z 000000014001ce20 f i CollisionDispatch.obj
 0001:0001be20       ??_GSphereVsSphereAlgorithm@reactphysics3d@@UEAAPEAXI@Z 000000014001ce20 f i CollisionDispatch.obj
 0001:0001be50       ?fillInCollisionMatrix@CollisionDispatch@reactphysics3d@@QEAAXXZ 000000014001ce50 f   CollisionDispatch.obj
 0001:0001bed0       ?selectNarrowPhaseAlgorithm@CollisionDispatch@reactphysics3d@@QEBA?AW4NarrowPhaseAlgorithmType@2@AEBW4CollisionShapeType@2@0@Z 000000014001ced0 f   CollisionDispatch.obj
 0001:0001bef0       ?testCollision@ConvexPolyhedronVsConvexPolyhedronAlgorithm@reactphysics3d@@QEAA_NAEAUNarrowPhaseInfoBatch@2@II_NAEAVMemoryAllocator@2@@Z 000000014001cef0 f   ConvexPolyhedronVsConvexPolyhedronAlgorithm.obj
 0001:0001bf70       ?add@?$Array@W4GJKResult@GJKAlgorithm@reactphysics3d@@@reactphysics3d@@QEAAXAEBW4GJKResult@GJKAlgorithm@2@@Z 000000014001cf70 f i GJKAlgorithm.obj
 0001:0001c0c0       ?testCollision@GJKAlgorithm@reactphysics3d@@QEAAXAEAUNarrowPhaseInfoBatch@2@IIAEAV?$Array@W4GJKResult@GJKAlgorithm@reactphysics3d@@@2@@Z 000000014001d0c0 f   GJKAlgorithm.obj
 0001:0001d7a0       ??0VoronoiSimplex@reactphysics3d@@QEAA@XZ 000000014001e7a0 f   VoronoiSimplex.obj
 0001:0001d830       ?addPoint@VoronoiSimplex@reactphysics3d@@QEAAXAEBUVector3@2@00@Z 000000014001e830 f   VoronoiSimplex.obj
 0001:0001d8a0       ?backupClosestPointInSimplex@VoronoiSimplex@reactphysics3d@@QEAAXAEAUVector3@2@@Z 000000014001e8a0 f   VoronoiSimplex.obj
 0001:0001d8c0       ?computeClosestPointOnTetrahedron@VoronoiSimplex@reactphysics3d@@AEBA_NAEBUVector3@2@000AEAHAEAUVector2@2@2AEA_N@Z 000000014001e8c0 f   VoronoiSimplex.obj
 0001:0001ddf0       ?computeClosestPointOnTriangle@VoronoiSimplex@reactphysics3d@@AEBAXAEBUVector3@2@00AEAHAEAU32@@Z 000000014001edf0 f   VoronoiSimplex.obj
 0001:0001e220       ?computeClosestPointsOfAandB@VoronoiSimplex@reactphysics3d@@QEBAXAEAUVector3@2@0@Z 000000014001f220 f   VoronoiSimplex.obj
 0001:0001e250       ?getMaxLengthSquareOfAPoint@VoronoiSimplex@reactphysics3d@@QEBAMXZ 000000014001f250 f   VoronoiSimplex.obj
 0001:0001e380       ?isAffinelyDependent@VoronoiSimplex@reactphysics3d@@QEBA_NXZ 000000014001f380 f   VoronoiSimplex.obj
 0001:0001e590       ?isPointInSimplex@VoronoiSimplex@reactphysics3d@@QEBA_NAEBUVector3@2@@Z 000000014001f590 f   VoronoiSimplex.obj
 0001:0001e620       ?recomputeClosestPoint@VoronoiSimplex@reactphysics3d@@AEAA_NXZ 000000014001f620 f   VoronoiSimplex.obj
 0001:0001ed80       ?reduceSimplex@VoronoiSimplex@reactphysics3d@@QEAAXH@Z 000000014001fd80 f   VoronoiSimplex.obj
 0001:0001ef60       ?testOriginOutsideOfPlane@VoronoiSimplex@reactphysics3d@@AEBAHAEBUVector3@2@000@Z 000000014001ff60 f   VoronoiSimplex.obj
 0001:0001f0b0       ??0NarrowPhaseInfoBatch@reactphysics3d@@QEAA@AEAVOverlappingPairs@1@AEAVMemoryAllocator@1@@Z 00000001400200b0 f   NarrowPhaseInfoBatch.obj
 0001:0001f0d0       ??1NarrowPhaseInfoBatch@reactphysics3d@@QEAA@XZ 00000001400200d0 f   NarrowPhaseInfoBatch.obj
 0001:0001f1c0       ?clear@NarrowPhaseInfoBatch@reactphysics3d@@QEAAXXZ 00000001400201c0 f   NarrowPhaseInfoBatch.obj
 0001:0001f2b0       ?reserve@?$Array@UNarrowPhaseInfo@NarrowPhaseInfoBatch@reactphysics3d@@@reactphysics3d@@QEAAX_K@Z 00000001400202b0 f i NarrowPhaseInfoBatch.obj
 0001:0001f3c0       ?reserveMemory@NarrowPhaseInfoBatch@reactphysics3d@@QEAAXXZ 00000001400203c0 f   NarrowPhaseInfoBatch.obj
 0001:0001f3d0       ??0NarrowPhaseInput@reactphysics3d@@QEAA@AEAVMemoryAllocator@1@AEAVOverlappingPairs@1@@Z 00000001400203d0 f   NarrowPhaseInput.obj
 0001:0001f460       ?clear@NarrowPhaseInput@reactphysics3d@@QEAAXXZ 0000000140020460 f   NarrowPhaseInput.obj
 0001:0001f4b0       ?reserveMemory@NarrowPhaseInput@reactphysics3d@@QEAAXXZ 00000001400204b0 f   NarrowPhaseInput.obj
 0001:0001f500       ??0SATAlgorithm@reactphysics3d@@QEAA@_NAEAVMemoryAllocator@1@@Z 0000000140020500 f   SATAlgorithm.obj
 0001:0001f510       ?addRange@?$Array@UVector3@reactphysics3d@@@reactphysics3d@@QEAAXAEBV12@_K@Z 0000000140020510 f i SATAlgorithm.obj
 0001:0001f5a0       ?computeCapsulePolyhedronFaceContactPoints@SATAlgorithm@reactphysics3d@@QEBA_NIMPEBVConvexPolyhedronShape@2@MAEBVTransform@2@AEAUVector3@2@AEBU52@33AEAUNarrowPhaseInfoBatch@2@I_N@Z 00000001400205a0 f   SATAlgorithm.obj
 0001:00020ab0       ?computeEdgeVsCapsuleInnerSegmentPenetrationDepth@SATAlgorithm@reactphysics3d@@AEBAMPEBVConvexPolyhedronShape@2@PEBVCapsuleShape@2@AEBUVector3@2@22AEBVTransform@2@AEAU52@@Z 0000000140021ab0 f   SATAlgorithm.obj
 0001:00021030       ?computePolyhedronFaceVsCapsulePenetrationDepth@SATAlgorithm@reactphysics3d@@AEBAMIPEBVConvexPolyhedronShape@2@PEBVCapsuleShape@2@AEBVTransform@2@AEAUVector3@2@@Z 0000000140022030 f   SATAlgorithm.obj
 0001:00021400       ?computePolyhedronVsPolyhedronFaceContactPoints@SATAlgorithm@reactphysics3d@@AEBA_N_NPEBVConvexPolyhedronShape@2@1AEBVTransform@2@2IAEAUNarrowPhaseInfoBatch@2@I@Z 0000000140022400 f   SATAlgorithm.obj
 0001:00022b40       ?testCollisionCapsuleVsConvexPolyhedron@SATAlgorithm@reactphysics3d@@QEBA_NAEAUNarrowPhaseInfoBatch@2@I@Z 0000000140023b40 f   SATAlgorithm.obj
 0001:000244a0       ?testCollisionConvexPolyhedronVsConvexPolyhedron@SATAlgorithm@reactphysics3d@@QEBA_NAEAUNarrowPhaseInfoBatch@2@II@Z 00000001400254a0 f   SATAlgorithm.obj
 0001:000276c0       ?testCollisionSphereVsConvexPolyhedron@SATAlgorithm@reactphysics3d@@QEBA_NAEAUNarrowPhaseInfoBatch@2@II@Z 00000001400286c0 f   SATAlgorithm.obj
 0001:000283c0       ?testEdgesBuildMinkowskiFace@SATAlgorithm@reactphysics3d@@AEBA_NPEBVConvexPolyhedronShape@2@AEBUEdge@HalfEdgeStructure@2@01AEBVTransform@2@@Z 00000001400293c0 f   SATAlgorithm.obj
 0001:00028a70       ?testSingleFaceDirectionPolyhedronVsPolyhedron@SATAlgorithm@reactphysics3d@@AEBAMPEBVConvexPolyhedronShape@2@0AEBVTransform@2@I@Z 0000000140029a70 f   SATAlgorithm.obj
 0001:00028e50       ?testCollision@SphereVsCapsuleAlgorithm@reactphysics3d@@QEAA_NAEAUNarrowPhaseInfoBatch@2@IIAEAVMemoryAllocator@2@@Z 0000000140029e50 f   SphereVsCapsuleAlgorithm.obj
 0001:00029ff0       ?testCollision@SphereVsConvexPolyhedronAlgorithm@reactphysics3d@@QEAA_NAEAUNarrowPhaseInfoBatch@2@II_NAEAVMemoryAllocator@2@@Z 000000014002aff0 f   SphereVsConvexPolyhedronAlgorithm.obj
 0001:0002a260       ?testCollision@SphereVsSphereAlgorithm@reactphysics3d@@QEAA_NAEAUNarrowPhaseInfoBatch@2@IIAEAVMemoryAllocator@2@@Z 000000014002b260 f   SphereVsSphereAlgorithm.obj
 0001:0002acc0       ??0CallbackData@OverlapCallback@reactphysics3d@@AEAA@AEAV?$Array@UContactPair@reactphysics3d@@@2@0_NAEAVPhysicsWorld@2@@Z 000000014002bcc0 f   OverlapCallback.obj
 0001:0002ae20       ??0AABB@reactphysics3d@@QEAA@AEBUVector3@1@0@Z 000000014002be20 f   AABB.obj
 0001:0002ae50       ??0BoxShape@reactphysics3d@@IEAA@AEBUVector3@1@AEAVMemoryAllocator@1@AEAVPhysicsCommon@1@@Z 000000014002be50 f   BoxShape.obj
 0001:0002aeb0       ??_EBoxShape@reactphysics3d@@MEAAPEAXI@Z 000000014002beb0 f i BoxShape.obj
 0001:0002aeb0       ??_GBoxShape@reactphysics3d@@MEAAPEAXI@Z 000000014002beb0 f i BoxShape.obj
 0001:0002af20       ?getCentroid@BoxShape@reactphysics3d@@UEBA?AUVector3@2@XZ 000000014002bf20 f i BoxShape.obj
 0001:0002af20       ?getLocalInertiaTensor@TriangleShape@reactphysics3d@@UEBA?AUVector3@2@M@Z 000000014002bf20 f i TriangleShape.obj
 0001:0002af20       ?getLocalSupportPointWithoutMargin@SphereShape@reactphysics3d@@MEBA?AUVector3@2@AEBU32@@Z 000000014002bf20 f i SphereShape.obj
 0001:0002af30       ?getFace@BoxShape@reactphysics3d@@UEBAAEBUFace@HalfEdgeStructure@2@I@Z 000000014002bf30 f   BoxShape.obj
 0001:0002af50       ?getFaceNormal@BoxShape@reactphysics3d@@UEBA?AUVector3@2@I@Z 000000014002bf50 f i BoxShape.obj
 0001:0002b000       ?getHalfEdge@BoxShape@reactphysics3d@@UEBAAEBUEdge@HalfEdgeStructure@2@I@Z 000000014002c000 f   BoxShape.obj
 0001:0002b020       ?getLocalBounds@BoxShape@reactphysics3d@@UEBA?AVAABB@2@XZ 000000014002c020 f   BoxShape.obj
 0001:0002b080       ?getLocalInertiaTensor@BoxShape@reactphysics3d@@UEBA?AUVector3@2@M@Z 000000014002c080 f   BoxShape.obj
 0001:0002b0d0       ?getLocalSupportPointWithoutMargin@BoxShape@reactphysics3d@@MEBA?AUVector3@2@AEBU32@@Z 000000014002c0d0 f i BoxShape.obj
 0001:0002b120       ?getNbFaces@BoxShape@reactphysics3d@@UEBAIXZ 000000014002c120 f i BoxShape.obj
 0001:0002b120       ?getNbHalfEdges@TriangleShape@reactphysics3d@@UEBAIXZ 000000014002c120 f i TriangleShape.obj
 0001:0002b130       ?getNbHalfEdges@BoxShape@reactphysics3d@@UEBAIXZ 000000014002c130 f i BoxShape.obj
 0001:0002b140       ?getNbVertices@BoxShape@reactphysics3d@@UEBAIXZ 000000014002c140 f i BoxShape.obj
 0001:0002b150       ?getSizeInBytes@BoxShape@reactphysics3d@@MEBA_KXZ 000000014002c150 f i BoxShape.obj
 0001:0002b160       ?getVertex@BoxShape@reactphysics3d@@UEBAAEBUVertex@HalfEdgeStructure@2@I@Z 000000014002c160 f   BoxShape.obj
 0001:0002b180       ?getVertexPosition@BoxShape@reactphysics3d@@UEBA?AUVector3@2@I@Z 000000014002c180 f i BoxShape.obj
 0001:0002b2d0       ?getVolume@BoxShape@reactphysics3d@@UEBAMXZ 000000014002c2d0 f i BoxShape.obj
 0001:0002b2f0       ?do_always_noconv@?$codecvt@DDU_Mbstatet@@@std@@MEBA_NXZ 000000014002c2f0 f i DefaultLogger.obj
 0001:0002b2f0       ?isConvex@ConvexShape@reactphysics3d@@UEBA_NXZ 000000014002c2f0 f i BoxShape.obj
 0001:0002b2f0       ?isPolyhedron@ConcaveShape@reactphysics3d@@UEBA_NXZ 000000014002c2f0 f i ConcaveMeshShape.obj
 0001:0002b2f0       ?isPolyhedron@ConvexPolyhedronShape@reactphysics3d@@UEBA_NXZ 000000014002c2f0 f i BoxShape.obj
 0001:0002b2f0       __acrt_uninitialize_command_line 000000014002c2f0 f i libucrt:argv_data.obj
 0001:0002b2f0       _should_initialize_environment 000000014002c2f0 f i LIBCMT:env_mode.obj
 0001:0002b300       ?raycast@BoxShape@reactphysics3d@@MEBA_NAEBURay@2@AEAURaycastInfo@2@PEAVCollider@2@AEAVMemoryAllocator@2@@Z 000000014002c300 f   BoxShape.obj
 0001:0002b5f0       ?testPointInside@BoxShape@reactphysics3d@@MEBA_NAEBUVector3@2@PEAVCollider@2@@Z 000000014002c5f0 f i BoxShape.obj
 0001:0002b650       ?to_string@BoxShape@reactphysics3d@@UEBA?AV?$basic_string@DU?$char_traits@D@std@@V?$allocator@D@2@@std@@XZ 000000014002c650 f i BoxShape.obj
 0001:0002be40       ??0CapsuleShape@reactphysics3d@@IEAA@MMAEAVMemoryAllocator@1@@Z 000000014002ce40 f   CapsuleShape.obj
 0001:0002be90       ??_ECapsuleShape@reactphysics3d@@MEAAPEAXI@Z 000000014002ce90 f i CapsuleShape.obj
 0001:0002be90       ??_EConcaveShape@reactphysics3d@@UEAAPEAXI@Z 000000014002ce90 f i ConcaveShape.obj
 0001:0002be90       ??_GCapsuleShape@reactphysics3d@@MEAAPEAXI@Z 000000014002ce90 f i CapsuleShape.obj
 0001:0002be90       ??_GConcaveShape@reactphysics3d@@UEAAPEAXI@Z 000000014002ce90 f i ConcaveShape.obj
 0001:0002bf00       ?getLocalBounds@CapsuleShape@reactphysics3d@@UEBA?AVAABB@2@XZ 000000014002cf00 f   CapsuleShape.obj
 0001:0002bf70       ?getLocalInertiaTensor@CapsuleShape@reactphysics3d@@UEBA?AUVector3@2@M@Z 000000014002cf70 f   CapsuleShape.obj
 0001:0002c080       ?getLocalSupportPointWithoutMargin@CapsuleShape@reactphysics3d@@MEBA?AUVector3@2@AEBU32@@Z 000000014002d080 f i CapsuleShape.obj
 0001:0002c0c0       ?getSizeInBytes@CapsuleShape@reactphysics3d@@MEBA_KXZ 000000014002d0c0 f i CapsuleShape.obj
 0001:0002c0d0       ?getVolume@CapsuleShape@reactphysics3d@@UEBAMXZ 000000014002d0d0 f i CapsuleShape.obj
 0001:0002c100       ?isConvex@ConcaveShape@reactphysics3d@@UEBA_NXZ 000000014002d100 f i ConcaveMeshShape.obj
 0001:0002c100       ?isPolyhedron@CapsuleShape@reactphysics3d@@UEBA_NXZ 000000014002d100 f i CapsuleShape.obj
 0001:0002c100       ?isPolyhedron@SphereShape@reactphysics3d@@UEBA_NXZ 000000014002d100 f i SphereShape.obj
 0001:0002c100       ?testPointInside@ConcaveShape@reactphysics3d@@MEBA_NAEBUVector3@2@PEAVCollider@2@@Z 000000014002d100 f i ConcaveMeshShape.obj
 0001:0002c100       ?testPointInside@TriangleShape@reactphysics3d@@MEBA_NAEBUVector3@2@PEAVCollider@2@@Z 000000014002d100 f i TriangleShape.obj
 0001:0002c110       ?raycast@CapsuleShape@reactphysics3d@@MEBA_NAEBURay@2@AEAURaycastInfo@2@PEAVCollider@2@AEAVMemoryAllocator@2@@Z 000000014002d110 f   CapsuleShape.obj
 0001:0002c590       ?raycastWithSphereEndCap@CapsuleShape@reactphysics3d@@IEBA_NAEBUVector3@2@00MAEAU32@AEAM@Z 000000014002d590 f   CapsuleShape.obj
 0001:0002c720       ?testPointInside@CapsuleShape@reactphysics3d@@MEBA_NAEBUVector3@2@PEAVCollider@2@@Z 000000014002d720 f   CapsuleShape.obj
 0001:0002c7b0       ?to_string@CapsuleShape@reactphysics3d@@UEBA?AV?$basic_string@DU?$char_traits@D@std@@V?$allocator@D@2@@std@@XZ 000000014002d7b0 f i CapsuleShape.obj
 0001:0002cc30       ??0CollisionShape@reactphysics3d@@QEAA@W4CollisionShapeName@1@W4CollisionShapeType@1@AEAVMemoryAllocator@1@@Z 000000014002dc30 f   CollisionShape.obj
 0001:0002cc60       ??_ECollisionShape@reactphysics3d@@UEAAPEAXI@Z 000000014002dc60 f i CollisionShape.obj
 0001:0002cc60       ??_GCollisionShape@reactphysics3d@@UEAAPEAXI@Z 000000014002dc60 f i CollisionShape.obj
 0001:0002ccd0       ?computeTransformedAABB@CollisionShape@reactphysics3d@@UEBA?AVAABB@2@AEBVTransform@2@@Z 000000014002dcd0 f   CollisionShape.obj
 0001:0002ce80       ?notifyColliderAboutChangedSize@CollisionShape@reactphysics3d@@IEAAXXZ 000000014002de80 f   CollisionShape.obj
 0001:0002ced0       ??$_Insert_string@DU?$char_traits@D@std@@_K@std@@YAAEAV?$basic_ostream@DU?$char_traits@D@std@@@0@AEAV10@QEBD_K@Z 000000014002ded0 f i ConcaveMeshShape.obj
 0001:0002d190       ??0ConcaveMeshShape@reactphysics3d@@IEAA@PEAVTriangleMesh@1@AEAVMemoryAllocator@1@AEAVHalfEdgeStructure@1@AEBUVector3@1@@Z 000000014002e190 f   ConcaveMeshShape.obj
 0001:0002d220       ??_EConcaveMeshRaycastCallback@reactphysics3d@@UEAAPEAXI@Z 000000014002e220 f i ConcaveMeshShape.obj
 0001:0002d220       ??_GConcaveMeshRaycastCallback@reactphysics3d@@UEAAPEAXI@Z 000000014002e220 f i ConcaveMeshShape.obj
 0001:0002d290       ??_EConcaveMeshShape@reactphysics3d@@MEAAPEAXI@Z 000000014002e290 f i ConcaveMeshShape.obj
 0001:0002d290       ??_GConcaveMeshShape@reactphysics3d@@MEAAPEAXI@Z 000000014002e290 f i ConcaveMeshShape.obj
 0001:0002d330       ?computeOverlappingTriangles@ConcaveMeshShape@reactphysics3d@@MEBAXAEBVAABB@2@AEAV?$Array@UVector3@reactphysics3d@@@2@1AEAV?$Array@I@2@AEAVMemoryAllocator@2@@Z 000000014002e330 f   ConcaveMeshShape.obj
 0001:0002d6b0       ?computeScaledVerticesNormals@ConcaveMeshShape@reactphysics3d@@IEAAXXZ 000000014002e6b0 f   ConcaveMeshShape.obj
 0001:0002d7f0       ?getLocalBounds@ConcaveMeshShape@reactphysics3d@@UEBA?AVAABB@2@XZ 000000014002e7f0 f   ConcaveMeshShape.obj
 0001:0002d880       ?getLocalInertiaTensor@ConcaveShape@reactphysics3d@@UEBA?AUVector3@2@M@Z 000000014002e880 f i ConcaveMeshShape.obj
 0001:0002d8a0       ?getNbTriangles@ConcaveMeshShape@reactphysics3d@@QEBAIXZ 000000014002e8a0 f   ConcaveMeshShape.obj
 0001:0002d8c0       ?getNbVertices@ConcaveMeshShape@reactphysics3d@@QEBAIXZ 000000014002e8c0 f   ConcaveMeshShape.obj
 0001:0002d8d0       ?getSizeInBytes@ConcaveMeshShape@reactphysics3d@@MEBA_KXZ 000000014002e8d0 f i ConcaveMeshShape.obj
 0001:0002d8e0       ?getTriangleVertices@ConcaveMeshShape@reactphysics3d@@QEBAXIAEAUVector3@2@00@Z 000000014002e8e0 f   ConcaveMeshShape.obj
 0001:0002da00       ?getVertex@ConcaveMeshShape@reactphysics3d@@QEBA?BUVector3@2@I@Z 000000014002ea00 f   ConcaveMeshShape.obj
 0001:0002da50       ?getVertexNormal@ConcaveMeshShape@reactphysics3d@@QEBAAEBUVector3@2@I@Z 000000014002ea50 f   ConcaveMeshShape.obj
 0001:0002da60       ?raycast@ConcaveMeshShape@reactphysics3d@@MEBA_NAEBURay@2@AEAURaycastInfo@2@PEAVCollider@2@AEAVMemoryAllocator@2@@Z 000000014002ea60 f   ConcaveMeshShape.obj
 0001:0002db80       ?raycastBroadPhaseShape@ConcaveMeshRaycastCallback@reactphysics3d@@UEAAMHAEBURay@2@@Z 000000014002eb80 f   ConcaveMeshShape.obj
 0001:0002dbe0       ?raycastTriangles@ConcaveMeshRaycastCallback@reactphysics3d@@QEAAXXZ 000000014002ebe0 f   ConcaveMeshShape.obj
 0001:0002de90       ?setScale@ConcaveMeshShape@reactphysics3d@@UEAAXAEBUVector3@2@@Z 000000014002ee90 f   ConcaveMeshShape.obj
 0001:0002dec0       ?setScale@ConcaveShape@reactphysics3d@@UEAAXAEBUVector3@2@@Z 000000014002eec0 f i ConcaveMeshShape.obj
 0001:0002dee0       ?to_string@ConcaveMeshShape@reactphysics3d@@UEBA?AV?$basic_string@DU?$char_traits@D@std@@V?$allocator@D@2@@std@@XZ 000000014002eee0 f   ConcaveMeshShape.obj
 0001:0002eeb0       ??0ConcaveShape@reactphysics3d@@QEAA@W4CollisionShapeName@1@AEAVMemoryAllocator@1@AEBUVector3@1@@Z 000000014002feb0 f   ConcaveShape.obj
 0001:0002ef00       ?getVolume@ConcaveShape@reactphysics3d@@UEBAMXZ 000000014002ff00 f   ConcaveShape.obj
 0001:0002ef40       ??1?$Array@UFace@HalfEdgeStructure@reactphysics3d@@@reactphysics3d@@QEAA@XZ 000000014002ff40 f i ConvexMeshShape.obj
 0001:0002f010       ??0ConvexPolyhedronShape@reactphysics3d@@QEAA@W4CollisionShapeName@1@AEAVMemoryAllocator@1@@Z 0000000140030010 f   ConvexPolyhedronShape.obj
 0001:0002f050       ??_EConvexPolyhedronShape@reactphysics3d@@UEAAPEAXI@Z 0000000140030050 f i ConvexPolyhedronShape.obj
 0001:0002f050       ??_EConvexShape@reactphysics3d@@UEAAPEAXI@Z 0000000140030050 f i ConvexShape.obj
 0001:0002f050       ??_ESphereShape@reactphysics3d@@MEAAPEAXI@Z 0000000140030050 f i SphereShape.obj
 0001:0002f050       ??_GConvexPolyhedronShape@reactphysics3d@@UEAAPEAXI@Z 0000000140030050 f i ConvexPolyhedronShape.obj
 0001:0002f050       ??_GConvexShape@reactphysics3d@@UEAAPEAXI@Z 0000000140030050 f i ConvexShape.obj
 0001:0002f050       ??_GSphereShape@reactphysics3d@@MEAAPEAXI@Z 0000000140030050 f i SphereShape.obj
 0001:0002f0c0       ??0ConvexShape@reactphysics3d@@QEAA@W4CollisionShapeName@1@W4CollisionShapeType@1@AEAVMemoryAllocator@1@M@Z 00000001400300c0 f   ConvexShape.obj
 0001:0002f0f0       ?getLocalSupportPointWithMargin@ConvexShape@reactphysics3d@@IEBA?AUVector3@2@AEBU32@@Z 00000001400300f0 f   ConvexShape.obj
 0001:0002f1c0       ??0SphereShape@reactphysics3d@@IEAA@MAEAVMemoryAllocator@1@@Z 00000001400301c0 f   SphereShape.obj
 0001:0002f200       ?computeTransformedAABB@SphereShape@reactphysics3d@@UEBA?AVAABB@2@AEBVTransform@2@@Z 0000000140030200 f   SphereShape.obj
 0001:0002f280       ?getLocalBounds@SphereShape@reactphysics3d@@UEBA?AVAABB@2@XZ 0000000140030280 f i SphereShape.obj
 0001:0002f2d0       ?getLocalInertiaTensor@SphereShape@reactphysics3d@@UEBA?AUVector3@2@M@Z 00000001400302d0 f i SphereShape.obj
 0001:0002f300       ?getSizeInBytes@SphereShape@reactphysics3d@@MEBA_KXZ 0000000140030300 f i SphereShape.obj
 0001:0002f310       ?getVolume@SphereShape@reactphysics3d@@UEBAMXZ 0000000140030310 f i SphereShape.obj
 0001:0002f330       ?raycast@SphereShape@reactphysics3d@@MEBA_NAEBURay@2@AEAURaycastInfo@2@PEAVCollider@2@AEAVMemoryAllocator@2@@Z 0000000140030330 f   SphereShape.obj
 0001:0002f4d0       ?testPointInside@SphereShape@reactphysics3d@@MEBA_NAEBUVector3@2@PEAVCollider@2@@Z 00000001400304d0 f i SphereShape.obj
 0001:0002f510       ?to_string@SphereShape@reactphysics3d@@UEBA?AV?$basic_string@DU?$char_traits@D@std@@V?$allocator@D@2@@std@@XZ 0000000140030510 f i SphereShape.obj
 0001:0002f7c0       ??0TriangleShape@reactphysics3d@@IEAA@PEBUVector3@1@0IAEAVHalfEdgeStructure@1@AEAVMemoryAllocator@1@@Z 00000001400307c0 f   TriangleShape.obj
 0001:0002f9d0       ??_ETriangleShape@reactphysics3d@@MEAAPEAXI@Z 00000001400309d0 f i TriangleShape.obj
 0001:0002f9d0       ??_GTriangleShape@reactphysics3d@@MEAAPEAXI@Z 00000001400309d0 f i TriangleShape.obj
 0001:0002fa40       ?computeSmoothMeshContact@TriangleShape@reactphysics3d@@IEBAXUVector3@2@AEBVTransform@2@1M_NAEAU32@3@Z 0000000140030a40 f   TriangleShape.obj
 0001:00030320       ?computeTransformedAABB@TriangleShape@reactphysics3d@@UEBA?AVAABB@2@AEBVTransform@2@@Z 0000000140031320 f   TriangleShape.obj
 0001:00030840       ?getCentroid@TriangleShape@reactphysics3d@@UEBA?AUVector3@2@XZ 0000000140031840 f i TriangleShape.obj
 0001:000308a0       ?getFace@TriangleShape@reactphysics3d@@UEBAAEBUFace@HalfEdgeStructure@2@I@Z 00000001400318a0 f i TriangleShape.obj
 0001:000308c0       ?getFaceNormal@TriangleShape@reactphysics3d@@UEBA?AUVector3@2@I@Z 00000001400318c0 f i TriangleShape.obj
 0001:00030930       ?getHalfEdge@TriangleShape@reactphysics3d@@UEBAAEBUEdge@HalfEdgeStructure@2@I@Z 0000000140031930 f i TriangleShape.obj
 0001:00030950       ?getLocalBounds@TriangleShape@reactphysics3d@@UEBA?AVAABB@2@XZ 0000000140031950 f i TriangleShape.obj
 0001:00030a50       ?getLocalSupportPointWithoutMargin@TriangleShape@reactphysics3d@@MEBA?AUVector3@2@AEBU32@@Z 0000000140031a50 f i TriangleShape.obj
 0001:00030b00       ?getNbFaces@TriangleShape@reactphysics3d@@UEBAIXZ 0000000140031b00 f i TriangleShape.obj
 0001:00030b10       ?getNbVertices@TriangleShape@reactphysics3d@@UEBAIXZ 0000000140031b10 f i TriangleShape.obj
 0001:00030b20       ?getSizeInBytes@TriangleShape@reactphysics3d@@MEBA_KXZ 0000000140031b20 f i TriangleShape.obj
 0001:00030b30       ?getVertex@TriangleShape@reactphysics3d@@UEBAAEBUVertex@HalfEdgeStructure@2@I@Z 0000000140031b30 f i TriangleShape.obj
 0001:00030b50       ?getVertexPosition@TriangleShape@reactphysics3d@@UEBA?AUVector3@2@I@Z 0000000140031b50 f i TriangleShape.obj
 0001:00030b70       ?getVolume@TriangleShape@reactphysics3d@@UEBAMXZ 0000000140031b70 f i TriangleShape.obj
 0001:00030b80       ?raycast@TriangleShape@reactphysics3d@@MEBA_NAEBURay@2@AEAURaycastInfo@2@PEAVCollider@2@AEAVMemoryAllocator@2@@Z 0000000140031b80 f   TriangleShape.obj
 0001:000310e0       ?to_string@TriangleShape@reactphysics3d@@UEBA?AV?$basic_string@DU?$char_traits@D@std@@V?$allocator@D@2@@std@@XZ 00000001400320e0 f i TriangleShape.obj
 0001:00032180       ??0Message@reactphysics3d@@QEAA@V?$basic_string@DU?$char_traits@D@std@@V?$allocator@D@2@@std@@W4Type@01@@Z 0000000140033180 f i TriangleMesh.obj
 0001:00032210       ??0TriangleMesh@reactphysics3d@@IEAA@AEAVMemoryAllocator@1@@Z 0000000140033210 f   TriangleMesh.obj
 0001:00032280       ?computeVerticesNormals@TriangleMesh@reactphysics3d@@IEAAXXZ 0000000140033280 f   TriangleMesh.obj
 0001:000329a0       ?copyData@TriangleMesh@reactphysics3d@@IEAA_NAEBVTriangleVertexArray@2@AEAV?$vector@UMessage@reactphysics3d@@V?$allocator@UMessage@reactphysics3d@@@std@@@std@@@Z 00000001400339a0 f   TriangleMesh.obj
 0001:000341a0       ?getBounds@TriangleMesh@reactphysics3d@@QEBAAEBVAABB@2@XZ 00000001400351a0 f   TriangleMesh.obj
 0001:000341c0       ?getDynamicAABBTreeNodeDataInt@TriangleMesh@reactphysics3d@@IEBAHH@Z 00000001400351c0 f   TriangleMesh.obj
 0001:000341e0       ?init@TriangleMesh@reactphysics3d@@IEAA_NAEBVTriangleVertexArray@2@AEAV?$vector@UMessage@reactphysics3d@@V?$allocator@UMessage@reactphysics3d@@@std@@@std@@@Z 00000001400351e0 f   TriangleMesh.obj
 0001:00034320       ?initBVHTree@TriangleMesh@reactphysics3d@@IEAAXXZ 0000000140035320 f   TriangleMesh.obj
 0001:00034560       ?push_back@?$vector@UMessage@reactphysics3d@@V?$allocator@UMessage@reactphysics3d@@@std@@@std@@QEAAX$$QEAUMessage@reactphysics3d@@@Z 0000000140035560 f i TriangleMesh.obj
 0001:000345b0       ?raycast@TriangleMesh@reactphysics3d@@IEBAXAEBURay@2@AEAVDynamicAABBTreeRaycastCallback@2@@Z 00000001400355b0 f   TriangleMesh.obj
 0001:000345c0       ?reportAllShapesOverlappingWithAABB@TriangleMesh@reactphysics3d@@IEAAXAEBVAABB@2@AEAV?$Array@H@2@@Z 00000001400355c0 f   TriangleMesh.obj
 0001:000345d0       ?reserve@?$Array@E@reactphysics3d@@QEAAX_K@Z 00000001400355d0 f i EntityManager.obj
 0001:000345d0       ?reserve@?$Array@_N@reactphysics3d@@QEAAX_K@Z 00000001400355d0 f i TriangleMesh.obj
 0001:000346d0       ??0TriangleVertexArray@reactphysics3d@@QEAA@IPEBXI0II0IW4VertexDataType@01@W4NormalDataType@01@W4IndexDataType@01@@Z 00000001400356d0 f   TriangleVertexArray.obj
 0001:00034720       ?getTriangleVerticesIndices@TriangleVertexArray@reactphysics3d@@QEBAXIAEAI00@Z 0000000140035720 f   TriangleVertexArray.obj
 0001:00034770       ?getVertex@TriangleVertexArray@reactphysics3d@@QEBA?AUVector3@2@I@Z 0000000140035770 f   TriangleVertexArray.obj
 0001:000347d0       ?getVertexNormal@TriangleVertexArray@reactphysics3d@@QEBA?AUVector3@2@I@Z 00000001400357d0 f   TriangleVertexArray.obj
 0001:00034840       ??0BallAndSocketJointComponents@reactphysics3d@@QEAA@AEAVMemoryAllocator@1@@Z 0000000140035840 f   BallAndSocketJointComponents.obj
 0001:00034870       ??_EBallAndSocketJointComponents@reactphysics3d@@UEAAPEAXI@Z 0000000140035870 f i BallAndSocketJointComponents.obj
 0001:00034870       ??_GBallAndSocketJointComponents@reactphysics3d@@UEAAPEAXI@Z 0000000140035870 f i BallAndSocketJointComponents.obj
 0001:000348b0       ?add@?$Map@UEntity@reactphysics3d@@IU?$hash@UEntity@reactphysics3d@@@std@@U?$equal_to@UEntity@reactphysics3d@@@4@@reactphysics3d@@QEAA_NAEBV?$Pair@UEntity@reactphysics3d@@I@2@_N@Z 00000001400358b0 f i BallAndSocketJointComponents.obj
 0001:00034a30       ?allocate@BallAndSocketJointComponents@reactphysics3d@@EEAAXI@Z 0000000140035a30 f   BallAndSocketJointComponents.obj
 0001:00034f10       ?destroyComponent@BallAndSocketJointComponents@reactphysics3d@@EEAAXI@Z 0000000140035f10 f   BallAndSocketJointComponents.obj
 0001:00034f10       ?destroyComponent@FixedJointComponents@reactphysics3d@@EEAAXI@Z 0000000140035f10 f   FixedJointComponents.obj
 0001:00034f10       ?destroyComponent@HingeJointComponents@reactphysics3d@@EEAAXI@Z 0000000140035f10 f   HingeJointComponents.obj
 0001:00034f10       ?destroyComponent@SliderJointComponents@reactphysics3d@@EEAAXI@Z 0000000140035f10 f   SliderJointComponents.obj
 0001:00034f60       ?moveComponentToIndex@BallAndSocketJointComponents@reactphysics3d@@EEAAXII@Z 0000000140035f60 f   BallAndSocketJointComponents.obj
 0001:00035180       ?remove@?$Map@UEntity@reactphysics3d@@IU?$hash@UEntity@reactphysics3d@@@std@@U?$equal_to@UEntity@reactphysics3d@@@4@@reactphysics3d@@QEAA?AVIterator@12@AEBUEntity@2@@Z 0000000140036180 f i BallAndSocketJointComponents.obj
 0001:00035320       ?swapComponents@BallAndSocketJointComponents@reactphysics3d@@EEAAXII@Z 0000000140036320 f   BallAndSocketJointComponents.obj
 0001:00035710       ??0BodyComponents@reactphysics3d@@QEAA@AEAVMemoryAllocator@1@@Z 0000000140036710 f   BodyComponents.obj
 0001:00035740       ??_EBodyComponents@reactphysics3d@@UEAAPEAXI@Z 0000000140036740 f i BodyComponents.obj
 0001:00035740       ??_GBodyComponents@reactphysics3d@@UEAAPEAXI@Z 0000000140036740 f i BodyComponents.obj
 0001:00035780       ?addComponent@BodyComponents@reactphysics3d@@QEAAXUEntity@2@_NAEBUBodyComponent@12@@Z 0000000140036780 f   BodyComponents.obj
 0001:00035830       ?allocate@BodyComponents@reactphysics3d@@EEAAXI@Z 0000000140036830 f   BodyComponents.obj
 0001:00035a40       ?destroyComponent@BodyComponents@reactphysics3d@@EEAAXI@Z 0000000140036a40 f   BodyComponents.obj
 0001:00035ae0       ?moveComponentToIndex@BodyComponents@reactphysics3d@@EEAAXII@Z 0000000140036ae0 f   BodyComponents.obj
 0001:00035bb0       ?swapComponents@BodyComponents@reactphysics3d@@EEAAXII@Z 0000000140036bb0 f   BodyComponents.obj
 0001:00036020       ??0?$Array@_K@reactphysics3d@@QEAA@AEBV01@@Z 0000000140037020 f i ColliderComponents.obj
 0001:000360c0       ??0ColliderComponents@reactphysics3d@@QEAA@AEAVMemoryAllocator@1@@Z 00000001400370c0 f   ColliderComponents.obj
 0001:000360f0       ??_EColliderComponents@reactphysics3d@@UEAAPEAXI@Z 00000001400370f0 f i ColliderComponents.obj
 0001:000360f0       ??_EFixedJointComponents@reactphysics3d@@UEAAPEAXI@Z 00000001400370f0 f i FixedJointComponents.obj
 0001:000360f0       ??_GColliderComponents@reactphysics3d@@UEAAPEAXI@Z 00000001400370f0 f i ColliderComponents.obj
 0001:000360f0       ??_GFixedJointComponents@reactphysics3d@@UEAAPEAXI@Z 00000001400370f0 f i FixedJointComponents.obj
 0001:00036130       ?addComponent@ColliderComponents@reactphysics3d@@QEAAXUEntity@2@_NAEBUColliderComponent@12@@Z 0000000140037130 f   ColliderComponents.obj
 0001:000362b0       ?allocate@ColliderComponents@reactphysics3d@@EEAAXI@Z 00000001400372b0 f   ColliderComponents.obj
 0001:000366b0       ?destroyComponent@ColliderComponents@reactphysics3d@@EEAAXI@Z 00000001400376b0 f   ColliderComponents.obj
 0001:00036740       ?moveComponentToIndex@ColliderComponents@reactphysics3d@@EEAAXII@Z 0000000140037740 f   ColliderComponents.obj
 0001:000368f0       ?swapComponents@ColliderComponents@reactphysics3d@@EEAAXII@Z 00000001400378f0 f   ColliderComponents.obj
 0001:00036f40       ??0Components@reactphysics3d@@QEAA@AEAVMemoryAllocator@1@_K1@Z 0000000140037f40 f   Components.obj
 0001:00036fa0       ??1?$Map@UEntity@reactphysics3d@@IU?$hash@UEntity@reactphysics3d@@@std@@U?$equal_to@UEntity@reactphysics3d@@@4@@reactphysics3d@@QEAA@XZ 0000000140037fa0 f i Components.obj
 0001:00036fa0       ??1?$Map@W4DebugItem@DebugRenderer@reactphysics3d@@IU?$hash@W4DebugItem@DebugRenderer@reactphysics3d@@@std@@U?$equal_to@W4DebugItem@DebugRenderer@reactphysics3d@@@5@@reactphysics3d@@QEAA@XZ 0000000140037fa0 f i DebugRenderer.obj
 0001:00036fa0       ??1?$Set@PEAVProfiler@reactphysics3d@@U?$hash@PEAVProfiler@reactphysics3d@@@std@@U?$equal_to@PEAVProfiler@reactphysics3d@@@4@@reactphysics3d@@QEAA@XZ 0000000140037fa0 f i PhysicsCommon.obj
 0001:00037090       ??1Components@reactphysics3d@@UEAA@XZ 0000000140038090 f   Components.obj
 0001:000371a0       ??_EComponents@reactphysics3d@@UEAAPEAXI@Z 00000001400381a0 f i Components.obj
 0001:000371a0       ??_GComponents@reactphysics3d@@UEAAPEAXI@Z 00000001400381a0 f i Components.obj
 0001:00037200       ?init@Components@reactphysics3d@@QEAAXXZ 0000000140038200 f   Components.obj
 0001:00037210       ?prepareAddComponent@Components@reactphysics3d@@IEAAI_N@Z 0000000140038210 f   Components.obj
 0001:00037280       ?removeComponent@Components@reactphysics3d@@QEAAXUEntity@2@@Z 0000000140038280 f   Components.obj
 0001:00037330       ?setIsEntityDisabled@Components@reactphysics3d@@QEAAXUEntity@2@_N@Z 0000000140038330 f   Components.obj
 0001:000373d0       ??0FixedJointComponents@reactphysics3d@@QEAA@AEAVMemoryAllocator@1@@Z 00000001400383d0 f   FixedJointComponents.obj
 0001:00037400       ?allocate@FixedJointComponents@reactphysics3d@@EEAAXI@Z 0000000140038400 f   FixedJointComponents.obj
 0001:00037830       ?moveComponentToIndex@FixedJointComponents@reactphysics3d@@EEAAXII@Z 0000000140038830 f   FixedJointComponents.obj
 0001:00037a80       ?swapComponents@FixedJointComponents@reactphysics3d@@EEAAXII@Z 0000000140038a80 f   FixedJointComponents.obj
 0001:00037e60       ??0HingeJointComponents@reactphysics3d@@QEAA@AEAVMemoryAllocator@1@@Z 0000000140038e60 f   HingeJointComponents.obj
 0001:00037e90       ??_EHingeJointComponents@reactphysics3d@@UEAAPEAXI@Z 0000000140038e90 f i HingeJointComponents.obj
 0001:00037e90       ??_GHingeJointComponents@reactphysics3d@@UEAAPEAXI@Z 0000000140038e90 f i HingeJointComponents.obj
 0001:00037ed0       ?allocate@HingeJointComponents@reactphysics3d@@EEAAXI@Z 0000000140038ed0 f   HingeJointComponents.obj
 0001:000387d0       ?moveComponentToIndex@HingeJointComponents@reactphysics3d@@EEAAXII@Z 00000001400397d0 f   HingeJointComponents.obj
 0001:00038b20       ?swapComponents@HingeJointComponents@reactphysics3d@@EEAAXII@Z 0000000140039b20 f   HingeJointComponents.obj
 0001:00039230       ??0JointComponents@reactphysics3d@@QEAA@AEAVMemoryAllocator@1@@Z 000000014003a230 f   JointComponents.obj
 0001:00039260       ??_EJointComponents@reactphysics3d@@UEAAPEAXI@Z 000000014003a260 f i JointComponents.obj
 0001:00039260       ??_GJointComponents@reactphysics3d@@UEAAPEAXI@Z 000000014003a260 f i JointComponents.obj
 0001:000392a0       ?allocate@JointComponents@reactphysics3d@@EEAAXI@Z 000000014003a2a0 f   JointComponents.obj
 0001:00039520       ?destroyComponent@JointComponents@reactphysics3d@@EEAAXI@Z 000000014003a520 f   JointComponents.obj
 0001:00039570       ?moveComponentToIndex@JointComponents@reactphysics3d@@EEAAXII@Z 000000014003a570 f   JointComponents.obj
 0001:00039640       ?swapComponents@JointComponents@reactphysics3d@@EEAAXII@Z 000000014003a640 f   JointComponents.obj
 0001:00039770       ??0RigidBodyComponents@reactphysics3d@@QEAA@AEAVMemoryAllocator@1@@Z 000000014003a770 f   RigidBodyComponents.obj
 0001:000397a0       ??_ERigidBodyComponents@reactphysics3d@@UEAAPEAXI@Z 000000014003a7a0 f i RigidBodyComponents.obj
 0001:000397a0       ??_GRigidBodyComponents@reactphysics3d@@UEAAPEAXI@Z 000000014003a7a0 f i RigidBodyComponents.obj
 0001:000397e0       ?addComponent@RigidBodyComponents@reactphysics3d@@QEAAXUEntity@2@_NAEBURigidBodyComponent@12@@Z 000000014003a7e0 f   RigidBodyComponents.obj
 0001:00039a90       ?allocate@RigidBodyComponents@reactphysics3d@@EEAAXI@Z 000000014003aa90 f   RigidBodyComponents.obj
 0001:0003a2a0       ?destroyComponent@RigidBodyComponents@reactphysics3d@@EEAAXI@Z 000000014003b2a0 f   RigidBodyComponents.obj
 0001:0003a370       ?moveComponentToIndex@RigidBodyComponents@reactphysics3d@@EEAAXII@Z 000000014003b370 f   RigidBodyComponents.obj
 0001:0003a6c0       ?swapComponents@RigidBodyComponents@reactphysics3d@@EEAAXII@Z 000000014003b6c0 f   RigidBodyComponents.obj
 0001:0003b410       ??0SliderJointComponents@reactphysics3d@@QEAA@AEAVMemoryAllocator@1@@Z 000000014003c410 f   SliderJointComponents.obj
 0001:0003b440       ??_ESliderJointComponents@reactphysics3d@@UEAAPEAXI@Z 000000014003c440 f i SliderJointComponents.obj
 0001:0003b440       ??_GSliderJointComponents@reactphysics3d@@UEAAPEAXI@Z 000000014003c440 f i SliderJointComponents.obj
 0001:0003b480       ?allocate@SliderJointComponents@reactphysics3d@@EEAAXI@Z 000000014003c480 f   SliderJointComponents.obj
 0001:0003beb0       ?moveComponentToIndex@SliderJointComponents@reactphysics3d@@EEAAXII@Z 000000014003ceb0 f   SliderJointComponents.obj
 0001:0003c280       ?swapComponents@SliderJointComponents@reactphysics3d@@EEAAXII@Z 000000014003d280 f   SliderJointComponents.obj
 0001:0003cac0       ??0TransformComponents@reactphysics3d@@QEAA@AEAVMemoryAllocator@1@@Z 000000014003dac0 f   TransformComponents.obj
 0001:0003caf0       ??_ETransformComponents@reactphysics3d@@UEAAPEAXI@Z 000000014003daf0 f i TransformComponents.obj
 0001:0003caf0       ??_GTransformComponents@reactphysics3d@@UEAAPEAXI@Z 000000014003daf0 f i TransformComponents.obj
 0001:0003cb30       ?addComponent@TransformComponents@reactphysics3d@@QEAAXUEntity@2@_NAEBUTransformComponent@12@@Z 000000014003db30 f   TransformComponents.obj
 0001:0003cbc0       ?allocate@TransformComponents@reactphysics3d@@EEAAXI@Z 000000014003dbc0 f   TransformComponents.obj
 0001:0003ccd0       ?destroyComponent@TransformComponents@reactphysics3d@@EEAAXI@Z 000000014003dcd0 f   TransformComponents.obj
 0001:0003cd10       ?moveComponentToIndex@TransformComponents@reactphysics3d@@EEAAXII@Z 000000014003dd10 f   TransformComponents.obj
 0001:0003cda0       ?swapComponents@TransformComponents@reactphysics3d@@EEAAXII@Z 000000014003dda0 f   TransformComponents.obj
 0001:0003ce60       ??0ContactPoint@reactphysics3d@@QEAA@AEBUContactPointInfo@1@M@Z 000000014003de60 f   ContactPoint.obj
 0001:0003cec0       ?getBody1@Joint@reactphysics3d@@QEBAPEAVRigidBody@2@XZ 000000014003dec0 f   Joint.obj
 0001:0003cf40       ?getBody2@Joint@reactphysics3d@@QEBAPEAVRigidBody@2@XZ 000000014003df40 f   Joint.obj
 0001:0003cfc0       ?isCollisionEnabled@Joint@reactphysics3d@@QEBA_NXZ 000000014003dfc0 f   Joint.obj
 0001:0003d010       ??0Entity@reactphysics3d@@QEAA@II@Z 000000014003e010 f   Entity.obj
 0001:0003d030       ??0EntityManager@reactphysics3d@@QEAA@AEAVMemoryAllocator@1@@Z 000000014003e030 f   EntityManager.obj
 0001:0003d060       ?createEntity@EntityManager@reactphysics3d@@QEAA?AUEntity@2@XZ 000000014003e060 f   EntityManager.obj
 0001:0003d110       ?destroyEntity@EntityManager@reactphysics3d@@QEAAXUEntity@2@@Z 000000014003e110 f   EntityManager.obj
 0001:0003d2a0       ??0Material@reactphysics3d@@AEAA@MMM@Z 000000014003e2a0 f   Material.obj
 0001:0003d2c0       ??$emplace@AEA_KAEAHAEAHAEAUEntity@reactphysics3d@@AEAU12@AEAW4NarrowPhaseAlgorithmType@2@_N@?$Array@UConvexOverlappingPair@OverlappingPairs@reactphysics3d@@@reactphysics3d@@QEAAXAEA_KAEAH1AEAUEntity@1@2AEAW4NarrowPhaseAlgorithmType@1@$$QEA_N@Z 000000014003e2c0 f i OverlappingPairs.obj
 0001:0003d3b0       ??0ConcaveOverlappingPair@OverlappingPairs@reactphysics3d@@QEAA@AEBU012@@Z 000000014003e3b0 f i OverlappingPairs.obj
 0001:0003d540       ??0OverlappingPairs@reactphysics3d@@QEAA@AEAVMemoryManager@1@AEAVColliderComponents@1@AEAVBodyComponents@1@AEAVRigidBodyComponents@1@AEAV?$Set@V?$Pair@UEntity@reactphysics3d@@U12@@reactphysics3d@@U?$hash@V?$Pair@UEntity@reactphysics3d@@U12@@reactphysics3d@@@std@@U?$equal_to@V?$Pair@UEntity@reactphysics3d@@U12@@reactphysics3d@@@4@@1@AEAVCollisionDispatch@1@@Z 000000014003e540 f   OverlappingPairs.obj
 0001:0003d6c0       ??1?$Array@UConcaveOverlappingPair@OverlappingPairs@reactphysics3d@@@reactphysics3d@@QEAA@XZ 000000014003e6c0 f i OverlappingPairs.obj
 0001:0003d750       ??1?$Array@UConvexOverlappingPair@OverlappingPairs@reactphysics3d@@@reactphysics3d@@QEAA@XZ 000000014003e750 f i OverlappingPairs.obj
 0001:0003d7e0       ??1?$Map@_K_KU?$hash@_K@std@@U?$equal_to@_K@2@@reactphysics3d@@QEAA@XZ 000000014003e7e0 f i OverlappingPairs.obj
 0001:0003d8d0       ??1OverlappingPairs@reactphysics3d@@QEAA@XZ 000000014003e8d0 f   OverlappingPairs.obj
 0001:0003d9e0       ??4ConcaveOverlappingPair@OverlappingPairs@reactphysics3d@@QEAAAEAU012@AEBU012@@Z 000000014003e9e0 f i OverlappingPairs.obj
 0001:0003db60       ??_EConcaveOverlappingPair@OverlappingPairs@reactphysics3d@@UEAAPEAXI@Z 000000014003eb60 f i OverlappingPairs.obj
 0001:0003db60       ??_GConcaveOverlappingPair@OverlappingPairs@reactphysics3d@@UEAAPEAXI@Z 000000014003eb60 f i OverlappingPairs.obj
 0001:0003dba0       ??_EConvexOverlappingPair@OverlappingPairs@reactphysics3d@@UEAAPEAXI@Z 000000014003eba0 f i OverlappingPairs.obj
 0001:0003dba0       ??_GConvexOverlappingPair@OverlappingPairs@reactphysics3d@@UEAAPEAXI@Z 000000014003eba0 f i OverlappingPairs.obj
 0001:0003dbd0       ??_EOverlappingPair@OverlappingPairs@reactphysics3d@@UEAAPEAXI@Z 000000014003ebd0 f i OverlappingPairs.obj
 0001:0003dbd0       ??_GOverlappingPair@OverlappingPairs@reactphysics3d@@UEAAPEAXI@Z 000000014003ebd0 f i OverlappingPairs.obj
 0001:0003dc00       ?add@?$Map@_KPEAULastFrameCollisionInfo@reactphysics3d@@U?$hash@_K@std@@U?$equal_to@_K@4@@reactphysics3d@@QEAA_NAEBV?$Pair@_KPEAULastFrameCollisionInfo@reactphysics3d@@@2@_N@Z 000000014003ec00 f i CollisionDetectionSystem.obj
 0001:0003dc00       ?add@?$Map@_K_KU?$hash@_K@std@@U?$equal_to@_K@2@@reactphysics3d@@QEAA_NAEBV?$Pair@_K_K@2@_N@Z 000000014003ec00 f i OverlappingPairs.obj
 0001:0003ddf0       ?addPair@OverlappingPairs@reactphysics3d@@QEAA_KII_N@Z 000000014003edf0 f   OverlappingPairs.obj
 0001:0003e100       ?clear@?$Map@_KPEAULastFrameCollisionInfo@reactphysics3d@@U?$hash@_K@std@@U?$equal_to@_K@4@@reactphysics3d@@QEAAX_N@Z 000000014003f100 f i OverlappingPairs.obj
 0001:0003e200       ?clearObsoleteLastFrameCollisionInfos@OverlappingPairs@reactphysics3d@@QEAAXXZ 000000014003f200 f   OverlappingPairs.obj
 0001:0003e390       ?destroyLastFrameCollisionInfos@ConcaveOverlappingPair@OverlappingPairs@reactphysics3d@@QEAAXXZ 000000014003f390 f i OverlappingPairs.obj
 0001:0003e4d0       ?disableConcavePairWithIndex@OverlappingPairs@reactphysics3d@@QEAAX_K@Z 000000014003f4d0 f   OverlappingPairs.obj
 0001:0003e6c0       ?disablePair@OverlappingPairs@reactphysics3d@@QEAAX_K@Z 000000014003f6c0 f   OverlappingPairs.obj
 0001:0003e8d0       ?enableConcavePairWithIndex@OverlappingPairs@reactphysics3d@@QEAAX_K@Z 000000014003f8d0 f   OverlappingPairs.obj
 0001:0003eac0       ?enablePair@OverlappingPairs@reactphysics3d@@QEAAX_K@Z 000000014003fac0 f   OverlappingPairs.obj
 0001:0003ecd0       ?findEntry@?$Map@_K_KU?$hash@_K@std@@U?$equal_to@_K@2@@reactphysics3d@@AEBA_KAEB_K@Z 000000014003fcd0 f i OverlappingPairs.obj
 0001:0003ee30       ?remove@?$Map@_KPEAULastFrameCollisionInfo@reactphysics3d@@U?$hash@_K@std@@U?$equal_to@_K@4@@reactphysics3d@@QEAA?AVIterator@12@AEB_K@Z 000000014003fe30 f i OverlappingPairs.obj
 0001:0003ee30       ?remove@?$Map@_K_KU?$hash@_K@std@@U?$equal_to@_K@2@@reactphysics3d@@QEAA?AVIterator@12@AEB_K@Z 000000014003fe30 f i OverlappingPairs.obj
 0001:0003f040       ?removeAtAndReplaceByLast@?$Array@UConvexOverlappingPair@OverlappingPairs@reactphysics3d@@@reactphysics3d@@QEAAX_K@Z 0000000140040040 f i OverlappingPairs.obj
 0001:0003f100       ?removeConcavePairWithIndex@OverlappingPairs@reactphysics3d@@QEAAX_K_N@Z 0000000140040100 f   OverlappingPairs.obj
 0001:0003f310       ?removeConvexPairWithIndex@OverlappingPairs@reactphysics3d@@QEAAX_K_N@Z 0000000140040310 f   OverlappingPairs.obj
 0001:0003f4e0       ?removeDisabledConcavePairWithIndex@OverlappingPairs@reactphysics3d@@AEAAX_K_N@Z 00000001400404e0 f   OverlappingPairs.obj
 0001:0003f6d0       ?removeDisabledConvexPairWithIndex@OverlappingPairs@reactphysics3d@@AEAAX_K_N@Z 00000001400406d0 f   OverlappingPairs.obj
 0001:0003f8a0       ?removePair@OverlappingPairs@reactphysics3d@@QEAAX_K@Z 00000001400408a0 f   OverlappingPairs.obj
 0001:0003fa30       ?reserve@?$Array@UConcaveOverlappingPair@OverlappingPairs@reactphysics3d@@@reactphysics3d@@QEAAX_K@Z 0000000140040a30 f i OverlappingPairs.obj
 0001:0003fbb0       ?reserve@?$Array@UConvexOverlappingPair@OverlappingPairs@reactphysics3d@@@reactphysics3d@@QEAAX_K@Z 0000000140040bb0 f i OverlappingPairs.obj
 0001:0003fda0       ?reserve@?$Map@_KIU?$hash@_K@std@@U?$equal_to@_K@2@@reactphysics3d@@QEAAX_K@Z 0000000140040da0 f i CollisionDetectionSystem.obj
 0001:0003fda0       ?reserve@?$Map@_KPEAULastFrameCollisionInfo@reactphysics3d@@U?$hash@_K@std@@U?$equal_to@_K@4@@reactphysics3d@@QEAAX_K@Z 0000000140040da0 f i OverlappingPairs.obj
 0001:0003fda0       ?reserve@?$Map@_K_KU?$hash@_K@std@@U?$equal_to@_K@2@@reactphysics3d@@QEAAX_K@Z 0000000140040da0 f i OverlappingPairs.obj
 0001:00040170       ?updateCollidingInPreviousFrame@OverlappingPairs@reactphysics3d@@QEAAXXZ 0000000140041170 f   OverlappingPairs.obj
 0001:000401c0       ??0HalfEdgeStructure@reactphysics3d@@QEAA@AEAVMemoryAllocator@1@III@Z 00000001400411c0 f i PhysicsCommon.obj
 0001:00040340       ??0PhysicsCommon@reactphysics3d@@QEAA@PEAVMemoryAllocator@1@@Z 0000000140041340 f   PhysicsCommon.obj
 0001:00040690       ??1?$Array@I@reactphysics3d@@QEAA@XZ 0000000140041690 f i PhysicsCommon.obj
 0001:000406e0       ??1HalfEdgeStructure@reactphysics3d@@QEAA@XZ 00000001400416e0 f i PhysicsCommon.obj
 0001:00040760       ??1PhysicsCommon@reactphysics3d@@QEAA@XZ 0000000140041760 f   PhysicsCommon.obj
 0001:00040860       ??_GConvexMesh@reactphysics3d@@QEAAPEAXI@Z 0000000140041860 f i PhysicsCommon.obj
 0001:00040920       ??_GTriangleMesh@reactphysics3d@@QEAAPEAXI@Z 0000000140041920 f i PhysicsCommon.obj
 0001:000409f0       ?add@?$Array@UFace@HalfEdgeStructure@reactphysics3d@@@reactphysics3d@@QEAAXAEBUFace@HalfEdgeStructure@2@@Z 00000001400419f0 f i PhysicsCommon.obj
 0001:00040a50       ?add@?$Set@PEAVBoxShape@reactphysics3d@@U?$hash@PEAVBoxShape@reactphysics3d@@@std@@U?$equal_to@PEAVBoxShape@reactphysics3d@@@4@@reactphysics3d@@QEAA_NAEBQEAVBoxShape@2@@Z 0000000140041a50 f i PhysicsCommon.obj
 0001:00040a50       ?add@?$Set@PEAVCapsuleShape@reactphysics3d@@U?$hash@PEAVCapsuleShape@reactphysics3d@@@std@@U?$equal_to@PEAVCapsuleShape@reactphysics3d@@@4@@reactphysics3d@@QEAA_NAEBQEAVCapsuleShape@2@@Z 0000000140041a50 f i PhysicsCommon.obj
 0001:00040a50       ?add@?$Set@PEAVConcaveMeshShape@reactphysics3d@@U?$hash@PEAVConcaveMeshShape@reactphysics3d@@@std@@U?$equal_to@PEAVConcaveMeshShape@reactphysics3d@@@4@@reactphysics3d@@QEAA_NAEBQEAVConcaveMeshShape@2@@Z 0000000140041a50 f i PhysicsCommon.obj
 0001:00040a50       ?add@?$Set@PEAVPhysicsWorld@reactphysics3d@@U?$hash@PEAVPhysicsWorld@reactphysics3d@@@std@@U?$equal_to@PEAVPhysicsWorld@reactphysics3d@@@4@@reactphysics3d@@QEAA_NAEBQEAVPhysicsWorld@2@@Z 0000000140041a50 f i PhysicsCommon.obj
 0001:00040a50       ?add@?$Set@PEAVSphereShape@reactphysics3d@@U?$hash@PEAVSphereShape@reactphysics3d@@@std@@U?$equal_to@PEAVSphereShape@reactphysics3d@@@4@@reactphysics3d@@QEAA_NAEBQEAVSphereShape@2@@Z 0000000140041a50 f i PhysicsCommon.obj
 0001:00040a50       ?add@?$Set@PEAVTriangleMesh@reactphysics3d@@U?$hash@PEAVTriangleMesh@reactphysics3d@@@std@@U?$equal_to@PEAVTriangleMesh@reactphysics3d@@@4@@reactphysics3d@@QEAA_NAEBQEAVTriangleMesh@2@@Z 0000000140041a50 f i PhysicsCommon.obj
 0001:00040c20       ?clear@?$Set@PEAVBoxShape@reactphysics3d@@U?$hash@PEAVBoxShape@reactphysics3d@@@std@@U?$equal_to@PEAVBoxShape@reactphysics3d@@@4@@reactphysics3d@@QEAAX_N@Z 0000000140041c20 f i PhysicsCommon.obj
 0001:00040c20       ?clear@?$Set@PEAVCapsuleShape@reactphysics3d@@U?$hash@PEAVCapsuleShape@reactphysics3d@@@std@@U?$equal_to@PEAVCapsuleShape@reactphysics3d@@@4@@reactphysics3d@@QEAAX_N@Z 0000000140041c20 f i PhysicsCommon.obj
 0001:00040c20       ?clear@?$Set@PEAVConcaveMeshShape@reactphysics3d@@U?$hash@PEAVConcaveMeshShape@reactphysics3d@@@std@@U?$equal_to@PEAVConcaveMeshShape@reactphysics3d@@@4@@reactphysics3d@@QEAAX_N@Z 0000000140041c20 f i PhysicsCommon.obj
 0001:00040c20       ?clear@?$Set@PEAVConvexMesh@reactphysics3d@@U?$hash@PEAVConvexMesh@reactphysics3d@@@std@@U?$equal_to@PEAVConvexMesh@reactphysics3d@@@4@@reactphysics3d@@QEAAX_N@Z 0000000140041c20 f i PhysicsCommon.obj
 0001:00040c20       ?clear@?$Set@PEAVConvexMeshShape@reactphysics3d@@U?$hash@PEAVConvexMeshShape@reactphysics3d@@@std@@U?$equal_to@PEAVConvexMeshShape@reactphysics3d@@@4@@reactphysics3d@@QEAAX_N@Z 0000000140041c20 f i PhysicsCommon.obj
 0001:00040c20       ?clear@?$Set@PEAVDefaultLogger@reactphysics3d@@U?$hash@PEAVDefaultLogger@reactphysics3d@@@std@@U?$equal_to@PEAVDefaultLogger@reactphysics3d@@@4@@reactphysics3d@@QEAAX_N@Z 0000000140041c20 f i PhysicsCommon.obj
 0001:00040c20       ?clear@?$Set@PEAVHeightField@reactphysics3d@@U?$hash@PEAVHeightField@reactphysics3d@@@std@@U?$equal_to@PEAVHeightField@reactphysics3d@@@4@@reactphysics3d@@QEAAX_N@Z 0000000140041c20 f i PhysicsCommon.obj
 0001:00040c20       ?clear@?$Set@PEAVHeightFieldShape@reactphysics3d@@U?$hash@PEAVHeightFieldShape@reactphysics3d@@@std@@U?$equal_to@PEAVHeightFieldShape@reactphysics3d@@@4@@reactphysics3d@@QEAAX_N@Z 0000000140041c20 f i PhysicsCommon.obj
 0001:00040c20       ?clear@?$Set@PEAVPhysicsWorld@reactphysics3d@@U?$hash@PEAVPhysicsWorld@reactphysics3d@@@std@@U?$equal_to@PEAVPhysicsWorld@reactphysics3d@@@4@@reactphysics3d@@QEAAX_N@Z 0000000140041c20 f i PhysicsCommon.obj
 0001:00040c20       ?clear@?$Set@PEAVSphereShape@reactphysics3d@@U?$hash@PEAVSphereShape@reactphysics3d@@@std@@U?$equal_to@PEAVSphereShape@reactphysics3d@@@4@@reactphysics3d@@QEAAX_N@Z 0000000140041c20 f i PhysicsCommon.obj
 0001:00040c20       ?clear@?$Set@PEAVTriangleMesh@reactphysics3d@@U?$hash@PEAVTriangleMesh@reactphysics3d@@@std@@U?$equal_to@PEAVTriangleMesh@reactphysics3d@@@4@@reactphysics3d@@QEAAX_N@Z 0000000140041c20 f i PhysicsCommon.obj
 0001:00040d20       ?createBoxShape@PhysicsCommon@reactphysics3d@@QEAAPEAVBoxShape@2@AEBUVector3@2@@Z 0000000140041d20 f   PhysicsCommon.obj
 0001:00040f30       ?createCapsuleShape@PhysicsCommon@reactphysics3d@@QEAAPEAVCapsuleShape@2@MM@Z 0000000140041f30 f   PhysicsCommon.obj
 0001:000412c0       ?createConcaveMeshShape@PhysicsCommon@reactphysics3d@@QEAAPEAVConcaveMeshShape@2@PEAVTriangleMesh@2@AEBUVector3@2@@Z 00000001400422c0 f   PhysicsCommon.obj
 0001:00041340       ?createPhysicsWorld@PhysicsCommon@reactphysics3d@@QEAAPEAVPhysicsWorld@2@AEBUWorldSettings@32@@Z 0000000140042340 f   PhysicsCommon.obj
 0001:000413b0       ?createSphereShape@PhysicsCommon@reactphysics3d@@QEAAPEAVSphereShape@2@M@Z 00000001400423b0 f   PhysicsCommon.obj
 0001:000415c0       ?createTriangleMesh@PhysicsCommon@reactphysics3d@@QEAAPEAVTriangleMesh@2@AEBVTriangleVertexArray@2@AEAV?$vector@UMessage@reactphysics3d@@V?$allocator@UMessage@reactphysics3d@@@std@@@std@@@Z 00000001400425c0 f   PhysicsCommon.obj
 0001:00041670       ?deleteBoxShape@PhysicsCommon@reactphysics3d@@AEAAXPEAVBoxShape@2@@Z 0000000140042670 f   PhysicsCommon.obj
 0001:00041870       ?deleteCapsuleShape@PhysicsCommon@reactphysics3d@@AEAAXPEAVCapsuleShape@2@@Z 0000000140042870 f   PhysicsCommon.obj
 0001:00041a60       ?deleteConcaveMeshShape@PhysicsCommon@reactphysics3d@@AEAAXPEAVConcaveMeshShape@2@@Z 0000000140042a60 f   PhysicsCommon.obj
 0001:00041c60       ?deleteConvexMeshShape@PhysicsCommon@reactphysics3d@@AEAAXPEAVConvexMeshShape@2@@Z 0000000140042c60 f   PhysicsCommon.obj
 0001:00041e50       ?deleteHeightFieldShape@PhysicsCommon@reactphysics3d@@AEAAXPEAVHeightFieldShape@2@@Z 0000000140042e50 f   PhysicsCommon.obj
 0001:00042050       ?deleteSphereShape@PhysicsCommon@reactphysics3d@@AEAAXPEAVSphereShape@2@@Z 0000000140043050 f   PhysicsCommon.obj
 0001:00042240       ?destroyConcaveMeshShape@PhysicsCommon@reactphysics3d@@QEAAXPEAVConcaveMeshShape@2@@Z 0000000140043240 f   PhysicsCommon.obj
 0001:00042270       ?destroyTriangleMesh@PhysicsCommon@reactphysics3d@@QEAAXPEAVTriangleMesh@2@@Z 0000000140043270 f   PhysicsCommon.obj
 0001:000422d0       ?initBoxShapeHalfEdgeStructure@PhysicsCommon@reactphysics3d@@AEAAXXZ 00000001400432d0 f   PhysicsCommon.obj
 0001:000429c0       ?initTriangleShapeHalfEdgeStructure@PhysicsCommon@reactphysics3d@@AEAAXXZ 00000001400439c0 f   PhysicsCommon.obj
 0001:00042ca0       ?release@PhysicsCommon@reactphysics3d@@AEAAXXZ 0000000140043ca0 f   PhysicsCommon.obj
 0001:00043b00       ?remove@?$Set@PEAVConcaveMeshShape@reactphysics3d@@U?$hash@PEAVConcaveMeshShape@reactphysics3d@@@std@@U?$equal_to@PEAVConcaveMeshShape@reactphysics3d@@@4@@reactphysics3d@@QEAA?AVIterator@12@AEBQEAVConcaveMeshShape@2@@Z 0000000140044b00 f i PhysicsCommon.obj
 0001:00043b00       ?remove@?$Set@PEAVTriangleMesh@reactphysics3d@@U?$hash@PEAVTriangleMesh@reactphysics3d@@@std@@U?$equal_to@PEAVTriangleMesh@reactphysics3d@@@4@@reactphysics3d@@QEAA?AVIterator@12@AEBQEAVTriangleMesh@2@@Z 0000000140044b00 f i PhysicsCommon.obj
 0001:00043d10       ?reserve@?$Set@PEAVBoxShape@reactphysics3d@@U?$hash@PEAVBoxShape@reactphysics3d@@@std@@U?$equal_to@PEAVBoxShape@reactphysics3d@@@4@@reactphysics3d@@QEAAX_K@Z 0000000140044d10 f i PhysicsCommon.obj
 0001:00043d10       ?reserve@?$Set@PEAVCapsuleShape@reactphysics3d@@U?$hash@PEAVCapsuleShape@reactphysics3d@@@std@@U?$equal_to@PEAVCapsuleShape@reactphysics3d@@@4@@reactphysics3d@@QEAAX_K@Z 0000000140044d10 f i PhysicsCommon.obj
 0001:00043d10       ?reserve@?$Set@PEAVConcaveMeshShape@reactphysics3d@@U?$hash@PEAVConcaveMeshShape@reactphysics3d@@@std@@U?$equal_to@PEAVConcaveMeshShape@reactphysics3d@@@4@@reactphysics3d@@QEAAX_K@Z 0000000140044d10 f i PhysicsCommon.obj
 0001:00043d10       ?reserve@?$Set@PEAVPhysicsWorld@reactphysics3d@@U?$hash@PEAVPhysicsWorld@reactphysics3d@@@std@@U?$equal_to@PEAVPhysicsWorld@reactphysics3d@@@4@@reactphysics3d@@QEAAX_K@Z 0000000140044d10 f i PhysicsCommon.obj
 0001:00043d10       ?reserve@?$Set@PEAVSphereShape@reactphysics3d@@U?$hash@PEAVSphereShape@reactphysics3d@@@std@@U?$equal_to@PEAVSphereShape@reactphysics3d@@@4@@reactphysics3d@@QEAAX_K@Z 0000000140044d10 f i PhysicsCommon.obj
 0001:00043d10       ?reserve@?$Set@PEAVTriangleMesh@reactphysics3d@@U?$hash@PEAVTriangleMesh@reactphysics3d@@@std@@U?$equal_to@PEAVTriangleMesh@reactphysics3d@@@4@@reactphysics3d@@QEAAX_K@Z 0000000140044d10 f i PhysicsCommon.obj
 0001:000440c0       ??$?HDU?$char_traits@D@std@@V?$allocator@D@1@@std@@YA?AV?$basic_string@DU?$char_traits@D@std@@V?$allocator@D@2@@0@QEBDAEBV10@@Z 00000001400450c0 f i PhysicsWorld.obj
 0001:00044220       ??0PhysicsWorld@reactphysics3d@@IEAA@AEAVMemoryManager@1@AEAVPhysicsCommon@1@AEBUWorldSettings@01@PEAVProfiler@1@@Z 0000000140045220 f   PhysicsWorld.obj
 0001:00044d00       ??1CollisionDetectionSystem@reactphysics3d@@QEAA@XZ 0000000140045d00 f i PhysicsWorld.obj
 0001:000453e0       ??1EntityManager@reactphysics3d@@QEAA@XZ 00000001400463e0 f i PhysicsWorld.obj
 0001:00045470       ??1Islands@reactphysics3d@@QEAA@XZ 0000000140046470 f i PhysicsWorld.obj
 0001:00045580       ??1PhysicsWorld@reactphysics3d@@IEAA@XZ 0000000140046580 f   PhysicsWorld.obj
 0001:00045d40       ??4?$basic_string@DU?$char_traits@D@std@@V?$allocator@D@2@@std@@QEAAAEAV01@$$QEAV01@@Z 0000000140046d40 f i PhysicsWorld.obj
 0001:00045dd0       ??6?$basic_ostream@DU?$char_traits@D@std@@@std@@QEAAAEAV01@G@Z 0000000140046dd0 f i PhysicsWorld.obj
 0001:00045fc0       ??6?$basic_ostream@DU?$char_traits@D@std@@@std@@QEAAAEAV01@_N@Z 0000000140046fc0 f i PhysicsWorld.obj
 0001:000461b0       ?clear@Islands@reactphysics3d@@QEAAXXZ 00000001400471b0 f i PhysicsWorld.obj
 0001:000462f0       ?createIslands@PhysicsWorld@reactphysics3d@@IEAAXXZ 00000001400472f0 f   PhysicsWorld.obj
 0001:00046f30       ?createRigidBody@PhysicsWorld@reactphysics3d@@QEAAPEAVRigidBody@2@AEBVTransform@2@@Z 0000000140047f30 f   PhysicsWorld.obj
 0001:00047580       ?destroyJoint@PhysicsWorld@reactphysics3d@@QEAAXPEAVJoint@2@@Z 0000000140048580 f   PhysicsWorld.obj
 0001:00047b10       ?destroyRigidBody@PhysicsWorld@reactphysics3d@@QEAAXPEAVRigidBody@2@@Z 0000000140048b10 f   PhysicsWorld.obj
 0001:00047f80       ?enableDisableJoints@PhysicsWorld@reactphysics3d@@QEAAXXZ 0000000140048f80 f   PhysicsWorld.obj
 0001:00048320       ?find@?$Map@UEntity@reactphysics3d@@IU?$hash@UEntity@reactphysics3d@@@std@@U?$equal_to@UEntity@reactphysics3d@@@4@@reactphysics3d@@QEBA?AVIterator@12@AEBUEntity@2@@Z 0000000140049320 f i PhysicsWorld.obj
 0001:00048460       ?getRigidBody@PhysicsWorld@reactphysics3d@@QEBAPEBVRigidBody@2@I@Z 0000000140049460 f   PhysicsWorld.obj
 0001:00048590       ?remove@?$Set@V?$Pair@UEntity@reactphysics3d@@U12@@reactphysics3d@@U?$hash@V?$Pair@UEntity@reactphysics3d@@U12@@reactphysics3d@@@std@@U?$equal_to@V?$Pair@UEntity@reactphysics3d@@U12@@reactphysics3d@@@4@@reactphysics3d@@QEAA?AVIterator@12@AEBV?$Pair@UEntity@reactphysics3d@@U12@@2@@Z 0000000140049590 f i PhysicsWorld.obj
 0001:00048810       ?setBodyDisabled@PhysicsWorld@reactphysics3d@@IEAAXUEntity@2@_N@Z 0000000140049810 f   PhysicsWorld.obj
 0001:00048910       ?setGravity@PhysicsWorld@reactphysics3d@@QEAAXAEBUVector3@2@@Z 0000000140049910 f   PhysicsWorld.obj
 0001:000490e0       ?setJointDisabled@PhysicsWorld@reactphysics3d@@IEAAXUEntity@2@_N@Z 000000014004a0e0 f   PhysicsWorld.obj
 0001:00049210       ?to_string@WorldSettings@PhysicsWorld@reactphysics3d@@QEBA?AV?$basic_string@DU?$char_traits@D@std@@V?$allocator@D@2@@std@@XZ 000000014004a210 f i PhysicsWorld.obj
 0001:00049b60       ?update@PhysicsWorld@reactphysics3d@@QEAAXM@Z 000000014004ab60 f   PhysicsWorld.obj
 0001:00049d70       ?updateBodiesInverseWorldInertiaTensors@PhysicsWorld@reactphysics3d@@IEAAXXZ 000000014004ad70 f   PhysicsWorld.obj
 0001:0004a160       ?updateSleepingBodies@PhysicsWorld@reactphysics3d@@IEAAXM@Z 000000014004b160 f   PhysicsWorld.obj
 0001:0004a3f0       ?getInverse@Matrix2x2@reactphysics3d@@QEBA?AV12@M@Z 000000014004b3f0 f   Matrix2x2.obj
 0001:0004a450       ?getInverse@Matrix3x3@reactphysics3d@@QEBA?AV12@M@Z 000000014004b450 f   Matrix3x3.obj
 0001:0004a670       ?getMatrix@Quaternion@reactphysics3d@@QEBA?AVMatrix3x3@2@XZ 000000014004b670 f   Quaternion.obj
 0001:0004a810       ?getOpenGLMatrix@Transform@reactphysics3d@@QEBAXPEAM@Z 000000014004b810 f   Transform.obj
 0001:0004a8c0       ?getOneUnitOrthogonalVector@Vector3@reactphysics3d@@QEBA?AU12@XZ 000000014004b8c0 f   Vector3.obj
 0001:0004a9d0       ?getUnit@Vector3@reactphysics3d@@QEBA?AU12@XZ 000000014004b9d0 f   Vector3.obj
 0001:0004aa50       ??0HeapAllocator@reactphysics3d@@QEAA@AEAVMemoryAllocator@1@_K@Z 000000014004ba50 f   HeapAllocator.obj
 0001:0004ab20       ??1HeapAllocator@reactphysics3d@@UEAA@XZ 000000014004bb20 f   HeapAllocator.obj
 0001:0004ab80       ??_EHeapAllocator@reactphysics3d@@UEAAPEAXI@Z 000000014004bb80 f i HeapAllocator.obj
 0001:0004ab80       ??_GHeapAllocator@reactphysics3d@@UEAAPEAXI@Z 000000014004bb80 f i HeapAllocator.obj
 0001:0004ac00       ?allocate@HeapAllocator@reactphysics3d@@UEAAPEAX_K@Z 000000014004bc00 f   HeapAllocator.obj
 0001:0004ad50       ?release@HeapAllocator@reactphysics3d@@UEAAXPEAX_K@Z 000000014004bd50 f   HeapAllocator.obj
 0001:0004ae90       ?removeFromFreeUnits@HeapAllocator@reactphysics3d@@AEAAXPEAUMemoryUnitHeader@12@@Z 000000014004be90 f   HeapAllocator.obj
 0001:0004af00       ?reserve@HeapAllocator@reactphysics3d@@AEAAX_K@Z 000000014004bf00 f   HeapAllocator.obj
 0001:0004af70       ?alignAddress@MemoryAllocator@reactphysics3d@@SAPEAXPEAXE@Z 000000014004bf70 f   MemoryAllocator.obj
 0001:0004af90       ?alignAddress@MemoryAllocator@reactphysics3d@@SAPEAXPEAXEAEA_J@Z 000000014004bf90 f   MemoryAllocator.obj
 0001:0004afb0       ??0MemoryManager@reactphysics3d@@QEAA@PEAVMemoryAllocator@1@_K@Z 000000014004bfb0 f   MemoryManager.obj
 0001:0004b010       ?allocate@DefaultAllocator@reactphysics3d@@UEAAPEAX_K@Z 000000014004c010 f i MemoryManager.obj
 0001:0004b020       ?release@DefaultAllocator@reactphysics3d@@UEAAXPEAX_K@Z 000000014004c020 f i MemoryManager.obj
 0001:0004b030       ??0PoolAllocator@reactphysics3d@@QEAA@AEAVMemoryAllocator@1@@Z 000000014004c030 f   PoolAllocator.obj
 0001:0004b210       ??1PoolAllocator@reactphysics3d@@UEAA@XZ 000000014004c210 f   PoolAllocator.obj
 0001:0004b290       ??_EPoolAllocator@reactphysics3d@@UEAAPEAXI@Z 000000014004c290 f i PoolAllocator.obj
 0001:0004b290       ??_GPoolAllocator@reactphysics3d@@UEAAPEAXI@Z 000000014004c290 f i PoolAllocator.obj
 0001:0004b330       ?allocate@PoolAllocator@reactphysics3d@@UEAAPEAX_K@Z 000000014004c330 f   PoolAllocator.obj
 0001:0004b4f0       ?release@PoolAllocator@reactphysics3d@@UEAAXPEAX_K@Z 000000014004c4f0 f   PoolAllocator.obj
 0001:0004b5a0       ??0SingleFrameAllocator@reactphysics3d@@QEAA@AEAVMemoryAllocator@1@@Z 000000014004c5a0 f   SingleFrameAllocator.obj
 0001:0004b620       ??1SingleFrameAllocator@reactphysics3d@@UEAA@XZ 000000014004c620 f   SingleFrameAllocator.obj
 0001:0004b640       ??_ESingleFrameAllocator@reactphysics3d@@UEAAPEAXI@Z 000000014004c640 f i SingleFrameAllocator.obj
 0001:0004b640       ??_GSingleFrameAllocator@reactphysics3d@@UEAAPEAXI@Z 000000014004c640 f i SingleFrameAllocator.obj
 0001:0004b690       ?allocate@SingleFrameAllocator@reactphysics3d@@UEAAPEAX_K@Z 000000014004c690 f   SingleFrameAllocator.obj
 0001:0004b740       ?release@SingleFrameAllocator@reactphysics3d@@UEAAXPEAX_K@Z 000000014004c740 f   SingleFrameAllocator.obj
 0001:0004b7d0       ?reset@SingleFrameAllocator@reactphysics3d@@UEAAXXZ 000000014004c7d0 f   SingleFrameAllocator.obj
 0001:0004b870       ??0BroadPhaseSystem@reactphysics3d@@QEAA@AEAVCollisionDetectionSystem@1@AEAVColliderComponents@1@AEAVTransformComponents@1@AEAVRigidBodyComponents@1@@Z 000000014004c870 f   BroadPhaseSystem.obj
 0001:0004b910       ?addCollider@BroadPhaseSystem@reactphysics3d@@QEAAXPEAVCollider@2@AEBVAABB@2@@Z 000000014004c910 f   BroadPhaseSystem.obj
 0001:0004b9a0       ?addMovedCollider@BroadPhaseSystem@reactphysics3d@@QEAAXHPEAVCollider@2@@Z 000000014004c9a0 f   BroadPhaseSystem.obj
 0001:0004bb10       ?computeOverlappingPairs@BroadPhaseSystem@reactphysics3d@@QEAAXAEAVMemoryManager@2@AEAV?$Array@V?$Pair@HH@reactphysics3d@@@2@@Z 000000014004cb10 f   BroadPhaseSystem.obj
 0001:0004bf30       ?remove@?$Set@HU?$hash@H@std@@U?$equal_to@H@2@@reactphysics3d@@QEAA?AVIterator@12@AEBH@Z 000000014004cf30 f i BroadPhaseSystem.obj
 0001:0004c0d0       ?removeCollider@BroadPhaseSystem@reactphysics3d@@QEAAXPEAVCollider@2@@Z 000000014004d0d0 f   BroadPhaseSystem.obj
 0001:0004c160       ?reserve@?$Set@HU?$hash@H@std@@U?$equal_to@H@2@@reactphysics3d@@QEAAX_K@Z 000000014004d160 f i BroadPhaseSystem.obj
 0001:0004c4d0       ?testOverlappingShapes@BroadPhaseSystem@reactphysics3d@@QEBA_NHH@Z 000000014004d4d0 f   BroadPhaseSystem.obj
 0001:0004c550       ?updateCollider@BroadPhaseSystem@reactphysics3d@@QEAAXUEntity@2@@Z 000000014004d550 f   BroadPhaseSystem.obj
 0001:0004c5a0       ?updateColliders@BroadPhaseSystem@reactphysics3d@@QEAAXXZ 000000014004d5a0 f   BroadPhaseSystem.obj
 0001:0004c5c0       ?updateCollidersComponents@BroadPhaseSystem@reactphysics3d@@IEAAXII@Z 000000014004d5c0 f   BroadPhaseSystem.obj
 0001:0004ca20       ??$emplace@AEA_KAEAUEntity@reactphysics3d@@AEAU12@AEAPEAULastFrameCollisionInfo@2@AEAVMemoryAllocator@2@AEBVTransform@2@AEBV52@AEAPEAVCollisionShape@2@AEAPEAV62@AEA_N@?$Array@UNarrowPhaseInfo@NarrowPhaseInfoBatch@reactphysics3d@@@reactphysics3d@@QEAAXAEA_KAEAUEntity@1@1AEAPEAULastFrameCollisionInfo@1@AEAVMemoryAllocator@1@AEBVTransform@1@4AEAPEAVCollisionShape@1@5AEA_N@Z 000000014004da20 f i CollisionDetectionSystem.obj
 0001:0004cc60       ??0CollisionDetectionSystem@reactphysics3d@@QEAA@PEAVPhysicsWorld@1@AEAVColliderComponents@1@AEAVTransformComponents@1@AEAVBodyComponents@1@AEAVRigidBodyComponents@1@AEAVMemoryManager@1@AEAVHalfEdgeStructure@1@@Z 000000014004dc60 f   CollisionDetectionSystem.obj
 0001:0004cff0       ?add@?$Array@UContactPair@reactphysics3d@@@reactphysics3d@@QEAAXAEBUContactPair@2@@Z 000000014004dff0 f i CollisionDetectionSystem.obj
 0001:0004d0b0       ?addLastFrameInfoIfNecessary@ConcaveOverlappingPair@OverlappingPairs@reactphysics3d@@QEAAPEAULastFrameCollisionInfo@3@II@Z 000000014004e0b0 f i CollisionDetectionSystem.obj
 0001:0004d2d0       ?addLostContactPair@CollisionDetectionSystem@reactphysics3d@@AEAAXAEAUOverlappingPair@OverlappingPairs@2@@Z 000000014004e2d0 f   CollisionDetectionSystem.obj
 0001:0004d400       ?computeBroadPhase@CollisionDetectionSystem@reactphysics3d@@AEAAXXZ 000000014004e400 f   CollisionDetectionSystem.obj
 0001:0004d570       ?computeCollisionDetection@CollisionDetectionSystem@reactphysics3d@@QEAAXXZ 000000014004e570 f   CollisionDetectionSystem.obj
 0001:0004d5a0       ?computeConvexVsConcaveMiddlePhase@CollisionDetectionSystem@reactphysics3d@@AEAAXAEAUConcaveOverlappingPair@OverlappingPairs@2@AEAVMemoryAllocator@2@AEAVNarrowPhaseInput@2@_N@Z 000000014004e5a0 f   CollisionDetectionSystem.obj
 0001:0004e3e0       ?computeMapPreviousContactPairs@CollisionDetectionSystem@reactphysics3d@@AEAAXXZ 000000014004f3e0 f   CollisionDetectionSystem.obj
 0001:0004e5e0       ?computeMiddlePhase@CollisionDetectionSystem@reactphysics3d@@AEAAXAEAVNarrowPhaseInput@2@_N1@Z 000000014004f5e0 f   CollisionDetectionSystem.obj
 0001:0004ea10       ?computeNarrowPhase@CollisionDetectionSystem@reactphysics3d@@AEAAXXZ 000000014004fa10 f   CollisionDetectionSystem.obj
 0001:0004ec50       ?createContacts@CollisionDetectionSystem@reactphysics3d@@AEAAXXZ 000000014004fc50 f   CollisionDetectionSystem.obj
 0001:0004f040       ?disableOverlappingPair@CollisionDetectionSystem@reactphysics3d@@AEAAX_K@Z 0000000140050040 f   CollisionDetectionSystem.obj
 0001:0004f050       ?findEntry@?$Set@V?$Pair@UEntity@reactphysics3d@@U12@@reactphysics3d@@U?$hash@V?$Pair@UEntity@reactphysics3d@@U12@@reactphysics3d@@@std@@U?$equal_to@V?$Pair@UEntity@reactphysics3d@@U12@@reactphysics3d@@@4@@reactphysics3d@@AEBA_KAEBV?$Pair@UEntity@reactphysics3d@@U12@@2@@Z 0000000140050050 f i CollisionDetectionSystem.obj
 0001:0004f210       ?initContactsWithPreviousOnes@CollisionDetectionSystem@reactphysics3d@@AEAAXXZ 0000000140050210 f   CollisionDetectionSystem.obj
 0001:0004f660       ?notifyOverlappingPairsToTestOverlap@CollisionDetectionSystem@reactphysics3d@@QEAAXPEAVCollider@2@@Z 0000000140050660 f   CollisionDetectionSystem.obj
 0001:0004f780       ?processAllPotentialContacts@CollisionDetectionSystem@reactphysics3d@@AEAAXAEAVNarrowPhaseInput@2@_NAEAV?$Array@UContactPointInfo@reactphysics3d@@@2@AEAV?$Array@UContactManifoldInfo@reactphysics3d@@@2@PEAV?$Array@UContactPair@reactphysics3d@@@2@@Z 0000000140050780 f   CollisionDetectionSystem.obj
 0001:0004f9d0       ?processPotentialContacts@CollisionDetectionSystem@reactphysics3d@@AEAAXAEAUNarrowPhaseInfoBatch@2@_NAEAV?$Array@UContactPointInfo@reactphysics3d@@@2@AEAV?$Array@UContactManifoldInfo@reactphysics3d@@@2@AEAV?$Map@_KIU?$hash@_K@std@@U?$equal_to@_K@2@@2@PEAV?$Array@UContactPair@reactphysics3d@@@2@@Z 00000001400509d0 f   CollisionDetectionSystem.obj
 0001:000504b0       ?reduceContactPoints@CollisionDetectionSystem@reactphysics3d@@AEBAXAEAUContactManifoldInfo@2@AEBVTransform@2@AEBV?$Array@UContactPointInfo@reactphysics3d@@@2@@Z 00000001400514b0 f   CollisionDetectionSystem.obj
 0001:00051180       ?reducePotentialContactManifolds@CollisionDetectionSystem@reactphysics3d@@AEBAXPEAV?$Array@UContactPair@reactphysics3d@@@2@AEAV?$Array@UContactManifoldInfo@reactphysics3d@@@2@AEBV?$Array@UContactPointInfo@reactphysics3d@@@2@@Z 0000000140052180 f   CollisionDetectionSystem.obj
 0001:00051570       ?remove@?$Map@HUEntity@reactphysics3d@@U?$hash@H@std@@U?$equal_to@H@4@@reactphysics3d@@QEAA?AVIterator@12@AEBH@Z 0000000140052570 f i CollisionDetectionSystem.obj
 0001:00051710       ?removeCollider@CollisionDetectionSystem@reactphysics3d@@QEAAXPEAVCollider@2@@Z 0000000140052710 f   CollisionDetectionSystem.obj
 0001:000517b0       ?removeOverlappingPair@CollisionDetectionSystem@reactphysics3d@@AEAAX_K_N@Z 00000001400527b0 f   CollisionDetectionSystem.obj
 0001:00051990       ?reportContacts@CollisionDetectionSystem@reactphysics3d@@AEAAXAEAVCollisionCallback@2@PEAV?$Array@UContactPair@reactphysics3d@@@2@PEAV?$Array@VContactManifold@reactphysics3d@@@2@PEAV?$Array@VContactPoint@reactphysics3d@@@2@AEAV42@@Z 0000000140052990 f   CollisionDetectionSystem.obj
 0001:00051a60       ?reportContactsAndTriggers@CollisionDetectionSystem@reactphysics3d@@QEAAXXZ 0000000140052a60 f   CollisionDetectionSystem.obj
 0001:00051c80       ?reserve@?$Array@UContactManifoldInfo@reactphysics3d@@@reactphysics3d@@QEAAX_K@Z 0000000140052c80 f i CollisionDetectionSystem.obj
 0001:00051d90       ?reserve@?$Array@UContactPair@reactphysics3d@@@reactphysics3d@@QEAAX_K@Z 0000000140052d90 f i CollisionDetectionSystem.obj
 0001:00051ea0       ?reserve@?$Array@UContactPointInfo@reactphysics3d@@@reactphysics3d@@QEAAX_K@Z 0000000140052ea0 f i CollisionDetectionSystem.obj
 0001:00051fc0       ?reserve@?$Array@VContactManifold@reactphysics3d@@@reactphysics3d@@QEAAX_K@Z 0000000140052fc0 f i CollisionDetectionSystem.obj
 0001:000520d0       ?reserve@?$Array@VContactPoint@reactphysics3d@@@reactphysics3d@@QEAAX_K@Z 00000001400530d0 f i CollisionDetectionSystem.obj
 0001:000521f0       ?testNarrowPhaseCollision@CollisionDetectionSystem@reactphysics3d@@AEAA_NAEAVNarrowPhaseInput@2@_NAEAVMemoryAllocator@2@@Z 00000001400531f0 f   CollisionDetectionSystem.obj
 0001:00052360       ?updateOverlappingPairs@CollisionDetectionSystem@reactphysics3d@@AEAAXAEBV?$Array@V?$Pair@HH@reactphysics3d@@@2@@Z 0000000140053360 f   CollisionDetectionSystem.obj
 0001:000528a0       ??0ConstraintSolverSystem@reactphysics3d@@QEAA@AEAVPhysicsWorld@1@AEAUIslands@1@AEAVRigidBodyComponents@1@AEAVTransformComponents@1@AEAVJointComponents@1@AEAVBallAndSocketJointComponents@1@AEAVFixedJointComponents@1@AEAVHingeJointComponents@1@AEAVSliderJointComponents@1@@Z 00000001400538a0 f   ConstraintSolverSystem.obj
 0001:000529a0       ?initialize@ConstraintSolverSystem@reactphysics3d@@QEAAXM@Z 00000001400539a0 f   ConstraintSolverSystem.obj
 0001:00052a80       ?solvePositionConstraints@ConstraintSolverSystem@reactphysics3d@@QEAAXXZ 0000000140053a80 f   ConstraintSolverSystem.obj
 0001:00052ac0       ?solveVelocityConstraints@ConstraintSolverSystem@reactphysics3d@@QEAAXXZ 0000000140053ac0 f   ConstraintSolverSystem.obj
 0001:00052b00       ??0ContactSolverSystem@reactphysics3d@@QEAA@AEAVMemoryManager@1@AEAVPhysicsWorld@1@AEAUIslands@1@AEAVBodyComponents@1@AEAVRigidBodyComponents@1@AEAVColliderComponents@1@AEAM@Z 0000000140053b00 f   ContactSolverSystem.obj
 0001:00052b60       ?init@ContactSolverSystem@reactphysics3d@@QEAAXPEAV?$Array@VContactManifold@reactphysics3d@@@2@PEAV?$Array@VContactPoint@reactphysics3d@@@2@M@Z 0000000140053b60 f   ContactSolverSystem.obj
 0001:00052c40       ?initializeForIsland@ContactSolverSystem@reactphysics3d@@QEAAXI@Z 0000000140053c40 f   ContactSolverSystem.obj
 0001:00054a40       ?reset@ContactSolverSystem@reactphysics3d@@QEAAXXZ 0000000140055a40 f   ContactSolverSystem.obj
 0001:00054ab0       ?solve@ContactSolverSystem@reactphysics3d@@QEAAXXZ 0000000140055ab0 f   ContactSolverSystem.obj
 0001:00056350       ?storeImpulses@ContactSolverSystem@reactphysics3d@@QEAAXXZ 0000000140057350 f   ContactSolverSystem.obj
 0001:00056460       ?warmStart@ContactSolverSystem@reactphysics3d@@AEAAXXZ 0000000140057460 f   ContactSolverSystem.obj
 0001:000574a0       ??0DynamicsSystem@reactphysics3d@@QEAA@AEAVPhysicsWorld@1@AEAVBodyComponents@1@AEAVRigidBodyComponents@1@AEAVTransformComponents@1@AEAVColliderComponents@1@AEA_NAEAUVector3@1@@Z 00000001400584a0 f   DynamicsSystem.obj
 0001:000574e0       ?integrateRigidBodiesPositions@DynamicsSystem@reactphysics3d@@QEAAXM_N@Z 00000001400584e0 f   DynamicsSystem.obj
 0001:000578f0       ?integrateRigidBodiesVelocities@DynamicsSystem@reactphysics3d@@QEAAXM@Z 00000001400588f0 f   DynamicsSystem.obj
 0001:000582d0       ?resetBodiesForceAndTorque@DynamicsSystem@reactphysics3d@@QEAAXXZ 00000001400592d0 f   DynamicsSystem.obj
 0001:00058420       ?resetSplitVelocities@DynamicsSystem@reactphysics3d@@QEAAXXZ 0000000140059420 f   DynamicsSystem.obj
 0001:00058570       ?updateBodiesState@DynamicsSystem@reactphysics3d@@QEAAXXZ 0000000140059570 f   DynamicsSystem.obj
 0001:00058c70       ??0SolveBallAndSocketJointSystem@reactphysics3d@@QEAA@AEAVPhysicsWorld@1@AEAVRigidBodyComponents@1@AEAVTransformComponents@1@AEAVJointComponents@1@AEAVBallAndSocketJointComponents@1@@Z 0000000140059c70 f   SolveBallAndSocketJointSystem.obj
 0001:00058c70       ??0SolveFixedJointSystem@reactphysics3d@@QEAA@AEAVPhysicsWorld@1@AEAVRigidBodyComponents@1@AEAVTransformComponents@1@AEAVJointComponents@1@AEAVFixedJointComponents@1@@Z 0000000140059c70 f   SolveFixedJointSystem.obj
 0001:00058c70       ??0SolveHingeJointSystem@reactphysics3d@@QEAA@AEAVPhysicsWorld@1@AEAVRigidBodyComponents@1@AEAVTransformComponents@1@AEAVJointComponents@1@AEAVHingeJointComponents@1@@Z 0000000140059c70 f   SolveHingeJointSystem.obj
 0001:00058c70       ??0SolveSliderJointSystem@reactphysics3d@@QEAA@AEAVPhysicsWorld@1@AEAVRigidBodyComponents@1@AEAVTransformComponents@1@AEAVJointComponents@1@AEAVSliderJointComponents@1@@Z 0000000140059c70 f   SolveSliderJointSystem.obj
 0001:00058ca0       ?initBeforeSolve@SolveBallAndSocketJointSystem@reactphysics3d@@QEAAXXZ 0000000140059ca0 f   SolveBallAndSocketJointSystem.obj
 0001:00059bf0       ?solvePositionConstraint@SolveBallAndSocketJointSystem@reactphysics3d@@QEAAXXZ 000000014005abf0 f   SolveBallAndSocketJointSystem.obj
 0001:0005b920       ?solveVelocityConstraint@SolveBallAndSocketJointSystem@reactphysics3d@@QEAAXXZ 000000014005c920 f   SolveBallAndSocketJointSystem.obj
 0001:0005c2e0       ?warmstart@SolveBallAndSocketJointSystem@reactphysics3d@@QEAAXXZ 000000014005d2e0 f   SolveBallAndSocketJointSystem.obj
 0001:0005c8b0       ?initBeforeSolve@SolveFixedJointSystem@reactphysics3d@@QEAAXXZ 000000014005d8b0 f   SolveFixedJointSystem.obj
 0001:0005d900       ?solvePositionConstraint@SolveFixedJointSystem@reactphysics3d@@QEAAXXZ 000000014005e900 f   SolveFixedJointSystem.obj
 0001:0005f6b0       ?solveVelocityConstraint@SolveFixedJointSystem@reactphysics3d@@QEAAXXZ 00000001400606b0 f   SolveFixedJointSystem.obj
 0001:000600b0       ?warmstart@SolveFixedJointSystem@reactphysics3d@@QEAAXXZ 00000001400610b0 f   SolveFixedJointSystem.obj
 0001:00060640       ?computeCurrentHingeAngle@SolveHingeJointSystem@reactphysics3d@@AEAAMUEntity@2@AEBUQuaternion@2@1@Z 0000000140061640 f   SolveHingeJointSystem.obj
 0001:00060b70       ?initBeforeSolve@SolveHingeJointSystem@reactphysics3d@@QEAAXXZ 0000000140061b70 f   SolveHingeJointSystem.obj
 0001:000623d0       ?solvePositionConstraint@SolveHingeJointSystem@reactphysics3d@@QEAAXXZ 00000001400633d0 f   SolveHingeJointSystem.obj
 0001:000651d0       ?solveVelocityConstraint@SolveHingeJointSystem@reactphysics3d@@QEAAXXZ 00000001400661d0 f   SolveHingeJointSystem.obj
 0001:00066530       ?warmstart@SolveHingeJointSystem@reactphysics3d@@QEAAXXZ 0000000140067530 f   SolveHingeJointSystem.obj
 0001:00066c40       ?initBeforeSolve@SolveSliderJointSystem@reactphysics3d@@QEAAXXZ 0000000140067c40 f   SolveSliderJointSystem.obj
 0001:00068520       ?solvePositionConstraint@SolveSliderJointSystem@reactphysics3d@@QEAAXXZ 0000000140069520 f   SolveSliderJointSystem.obj
 0001:0006b800       ?solveVelocityConstraint@SolveSliderJointSystem@reactphysics3d@@QEAAXXZ 000000014006c800 f   SolveSliderJointSystem.obj
 0001:0006cf70       ?warmstart@SolveSliderJointSystem@reactphysics3d@@QEAAXXZ 000000014006df70 f   SolveSliderJointSystem.obj
 0001:0006d780       ??0DebugRenderer@reactphysics3d@@QEAA@AEAVMemoryAllocator@1@@Z 000000014006e780 f   DebugRenderer.obj
 0001:0006d8e0       ??1DebugRenderer@reactphysics3d@@UEAA@XZ 000000014006e8e0 f   DebugRenderer.obj
 0001:0006d960       ??A?$Map@W4DebugItem@DebugRenderer@reactphysics3d@@IU?$hash@W4DebugItem@DebugRenderer@reactphysics3d@@@std@@U?$equal_to@W4DebugItem@DebugRenderer@reactphysics3d@@@5@@reactphysics3d@@QEAAAEAIAEBW4DebugItem@DebugRenderer@1@@Z 000000014006e960 f i DebugRenderer.obj
 0001:0006da80       ??_EDebugRenderer@reactphysics3d@@UEAAPEAXI@Z 000000014006ea80 f i DebugRenderer.obj
 0001:0006da80       ??_GDebugRenderer@reactphysics3d@@UEAAPEAXI@Z 000000014006ea80 f i DebugRenderer.obj
 0001:0006db30       ?add@?$Array@UDebugTriangle@DebugRenderer@reactphysics3d@@@reactphysics3d@@QEAAXAEBUDebugTriangle@DebugRenderer@2@@Z 000000014006eb30 f i DebugRenderer.obj
 0001:0006dba0       ?add@?$Map@W4DebugItem@DebugRenderer@reactphysics3d@@IU?$hash@W4DebugItem@DebugRenderer@reactphysics3d@@@std@@U?$equal_to@W4DebugItem@DebugRenderer@reactphysics3d@@@5@@reactphysics3d@@QEAA_NAEBV?$Pair@W4DebugItem@DebugRenderer@reactphysics3d@@I@2@_N@Z 000000014006eba0 f i DebugRenderer.obj
 0001:0006dd40       ?computeDebugRenderingPrimitives@DebugRenderer@reactphysics3d@@QEAAXAEBVPhysicsWorld@2@@Z 000000014006ed40 f   DebugRenderer.obj
 0001:0006e0a0       ?drawAABB@DebugRenderer@reactphysics3d@@AEAAXAEBVAABB@2@I@Z 000000014006f0a0 f   DebugRenderer.obj
 0001:0006e680       ?drawBox@DebugRenderer@reactphysics3d@@AEAAXAEBVTransform@2@PEBVBoxShape@2@II@Z 000000014006f680 f   DebugRenderer.obj
 0001:0006f7c0       ?drawCapsule@DebugRenderer@reactphysics3d@@AEAAXAEBVTransform@2@MMI@Z 00000001400707c0 f   DebugRenderer.obj
 0001:000701e0       ?drawCollisionShapeOfCollider@DebugRenderer@reactphysics3d@@AEAAXPEBVCollider@2@@Z 00000001400711e0 f   DebugRenderer.obj
 0001:000703d0       ?drawConcaveMeshShape@DebugRenderer@reactphysics3d@@AEAAXAEBVTransform@2@PEBVConcaveMeshShape@2@II@Z 00000001400713d0 f   DebugRenderer.obj
 0001:00070d30       ?drawConvexMesh@DebugRenderer@reactphysics3d@@AEAAXAEBVTransform@2@PEBVConvexMeshShape@2@II@Z 0000000140071d30 f   DebugRenderer.obj
 0001:000716a0       ?drawHeightFieldShape@DebugRenderer@reactphysics3d@@AEAAXAEBVTransform@2@PEBVHeightFieldShape@2@II@Z 00000001400726a0 f   DebugRenderer.obj
 0001:00072340       ?drawSphere@DebugRenderer@reactphysics3d@@AEAAXAEBUVector3@2@MI@Z 0000000140073340 f   DebugRenderer.obj
 0001:000726d0       ?onContact@DebugRenderer@reactphysics3d@@UEAAXAEBVCallbackData@CollisionCallback@2@@Z 00000001400736d0 f   DebugRenderer.obj
 0001:00072cc0       ?reserve@?$Array@UDebugLine@DebugRenderer@reactphysics3d@@@reactphysics3d@@QEAAX_K@Z 0000000140073cc0 f i DebugRenderer.obj
 0001:00072dd0       ?reserve@?$Array@UDebugTriangle@DebugRenderer@reactphysics3d@@@reactphysics3d@@QEAAX_K@Z 0000000140073dd0 f i DebugRenderer.obj
 0001:00072ef0       ?reserve@?$Map@W4DebugItem@DebugRenderer@reactphysics3d@@IU?$hash@W4DebugItem@DebugRenderer@reactphysics3d@@@std@@U?$equal_to@W4DebugItem@DebugRenderer@reactphysics3d@@@5@@reactphysics3d@@QEAAX_K@Z 0000000140073ef0 f i DebugRenderer.obj
 0001:00073280       ?reset@DebugRenderer@reactphysics3d@@QEAAXXZ 0000000140074280 f   DebugRenderer.obj
 0001:00073290       ??$_Reallocate_grow_by@V<lambda_319d5e083f45f90dcdce5dce53cbb275>@@D@?$basic_string@DU?$char_traits@D@std@@V?$allocator@D@2@@std@@AEAAAEAV01@_KV<lambda_319d5e083f45f90dcdce5dce53cbb275>@@D@Z 0000000140074290 f i DefaultLogger.obj
 0001:00073400       ??$use_facet@V?$codecvt@DDU_Mbstatet@@@std@@@std@@YAAEBV?$codecvt@DDU_Mbstatet@@@0@AEBVlocale@0@@Z 0000000140074400 f i DefaultLogger.obj
 0001:00073650       ??1?$basic_filebuf@DU?$char_traits@D@std@@@std@@UEAA@XZ 0000000140074650 f i DefaultLogger.obj
 0001:00073700       ??_E?$basic_filebuf@DU?$char_traits@D@std@@@std@@UEAAPEAXI@Z 0000000140074700 f i DefaultLogger.obj
 0001:00073700       ??_G?$basic_filebuf@DU?$char_traits@D@std@@@std@@UEAAPEAXI@Z 0000000140074700 f i DefaultLogger.obj
 0001:00073740       ?_Endwrite@?$basic_filebuf@DU?$char_traits@D@std@@@std@@IEAA_NXZ 0000000140074740 f i DefaultLogger.obj
 0001:00073810       ?_Init@?$basic_filebuf@DU?$char_traits@D@std@@@std@@IEAAXPEAU_iobuf@@W4_Initfl@12@@Z 0000000140074810 f i DefaultLogger.obj
 0001:000738e0       ?_Initcvt@?$basic_filebuf@DU?$char_traits@D@std@@@std@@IEAAXAEBV?$codecvt@DDU_Mbstatet@@@2@@Z 00000001400748e0 f i DefaultLogger.obj
 0001:00073960       ?_Lock@?$basic_filebuf@DU?$char_traits@D@std@@@std@@UEAAXXZ 0000000140074960 f i DefaultLogger.obj
 0001:00073980       ?_Reset_back@?$basic_filebuf@DU?$char_traits@D@std@@@std@@AEAAXXZ 0000000140074980 f i DefaultLogger.obj
 0001:000739b0       ?_Unlock@?$basic_filebuf@DU?$char_traits@D@std@@@std@@UEAAXXZ 00000001400749b0 f i DefaultLogger.obj
 0001:000739d0       ?close@?$basic_filebuf@DU?$char_traits@D@std@@@std@@QEAAPEAV12@XZ 00000001400749d0 f i DefaultLogger.obj
 0001:00073ae0       ?do_encoding@codecvt_base@std@@MEBAHXZ 0000000140074ae0 f i DefaultLogger.obj
 0001:00073ae0       ?do_max_length@codecvt_base@std@@MEBAHXZ 0000000140074ae0 f i DefaultLogger.obj
 0001:00073ae0       _get_startup_argv_mode     0000000140074ae0 f i LIBCMT:argv_mode.obj
 0001:00073af0       ?do_in@?$codecvt@DDU_Mbstatet@@@std@@MEBAHAEAU_Mbstatet@@PEBD1AEAPEBDPEAD3AEAPEAD@Z 0000000140074af0 f i DefaultLogger.obj
 0001:00073af0       ?do_out@?$codecvt@DDU_Mbstatet@@@std@@MEBAHAEAU_Mbstatet@@PEBD1AEAPEBDPEAD3AEAPEAD@Z 0000000140074af0 f i DefaultLogger.obj
 0001:00073b10       ?do_length@?$codecvt@DDU_Mbstatet@@@std@@MEBAHAEAU_Mbstatet@@PEBD1_K@Z 0000000140074b10 f i DefaultLogger.obj
 0001:00073b30       ?do_unshift@?$codecvt@DDU_Mbstatet@@@std@@MEBAHAEAU_Mbstatet@@PEAD1AEAPEAD@Z 0000000140074b30 f i DefaultLogger.obj
 0001:00073b40       ?imbue@?$basic_filebuf@DU?$char_traits@D@std@@@std@@MEAAXAEBVlocale@2@@Z 0000000140074b40 f i DefaultLogger.obj
 0001:00073b70       ?overflow@?$basic_filebuf@DU?$char_traits@D@std@@@std@@MEAAHH@Z 0000000140074b70 f i DefaultLogger.obj
 0001:00073d10       ?pbackfail@?$basic_filebuf@DU?$char_traits@D@std@@@std@@MEAAHH@Z 0000000140074d10 f i DefaultLogger.obj
 0001:00073e00       ?seekoff@?$basic_filebuf@DU?$char_traits@D@std@@@std@@MEAA?AV?$fpos@U_Mbstatet@@@2@_JHH@Z 0000000140074e00 f i DefaultLogger.obj
 0001:00073ed0       ?seekpos@?$basic_filebuf@DU?$char_traits@D@std@@@std@@MEAA?AV?$fpos@U_Mbstatet@@@2@V32@H@Z 0000000140074ed0 f i DefaultLogger.obj
 0001:00073f90       ?setbuf@?$basic_filebuf@DU?$char_traits@D@std@@@std@@MEAAPEAV?$basic_streambuf@DU?$char_traits@D@std@@@2@PEAD_J@Z 0000000140074f90 f i DefaultLogger.obj
 0001:00073ff0       ?sync@?$basic_filebuf@DU?$char_traits@D@std@@@std@@MEAAHXZ 0000000140074ff0 f i DefaultLogger.obj
 0001:00074040       ?uflow@?$basic_filebuf@DU?$char_traits@D@std@@@std@@MEAAHXZ 0000000140075040 f i DefaultLogger.obj
 0001:00074310       ?underflow@?$basic_filebuf@DU?$char_traits@D@std@@@std@@MEAAHXZ 0000000140075310 f i DefaultLogger.obj
 0001:00074380       ?xsgetn@?$basic_filebuf@DU?$char_traits@D@std@@@std@@MEAA_JPEAD_J@Z 0000000140075380 f i DefaultLogger.obj
 0001:00074530       ?xsputn@?$basic_filebuf@DU?$char_traits@D@std@@@std@@MEAA_JPEBD_J@Z 0000000140075530 f i DefaultLogger.obj
 0001:00074670       ??$_Find_last@V?$basic_string@DU?$char_traits@D@std@@V?$allocator@D@2@@std@@@?$_Hash@V?$_Umap_traits@V?$basic_string@DU?$char_traits@D@std@@V?$allocator@D@2@@std@@IV?$_Uhash_compare@V?$basic_string@DU?$char_traits@D@std@@V?$allocator@D@2@@std@@U?$hash@V?$basic_string@DU?$char_traits@D@std@@V?$allocator@D@2@@std@@@2@U?$equal_to@V?$basic_string@DU?$char_traits@D@std@@V?$allocator@D@2@@std@@@2@@2@V?$allocator@U?$pair@$$CBV?$basic_string@DU?$char_traits@D@std@@V?$allocator@D@2@@std@@I@std@@@2@$0A@@std@@@std@@IEBA?AU?$_Hash_find_last_result@PEAU?$_List_node@U?$pair@$$CBV?$basic_string@DU?$char_traits@D@std@@V?$allocator@D@2@@std@@I@std@@PEAX@std@@@1@AEBV?$basic_string@DU?$char_traits@D@std@@V?$allocator@D@2@@1@_K@Z 0000000140075670 f i Zenith_AssetHandler.obj
 0001:00074670       ??$_Find_last@V?$basic_string@DU?$char_traits@D@std@@V?$allocator@D@2@@std@@@?$_Hash@V?$_Umap_traits@V?$basic_string@DU?$char_traits@D@std@@V?$allocator@D@2@@std@@U?$pair@IU?$mat@$03$03M$0A@@glm@@@2@V?$_Uhash_compare@V?$basic_string@DU?$char_traits@D@std@@V?$allocator@D@2@@std@@U?$hash@V?$basic_string@DU?$char_traits@D@std@@V?$allocator@D@2@@std@@@2@U?$equal_to@V?$basic_string@DU?$char_traits@D@std@@V?$allocator@D@2@@std@@@2@@2@V?$allocator@U?$pair@$$CBV?$basic_string@DU?$char_traits@D@std@@V?$allocator@D@2@@std@@U?$pair@IU?$mat@$03$03M$0A@@glm@@@2@@std@@@2@$0A@@std@@@std@@IEBA?AU?$_Hash_find_last_result@PEAU?$_List_node@U?$pair@$$CBV?$basic_string@DU?$char_traits@D@std@@V?$allocator@D@2@@std@@U?$pair@IU?$mat@$03$03M$0A@@glm@@@2@@std@@PEAX@std@@@1@AEBV?$basic_string@DU?$char_traits@D@std@@V?$allocator@D@2@@1@_K@Z 0000000140075670 f i Flux_MeshAnimation.obj
 0001:00074670       ??$_Find_last@V?$basic_string@DU?$char_traits@D@std@@V?$allocator@D@2@@std@@@?$_Hash@V?$_Umap_traits@V?$basic_string@DU?$char_traits@D@std@@V?$allocator@D@2@@std@@W4ComponentType@@V?$_Uhash_compare@V?$basic_string@DU?$char_traits@D@std@@V?$allocator@D@2@@std@@U?$hash@V?$basic_string@DU?$char_traits@D@std@@V?$allocator@D@2@@std@@@2@U?$equal_to@V?$basic_string@DU?$char_traits@D@std@@V?$allocator@D@2@@std@@@2@@2@V?$allocator@U?$pair@$$CBV?$basic_string@DU?$char_traits@D@std@@V?$allocator@D@2@@std@@W4ComponentType@@@std@@@2@$0A@@std@@@std@@IEBA?AU?$_Hash_find_last_result@PEAU?$_List_node@U?$pair@$$CBV?$basic_string@DU?$char_traits@D@std@@V?$allocator@D@2@@std@@W4ComponentType@@@std@@PEAX@std@@@1@AEBV?$basic_string@DU?$char_traits@D@std@@V?$allocator@D@2@@1@_K@Z 0000000140075670 f i Zenith_Scene.obj
 0001:00074670       ??$_Find_last@V?$basic_string@DU?$char_traits@D@std@@V?$allocator@D@2@@std@@@?$_Hash@V?$_Umap_traits@V?$basic_string@DU?$char_traits@D@std@@V?$allocator@D@2@@std@@W4ScriptBehaviourType@@V?$_Uhash_compare@V?$basic_string@DU?$char_traits@D@std@@V?$allocator@D@2@@std@@U?$hash@V?$basic_string@DU?$char_traits@D@std@@V?$allocator@D@2@@std@@@2@U?$equal_to@V?$basic_string@DU?$char_traits@D@std@@V?$allocator@D@2@@std@@@2@@2@V?$allocator@U?$pair@$$CBV?$basic_string@DU?$char_traits@D@std@@V?$allocator@D@2@@std@@W4ScriptBehaviourType@@@std@@@2@$0A@@std@@@std@@IEBA?AU?$_Hash_find_last_result@PEAU?$_List_node@U?$pair@$$CBV?$basic_string@DU?$char_traits@D@std@@V?$allocator@D@2@@std@@W4ScriptBehaviourType@@@std@@PEAX@std@@@1@AEBV?$basic_string@DU?$char_traits@D@std@@V?$allocator@D@2@@1@_K@Z 0000000140075670 f i Zenith_Scene.obj
 0001:00074740       ??$_Free_non_head@V?$allocator@U?$_List_node@U?$pair@$$CBV?$basic_string@DU?$char_traits@D@std@@V?$allocator@D@2@@std@@I@std@@PEAX@std@@@std@@@?$_List_node@U?$pair@$$CBV?$basic_string@DU?$char_traits@D@std@@V?$allocator@D@2@@std@@I@std@@PEAX@std@@SAXAEAV?$allocator@U?$_List_node@U?$pair@$$CBV?$basic_string@DU?$char_traits@D@std@@V?$allocator@D@2@@std@@I@std@@PEAX@std@@@1@PEAU01@@Z 0000000140075740 f i Zenith_AssetHandler.obj
 0001:00074740       ??$_Free_non_head@V?$allocator@U?$_List_node@U?$pair@$$CBV?$basic_string@DU?$char_traits@D@std@@V?$allocator@D@2@@std@@W4ComponentType@@@std@@PEAX@std@@@std@@@?$_List_node@U?$pair@$$CBV?$basic_string@DU?$char_traits@D@std@@V?$allocator@D@2@@std@@W4ComponentType@@@std@@PEAX@std@@SAXAEAV?$allocator@U?$_List_node@U?$pair@$$CBV?$basic_string@DU?$char_traits@D@std@@V?$allocator@D@2@@std@@W4ComponentType@@@std@@PEAX@std@@@1@PEAU01@@Z 0000000140075740 f i Zenith_Scene.obj
 0001:00074740       ??$_Free_non_head@V?$allocator@U?$_List_node@U?$pair@$$CBV?$basic_string@DU?$char_traits@D@std@@V?$allocator@D@2@@std@@W4ScriptBehaviourType@@@std@@PEAX@std@@@std@@@?$_List_node@U?$pair@$$CBV?$basic_string@DU?$char_traits@D@std@@V?$allocator@D@2@@std@@W4ScriptBehaviourType@@@std@@PEAX@std@@SAXAEAV?$allocator@U?$_List_node@U?$pair@$$CBV?$basic_string@DU?$char_traits@D@std@@V?$allocator@D@2@@std@@W4ScriptBehaviourType@@@std@@PEAX@std@@@1@PEAU01@@Z 0000000140075740 f i Zenith_Scene.obj
 0001:000747e0       ??$_Freenode@V?$allocator@U?$_List_node@U?$pair@$$CBV?$basic_string@DU?$char_traits@D@std@@V?$allocator@D@2@@std@@I@std@@PEAX@std@@@std@@@?$_List_node@U?$pair@$$CBV?$basic_string@DU?$char_traits@D@std@@V?$allocator@D@2@@std@@I@std@@PEAX@std@@SAXAEAV?$allocator@U?$_List_node@U?$pair@$$CBV?$basic_string@DU?$char_traits@D@std@@V?$allocator@D@2@@std@@I@std@@PEAX@std@@@1@PEAU01@@Z 00000001400757e0 f i Zenith_AssetHandler.obj
 0001:00074850       ??$emplace@AEBH@?$_Hash@V?$_Uset_traits@HV?$_Uhash_compare@HU?$hash@H@std@@U?$equal_to@H@2@@std@@V?$allocator@H@2@$0A@@std@@@std@@QEAA?AU?$pair@V?$_List_const_iterator@V?$_List_val@U?$_List_simple_types@H@std@@@std@@@std@@_N@1@AEBH@Z 0000000140075850 f i Zenith_Input.obj
 0001:00074850       ??$emplace@AEBI@?$_Hash@V?$_Uset_traits@IV?$_Uhash_compare@IU?$hash@I@std@@U?$equal_to@I@2@@std@@V?$allocator@I@2@$0A@@std@@@std@@QEAA?AU?$pair@V?$_List_const_iterator@V?$_List_val@U?$_List_simple_types@I@std@@@std@@@std@@_N@1@AEBI@Z 0000000140075850 f i Zenith_AssetHandler.obj
 0001:00074b20       ??$emplace@U?$pair@$$CBV?$basic_string@DU?$char_traits@D@std@@V?$allocator@D@2@@std@@I@std@@@?$_Hash@V?$_Umap_traits@V?$basic_string@DU?$char_traits@D@std@@V?$allocator@D@2@@std@@IV?$_Uhash_compare@V?$basic_string@DU?$char_traits@D@std@@V?$allocator@D@2@@std@@U?$hash@V?$basic_string@DU?$char_traits@D@std@@V?$allocator@D@2@@std@@@2@U?$equal_to@V?$basic_string@DU?$char_traits@D@std@@V?$allocator@D@2@@std@@@2@@2@V?$allocator@U?$pair@$$CBV?$basic_string@DU?$char_traits@D@std@@V?$allocator@D@2@@std@@I@std@@@2@$0A@@std@@@std@@QEAA?AU?$pair@V?$_List_iterator@V?$_List_val@U?$_List_simple_types@U?$pair@$$CBV?$basic_string@DU?$char_traits@D@std@@V?$allocator@D@2@@std@@I@std@@@std@@@std@@@std@@_N@1@$$QEAU?$pair@$$CBV?$basic_string@DU?$char_traits@D@std@@V?$allocator@D@2@@std@@I@1@@Z 0000000140075b20 f i Zenith_AssetHandler.obj
 0001:00074e10       ??$fill@PEAV?$_List_unchecked_const_iterator@V?$_List_val@U?$_List_simple_types@H@std@@@std@@U_Iterator_base0@2@@std@@V12@@std@@YAXQEAV?$_List_unchecked_const_iterator@V?$_List_val@U?$_List_simple_types@H@std@@@std@@U_Iterator_base0@2@@0@0AEBV10@@Z 0000000140075e10 f i Zenith_Input.obj
 0001:00074e10       ??$fill@PEAV?$_List_unchecked_const_iterator@V?$_List_val@U?$_List_simple_types@I@std@@@std@@U_Iterator_base0@2@@std@@V12@@std@@YAXQEAV?$_List_unchecked_const_iterator@V?$_List_val@U?$_List_simple_types@I@std@@@std@@U_Iterator_base0@2@@0@0AEBV10@@Z 0000000140075e10 f i Zenith_AssetHandler.obj
 0001:00074e10       ??$fill@PEAV?$_List_unchecked_iterator@V?$_List_val@U?$_List_simple_types@U?$pair@$$CBV?$basic_string@DU?$char_traits@D@std@@V?$allocator@D@2@@std@@I@std@@@std@@@std@@@std@@V12@@std@@YAXQEAV?$_List_unchecked_iterator@V?$_List_val@U?$_List_simple_types@U?$pair@$$CBV?$basic_string@DU?$char_traits@D@std@@V?$allocator@D@2@@std@@I@std@@@std@@@std@@@0@0AEBV10@@Z 0000000140075e10 f i Zenith_AssetHandler.obj
 0001:00074e10       ??$fill@PEAV?$_List_unchecked_iterator@V?$_List_val@U?$_List_simple_types@U?$pair@$$CBV?$basic_string@DU?$char_traits@D@std@@V?$allocator@D@2@@std@@U?$pair@IU?$mat@$03$03M$0A@@glm@@@2@@std@@@std@@@std@@@std@@V12@@std@@YAXQEAV?$_List_unchecked_iterator@V?$_List_val@U?$_List_simple_types@U?$pair@$$CBV?$basic_string@DU?$char_traits@D@std@@V?$allocator@D@2@@std@@U?$pair@IU?$mat@$03$03M$0A@@glm@@@2@@std@@@std@@@std@@@0@0AEBV10@@Z 0000000140075e10 f i Flux_MeshAnimation.obj
 0001:00074e10       ??$fill@PEAV?$_List_unchecked_iterator@V?$_List_val@U?$_List_simple_types@U?$pair@$$CBV?$basic_string@DU?$char_traits@D@std@@V?$allocator@D@2@@std@@W4ComponentType@@@std@@@std@@@std@@@std@@V12@@std@@YAXQEAV?$_List_unchecked_iterator@V?$_List_val@U?$_List_simple_types@U?$pair@$$CBV?$basic_string@DU?$char_traits@D@std@@V?$allocator@D@2@@std@@W4ComponentType@@@std@@@std@@@std@@@0@0AEBV10@@Z 0000000140075e10 f i Zenith_Scene.obj
 0001:00074e10       ??$fill@PEAV?$_List_unchecked_iterator@V?$_List_val@U?$_List_simple_types@U?$pair@$$CBV?$basic_string@DU?$char_traits@D@std@@V?$allocator@D@2@@std@@W4ScriptBehaviourType@@@std@@@std@@@std@@@std@@V12@@std@@YAXQEAV?$_List_unchecked_iterator@V?$_List_val@U?$_List_simple_types@U?$pair@$$CBV?$basic_string@DU?$char_traits@D@std@@V?$allocator@D@2@@std@@W4ScriptBehaviourType@@@std@@@std@@@std@@@0@0AEBV10@@Z 0000000140075e10 f i Zenith_Scene.obj
 0001:00074e10       ??$fill@PEAV?$_List_unchecked_iterator@V?$_List_val@U?$_List_simple_types@U?$pair@$$CB_KVZenith_Entity@@@std@@@std@@@std@@@std@@V12@@std@@YAXQEAV?$_List_unchecked_iterator@V?$_List_val@U?$_List_simple_types@U?$pair@$$CB_KVZenith_Entity@@@std@@@std@@@std@@@0@0AEBV10@@Z 0000000140075e10 f i Zenith_Entity.obj
 0001:00074ea0       ??0Flux_MeshGeometry@@QEAA@XZ 0000000140075ea0 f i Zenith_AssetHandler.obj
 0001:00075150       ??0Zenith_Vulkan_Texture@@QEAA@XZ 0000000140076150 f i Zenith_AssetHandler.obj
 0001:00075170       ??1?$_Hash@V?$_Umap_traits@IV?$basic_string@DU?$char_traits@D@std@@V?$allocator@D@2@@std@@V?$_Uhash_compare@IU?$hash@I@std@@U?$equal_to@I@2@@2@V?$allocator@U?$pair@$$CBIV?$basic_string@DU?$char_traits@D@std@@V?$allocator@D@2@@std@@@std@@@2@$0A@@std@@@std@@QEAA@XZ 0000000140076170 f i Zenith_AssetHandler.obj
 0001:000751e0       ??1?$_Hash@V?$_Umap_traits@V?$basic_string@DU?$char_traits@D@std@@V?$allocator@D@2@@std@@U?$pair@IU?$mat@$03$03M$0A@@glm@@@2@V?$_Uhash_compare@V?$basic_string@DU?$char_traits@D@std@@V?$allocator@D@2@@std@@U?$hash@V?$basic_string@DU?$char_traits@D@std@@V?$allocator@D@2@@std@@@2@U?$equal_to@V?$basic_string@DU?$char_traits@D@std@@V?$allocator@D@2@@std@@@2@@2@V?$allocator@U?$pair@$$CBV?$basic_string@DU?$char_traits@D@std@@V?$allocator@D@2@@std@@U?$pair@IU?$mat@$03$03M$0A@@glm@@@2@@std@@@2@$0A@@std@@@std@@QEAA@XZ 00000001400761e0 f i Zenith_AssetHandler.obj
 0001:00075250       ??1?$_Hash@V?$_Uset_traits@HV?$_Uhash_compare@HU?$hash@H@std@@U?$equal_to@H@2@@std@@V?$allocator@H@2@$0A@@std@@@std@@QEAA@XZ 0000000140076250 f i Zenith_Input.obj
 0001:00075250       ??1?$_Hash@V?$_Uset_traits@IV?$_Uhash_compare@IU?$hash@I@std@@U?$equal_to@I@2@@std@@V?$allocator@I@2@$0A@@std@@@std@@QEAA@XZ 0000000140076250 f i Zenith_AssetHandler.obj
 0001:00075300       ??1?$list@U?$pair@$$CBIV?$basic_string@DU?$char_traits@D@std@@V?$allocator@D@2@@std@@@std@@V?$allocator@U?$pair@$$CBIV?$basic_string@DU?$char_traits@D@std@@V?$allocator@D@2@@std@@@std@@@2@@std@@QEAA@XZ 0000000140076300 f i Zenith_AssetHandler.obj
 0001:000753c0       ??1?$list@U?$pair@$$CBV?$basic_string@DU?$char_traits@D@std@@V?$allocator@D@2@@std@@U?$pair@IU?$mat@$03$03M$0A@@glm@@@2@@std@@V?$allocator@U?$pair@$$CBV?$basic_string@DU?$char_traits@D@std@@V?$allocator@D@2@@std@@U?$pair@IU?$mat@$03$03M$0A@@glm@@@2@@std@@@2@@std@@QEAA@XZ 00000001400763c0 f i Zenith_AssetHandler.obj
 0001:00075480       ??1?$vector@UFlux_BufferElement@@V?$allocator@UFlux_BufferElement@@@std@@@std@@QEAA@XZ 0000000140076480 f i Zenith_AssetHandler.obj
 0001:00075480       ?_Tidy@?$vector@UFlux_BufferElement@@V?$allocator@UFlux_BufferElement@@@std@@@std@@AEAAXXZ 0000000140076480 f i Flux_AnimatedMeshes.obj
 0001:00075500       ??1Flux_MeshGeometry@@QEAA@XZ 0000000140076500 f i Zenith_AssetHandler.obj
 0001:00075550       ??1Zenith_Vulkan_Texture@@QEAA@XZ 0000000140076550 f i Zenith_AssetHandler.obj
 0001:00075560       ??_I@YAXPEAX_K1P6AX0@Z@Z   0000000140076560 f i Zenith_AssetHandler.obj
 0001:000755c0       ?AddMaterial@Zenith_AssetHandler@@SAAEAVFlux_Material@@AEBV?$basic_string@DU?$char_traits@D@std@@V?$allocator@D@2@@std@@@Z 00000001400765c0 f   Zenith_AssetHandler.obj
 0001:00075740       ?AddMesh@Zenith_AssetHandler@@SAAEAVFlux_MeshGeometry@@AEBV?$basic_string@DU?$char_traits@D@std@@V?$allocator@D@2@@std@@PEBD_N@Z 0000000140076740 f   Zenith_AssetHandler.obj
 0001:00075900       ?AddTexture2D@Zenith_AssetHandler@@SAAEAVZenith_Vulkan_Texture@@AEBV?$basic_string@DU?$char_traits@D@std@@V?$allocator@D@2@@std@@PEBD@Z 0000000140076900 f   Zenith_AssetHandler.obj
 0001:000759f0       ?AddTextureCube@Zenith_AssetHandler@@SAAEAVZenith_Vulkan_Texture@@AEBV?$basic_string@DU?$char_traits@D@std@@V?$allocator@D@2@@std@@PEBD11111@Z 00000001400769f0 f   Zenith_AssetHandler.obj
 0001:00075b20       ?DeleteMaterial@Zenith_AssetHandler@@SAXAEBV?$basic_string@DU?$char_traits@D@std@@V?$allocator@D@2@@std@@@Z 0000000140076b20 f   Zenith_AssetHandler.obj
 0001:00075c70       ?DeleteMesh@Zenith_AssetHandler@@SAXAEBV?$basic_string@DU?$char_traits@D@std@@V?$allocator@D@2@@std@@@Z 0000000140076c70 f   Zenith_AssetHandler.obj
 0001:00075dc0       ?DeleteTexture@Zenith_AssetHandler@@SAXAEBV?$basic_string@DU?$char_traits@D@std@@V?$allocator@D@2@@std@@@Z 0000000140076dc0 f   Zenith_AssetHandler.obj
 0001:00075f10       ?GetMaterial@Zenith_AssetHandler@@SAAEAVFlux_Material@@AEBV?$basic_string@DU?$char_traits@D@std@@V?$allocator@D@2@@std@@@Z 0000000140076f10 f   Zenith_AssetHandler.obj
 0001:00076040       ?GetMesh@Zenith_AssetHandler@@SAAEAVFlux_MeshGeometry@@AEBV?$basic_string@DU?$char_traits@D@std@@V?$allocator@D@2@@std@@@Z 0000000140077040 f   Zenith_AssetHandler.obj
 0001:00076170       ?GetNextFreeTextureSlot@Zenith_AssetHandler@@CAIXZ 0000000140077170 f   Zenith_AssetHandler.obj
 0001:00076270       ?GetTexture@Zenith_AssetHandler@@SAAEAVZenith_Vulkan_Texture@@AEBV?$basic_string@DU?$char_traits@D@std@@V?$allocator@D@2@@std@@@Z 0000000140077270 f   Zenith_AssetHandler.obj
 0001:000763a0       ?MaterialExists@Zenith_AssetHandler@@SA_NAEBV?$basic_string@DU?$char_traits@D@std@@V?$allocator@D@2@@std@@@Z 00000001400773a0 f   Zenith_AssetHandler.obj
 0001:00076430       ?MeshExists@Zenith_AssetHandler@@SA_NAEBV?$basic_string@DU?$char_traits@D@std@@V?$allocator@D@2@@std@@@Z 0000000140077430 f   Zenith_AssetHandler.obj
 0001:000764c0       ?Reset@Flux_MeshGeometry@@QEAAXXZ 00000001400774c0 f i Zenith_AssetHandler.obj
 0001:000765b0       ?_Assign_grow@?$_Hash_vec@V?$allocator@V?$_List_unchecked_const_iterator@V?$_List_val@U?$_List_simple_types@H@std@@@std@@U_Iterator_base0@2@@std@@@std@@@std@@QEAAX_KV?$_List_unchecked_const_iterator@V?$_List_val@U?$_List_simple_types@H@std@@@std@@U_Iterator_base0@2@@2@@Z 00000001400775b0 f i Zenith_Input.obj
 0001:000765b0       ?_Assign_grow@?$_Hash_vec@V?$allocator@V?$_List_unchecked_const_iterator@V?$_List_val@U?$_List_simple_types@I@std@@@std@@U_Iterator_base0@2@@std@@@std@@@std@@QEAAX_KV?$_List_unchecked_const_iterator@V?$_List_val@U?$_List_simple_types@I@std@@@std@@U_Iterator_base0@2@@2@@Z 00000001400775b0 f i Zenith_AssetHandler.obj
 0001:000765b0       ?_Assign_grow@?$_Hash_vec@V?$allocator@V?$_List_unchecked_iterator@V?$_List_val@U?$_List_simple_types@U?$pair@$$CBV?$basic_string@DU?$char_traits@D@std@@V?$allocator@D@2@@std@@I@std@@@std@@@std@@@std@@@std@@@std@@QEAAX_KV?$_List_unchecked_iterator@V?$_List_val@U?$_List_simple_types@U?$pair@$$CBV?$basic_string@DU?$char_traits@D@std@@V?$allocator@D@2@@std@@I@std@@@std@@@std@@@2@@Z 00000001400775b0 f i Zenith_AssetHandler.obj
 0001:000765b0       ?_Assign_grow@?$_Hash_vec@V?$allocator@V?$_List_unchecked_iterator@V?$_List_val@U?$_List_simple_types@U?$pair@$$CBV?$basic_string@DU?$char_traits@D@std@@V?$allocator@D@2@@std@@U?$pair@IU?$mat@$03$03M$0A@@glm@@@2@@std@@@std@@@std@@@std@@@std@@@std@@QEAAX_KV?$_List_unchecked_iterator@V?$_List_val@U?$_List_simple_types@U?$pair@$$CBV?$basic_string@DU?$char_traits@D@std@@V?$allocator@D@2@@std@@U?$pair@IU?$mat@$03$03M$0A@@glm@@@2@@std@@@std@@@std@@@2@@Z 00000001400775b0 f i Flux_MeshAnimation.obj
 0001:000765b0       ?_Assign_grow@?$_Hash_vec@V?$allocator@V?$_List_unchecked_iterator@V?$_List_val@U?$_List_simple_types@U?$pair@$$CBV?$basic_string@DU?$char_traits@D@std@@V?$allocator@D@2@@std@@W4ComponentType@@@std@@@std@@@std@@@std@@@std@@@std@@QEAAX_KV?$_List_unchecked_iterator@V?$_List_val@U?$_List_simple_types@U?$pair@$$CBV?$basic_string@DU?$char_traits@D@std@@V?$allocator@D@2@@std@@W4ComponentType@@@std@@@std@@@std@@@2@@Z 00000001400775b0 f i Zenith_Scene.obj
 0001:000765b0       ?_Assign_grow@?$_Hash_vec@V?$allocator@V?$_List_unchecked_iterator@V?$_List_val@U?$_List_simple_types@U?$pair@$$CBV?$basic_string@DU?$char_traits@D@std@@V?$allocator@D@2@@std@@W4ScriptBehaviourType@@@std@@@std@@@std@@@std@@@std@@@std@@QEAAX_KV?$_List_unchecked_iterator@V?$_List_val@U?$_List_simple_types@U?$pair@$$CBV?$basic_string@DU?$char_traits@D@std@@V?$allocator@D@2@@std@@W4ScriptBehaviourType@@@std@@@std@@@std@@@2@@Z 00000001400775b0 f i Zenith_Scene.obj
 0001:000766f0       ?_Forced_rehash@?$_Hash@V?$_Umap_traits@V?$basic_string@DU?$char_traits@D@std@@V?$allocator@D@2@@std@@IV?$_Uhash_compare@V?$basic_string@DU?$char_traits@D@std@@V?$allocator@D@2@@std@@U?$hash@V?$basic_string@DU?$char_traits@D@std@@V?$allocator@D@2@@std@@@2@U?$equal_to@V?$basic_string@DU?$char_traits@D@std@@V?$allocator@D@2@@std@@@2@@2@V?$allocator@U?$pair@$$CBV?$basic_string@DU?$char_traits@D@std@@V?$allocator@D@2@@std@@I@std@@@2@$0A@@std@@@std@@IEAAX_K@Z 00000001400776f0 f i Zenith_AssetHandler.obj
 0001:000766f0       ?_Forced_rehash@?$_Hash@V?$_Umap_traits@V?$basic_string@DU?$char_traits@D@std@@V?$allocator@D@2@@std@@U?$pair@IU?$mat@$03$03M$0A@@glm@@@2@V?$_Uhash_compare@V?$basic_string@DU?$char_traits@D@std@@V?$allocator@D@2@@std@@U?$hash@V?$basic_string@DU?$char_traits@D@std@@V?$allocator@D@2@@std@@@2@U?$equal_to@V?$basic_string@DU?$char_traits@D@std@@V?$allocator@D@2@@std@@@2@@2@V?$allocator@U?$pair@$$CBV?$basic_string@DU?$char_traits@D@std@@V?$allocator@D@2@@std@@U?$pair@IU?$mat@$03$03M$0A@@glm@@@2@@std@@@2@$0A@@std@@@std@@IEAAX_K@Z 00000001400776f0 f i Flux_MeshAnimation.obj
 0001:000766f0       ?_Forced_rehash@?$_Hash@V?$_Umap_traits@V?$basic_string@DU?$char_traits@D@std@@V?$allocator@D@2@@std@@W4ComponentType@@V?$_Uhash_compare@V?$basic_string@DU?$char_traits@D@std@@V?$allocator@D@2@@std@@U?$hash@V?$basic_string@DU?$char_traits@D@std@@V?$allocator@D@2@@std@@@2@U?$equal_to@V?$basic_string@DU?$char_traits@D@std@@V?$allocator@D@2@@std@@@2@@2@V?$allocator@U?$pair@$$CBV?$basic_string@DU?$char_traits@D@std@@V?$allocator@D@2@@std@@W4ComponentType@@@std@@@2@$0A@@std@@@std@@IEAAX_K@Z 00000001400776f0 f i Zenith_Scene.obj
 0001:000766f0       ?_Forced_rehash@?$_Hash@V?$_Umap_traits@V?$basic_string@DU?$char_traits@D@std@@V?$allocator@D@2@@std@@W4ScriptBehaviourType@@V?$_Uhash_compare@V?$basic_string@DU?$char_traits@D@std@@V?$allocator@D@2@@std@@U?$hash@V?$basic_string@DU?$char_traits@D@std@@V?$allocator@D@2@@std@@@2@U?$equal_to@V?$basic_string@DU?$char_traits@D@std@@V?$allocator@D@2@@std@@@2@@2@V?$allocator@U?$pair@$$CBV?$basic_string@DU?$char_traits@D@std@@V?$allocator@D@2@@std@@W4ScriptBehaviourType@@@std@@@2@$0A@@std@@@std@@IEAAX_K@Z 00000001400776f0 f i Zenith_Scene.obj
 0001:00076970       ?_Forced_rehash@?$_Hash@V?$_Uset_traits@HV?$_Uhash_compare@HU?$hash@H@std@@U?$equal_to@H@2@@std@@V?$allocator@H@2@$0A@@std@@@std@@IEAAX_K@Z 0000000140077970 f i Zenith_Input.obj
 0001:00076970       ?_Forced_rehash@?$_Hash@V?$_Uset_traits@IV?$_Uhash_compare@IU?$hash@I@std@@U?$equal_to@I@2@@std@@V?$allocator@I@2@$0A@@std@@@std@@IEAAX_K@Z 0000000140077970 f i Zenith_AssetHandler.obj
 0001:00076b30       ?erase@?$_Hash@V?$_Umap_traits@V?$basic_string@DU?$char_traits@D@std@@V?$allocator@D@2@@std@@IV?$_Uhash_compare@V?$basic_string@DU?$char_traits@D@std@@V?$allocator@D@2@@std@@U?$hash@V?$basic_string@DU?$char_traits@D@std@@V?$allocator@D@2@@std@@@2@U?$equal_to@V?$basic_string@DU?$char_traits@D@std@@V?$allocator@D@2@@std@@@2@@2@V?$allocator@U?$pair@$$CBV?$basic_string@DU?$char_traits@D@std@@V?$allocator@D@2@@std@@I@std@@@2@$0A@@std@@@std@@QEAA_KAEBV?$basic_string@DU?$char_traits@D@std@@V?$allocator@D@2@@2@@Z 0000000140077b30 f i Zenith_AssetHandler.obj
 0001:00076c20       printf                     0000000140077c20 f i Zenith_AssetHandler.obj
 0001:00076c70       ?RenderImGui@@YAXXZ        0000000140077c70 f   Zenith_Core.obj
 0001:000778c0       ?TraverseTree@@YAXPEAUNode@Zenith_DebugVariableTree@@I@Z 00000001400788c0 f   Zenith_Core.obj
 0001:00077970       ?Zenith_MainLoop@Zenith_Core@@SAXXZ 0000000140078970 f   Zenith_Core.obj
 0001:00077b10       ?name@ErrorCategoryImpl@vk@@UEBAPEBDXZ 0000000140078b10 f i Zenith_DebugVariables.obj
 0001:00077b20       ?message@ErrorCategoryImpl@vk@@UEBA?AV?$basic_string@DU?$char_traits@D@std@@V?$allocator@D@2@@std@@H@Z 0000000140078b20 f i Zenith_DebugVariables.obj
 0001:00077b40       ??$_Assign_counted_range@PEBV?$basic_string@DU?$char_traits@D@std@@V?$allocator@D@2@@std@@@?$vector@V?$basic_string@DU?$char_traits@D@std@@V?$allocator@D@2@@std@@V?$allocator@V?$basic_string@DU?$char_traits@D@std@@V?$allocator@D@2@@std@@@2@@std@@AEAAXPEBV?$basic_string@DU?$char_traits@D@std@@V?$allocator@D@2@@1@_K@Z 0000000140078b40 f i Zenith_DebugVariables.obj
 0001:00077d20       ??$_Destroy_range@V?$allocator@V?$basic_string@DU?$char_traits@D@std@@V?$allocator@D@2@@std@@@std@@@std@@YAXPEAV?$basic_string@DU?$char_traits@D@std@@V?$allocator@D@2@@0@QEAV10@AEAV?$allocator@V?$basic_string@DU?$char_traits@D@std@@V?$allocator@D@2@@std@@@0@@Z 0000000140078d20 f i Zenith_DebugVariables.obj
 0001:00077db0       ??$_Emplace_reallocate@AEBQ6AXXZ@?$vector@P6AXXZV?$allocator@P6AXXZ@std@@@std@@AEAAPEAP6AXXZQEAP6AXXZAEBQ6AXXZ@Z 0000000140078db0 f i Flux_Graphics.obj
 0001:00077db0       ??$_Emplace_reallocate@AEBQEAULeafNodeBase@Zenith_DebugVariableTree@@@?$vector@PEAULeafNodeBase@Zenith_DebugVariableTree@@V?$allocator@PEAULeafNodeBase@Zenith_DebugVariableTree@@@std@@@std@@AEAAPEAPEAULeafNodeBase@Zenith_DebugVariableTree@@QEAPEAU23@AEBQEAU23@@Z 0000000140078db0 f i Zenith_DebugVariables.obj
 0001:00077db0       ??$_Emplace_reallocate@AEBQEAUNode@Zenith_DebugVariableTree@@@?$vector@PEAUNode@Zenith_DebugVariableTree@@V?$allocator@PEAUNode@Zenith_DebugVariableTree@@@std@@@std@@AEAAPEAPEAUNode@Zenith_DebugVariableTree@@QEAPEAU23@AEBQEAU23@@Z 0000000140078db0 f i Zenith_DebugVariables.obj
 0001:00077db0       ??$_Emplace_reallocate@AEBQEBVZenith_Vulkan_CommandBuffer@@@?$vector@PEBVZenith_Vulkan_CommandBuffer@@V?$allocator@PEBVZenith_Vulkan_CommandBuffer@@@std@@@std@@AEAAPEAPEBVZenith_Vulkan_CommandBuffer@@QEAPEBV2@AEBQEBV2@@Z 0000000140078db0 f i Zenith_Vulkan_CommandBuffer.obj
 0001:00077db0       ??$_Emplace_reallocate@AEBUAttachmentReference@vk@@@?$vector@UAttachmentReference@vk@@V?$allocator@UAttachmentReference@vk@@@std@@@std@@AEAAPEAUAttachmentReference@vk@@QEAU23@AEBU23@@Z 0000000140078db0 f i Zenith_Vulkan_Pipeline.obj
 0001:00077db0       ??$_Emplace_reallocate@AEBVCommandBuffer@vk@@@?$vector@VCommandBuffer@vk@@V?$allocator@VCommandBuffer@vk@@@std@@@std@@AEAAPEAVCommandBuffer@vk@@QEAV23@AEBV23@@Z 0000000140078db0 f i Zenith_Vulkan.obj
 0001:00077db0       ??$_Emplace_reallocate@VDescriptorSetLayout@vk@@@?$vector@VDescriptorSetLayout@vk@@V?$allocator@VDescriptorSetLayout@vk@@@std@@@std@@AEAAPEAVDescriptorSetLayout@vk@@QEAV23@$$QEAV23@@Z 0000000140078db0 f i Zenith_Vulkan_Pipeline.obj
 0001:00077f50       ??$_Emplace_reallocate@AEBV?$basic_string@DU?$char_traits@D@std@@V?$allocator@D@2@@std@@@?$vector@V?$basic_string@DU?$char_traits@D@std@@V?$allocator@D@2@@std@@V?$allocator@V?$basic_string@DU?$char_traits@D@std@@V?$allocator@D@2@@std@@@2@@std@@AEAAPEAV?$basic_string@DU?$char_traits@D@std@@V?$allocator@D@2@@1@QEAV21@AEBV21@@Z 0000000140078f50 f i Zenith_DebugVariables.obj
 0001:000780d0       ??$_Emplace_reallocate@V?$basic_string@DU?$char_traits@D@std@@V?$allocator@D@2@@std@@@?$vector@V?$basic_string@DU?$char_traits@D@std@@V?$allocator@D@2@@std@@V?$allocator@V?$basic_string@DU?$char_traits@D@std@@V?$allocator@D@2@@std@@@2@@std@@AEAAPEAV?$basic_string@DU?$char_traits@D@std@@V?$allocator@D@2@@1@QEAV21@$$QEAV21@@Z 00000001400790d0 f i Zenith_DebugVariables.obj
 0001:00078290       ??$_Uninitialized_move@PEAV?$basic_string@DU?$char_traits@D@std@@V?$allocator@D@2@@std@@V?$allocator@V?$basic_string@DU?$char_traits@D@std@@V?$allocator@D@2@@std@@@2@@std@@YAPEAV?$basic_string@DU?$char_traits@D@std@@V?$allocator@D@2@@0@QEAV10@0PEAV10@AEAV?$allocator@V?$basic_string@DU?$char_traits@D@std@@V?$allocator@D@2@@std@@@0@@Z 0000000140079290 f i Zenith_DebugVariables.obj
 0001:00078310       ??0CompressionExhaustedEXTError@vk@@QEAA@AEBV01@@Z 0000000140079310 f i Zenith_DebugVariables.obj
 0001:00078310       ??0DeviceLostError@vk@@QEAA@AEBV01@@Z 0000000140079310 f i Zenith_DebugVariables.obj
 0001:00078310       ??0ExtensionNotPresentError@vk@@QEAA@AEBV01@@Z 0000000140079310 f i Zenith_DebugVariables.obj
 0001:00078310       ??0FeatureNotPresentError@vk@@QEAA@AEBV01@@Z 0000000140079310 f i Zenith_DebugVariables.obj
 0001:00078310       ??0FormatNotSupportedError@vk@@QEAA@AEBV01@@Z 0000000140079310 f i Zenith_DebugVariables.obj
 0001:00078310       ??0FragmentationError@vk@@QEAA@AEBV01@@Z 0000000140079310 f i Zenith_DebugVariables.obj
 0001:00078310       ??0FragmentedPoolError@vk@@QEAA@AEBV01@@Z 0000000140079310 f i Zenith_DebugVariables.obj
 0001:00078310       ??0ImageUsageNotSupportedKHRError@vk@@QEAA@AEBV01@@Z 0000000140079310 f i Zenith_DebugVariables.obj
 0001:00078310       ??0IncompatibleDisplayKHRError@vk@@QEAA@AEBV01@@Z 0000000140079310 f i Zenith_DebugVariables.obj
 0001:00078310       ??0IncompatibleDriverError@vk@@QEAA@AEBV01@@Z 0000000140079310 f i Zenith_DebugVariables.obj
 0001:00078310       ??0InitializationFailedError@vk@@QEAA@AEBV01@@Z 0000000140079310 f i Zenith_DebugVariables.obj
 0001:00078310       ??0InvalidDrmFormatModifierPlaneLayoutEXTError@vk@@QEAA@AEBV01@@Z 0000000140079310 f i Zenith_DebugVariables.obj
 0001:00078310       ??0InvalidExternalHandleError@vk@@QEAA@AEBV01@@Z 0000000140079310 f i Zenith_DebugVariables.obj
 0001:00078310       ??0InvalidOpaqueCaptureAddressError@vk@@QEAA@AEBV01@@Z 0000000140079310 f i Zenith_DebugVariables.obj
 0001:00078310       ??0InvalidShaderNVError@vk@@QEAA@AEBV01@@Z 0000000140079310 f i Zenith_DebugVariables.obj
 0001:00078310       ??0InvalidVideoStdParametersKHRError@vk@@QEAA@AEBV01@@Z 0000000140079310 f i Zenith_DebugVariables.obj
 0001:00078310       ??0LayerNotPresentError@vk@@QEAA@AEBV01@@Z 0000000140079310 f i Zenith_DebugVariables.obj
 0001:00078310       ??0MemoryMapFailedError@vk@@QEAA@AEBV01@@Z 0000000140079310 f i Zenith_DebugVariables.obj
 0001:00078310       ??0NativeWindowInUseKHRError@vk@@QEAA@AEBV01@@Z 0000000140079310 f i Zenith_DebugVariables.obj
 0001:00078310       ??0NotPermittedKHRError@vk@@QEAA@AEBV01@@Z 0000000140079310 f i Zenith_DebugVariables.obj
 0001:00078310       ??0OutOfDateKHRError@vk@@QEAA@AEBV01@@Z 0000000140079310 f i Zenith_DebugVariables.obj
 0001:00078310       ??0OutOfDeviceMemoryError@vk@@QEAA@AEBV01@@Z 0000000140079310 f i Zenith_DebugVariables.obj
 0001:00078310       ??0OutOfHostMemoryError@vk@@QEAA@AEBV01@@Z 0000000140079310 f i Zenith_DebugVariables.obj
 0001:00078310       ??0OutOfPoolMemoryError@vk@@QEAA@AEBV01@@Z 0000000140079310 f i Zenith_DebugVariables.obj
 0001:00078310       ??0SurfaceLostKHRError@vk@@QEAA@AEBV01@@Z 0000000140079310 f i Zenith_DebugVariables.obj
 0001:00078310       ??0TooManyObjectsError@vk@@QEAA@AEBV01@@Z 0000000140079310 f i Zenith_DebugVariables.obj
 0001:00078310       ??0UnknownError@vk@@QEAA@AEBV01@@Z 0000000140079310 f i Zenith_DebugVariables.obj
 0001:00078310       ??0ValidationFailedEXTError@vk@@QEAA@AEBV01@@Z 0000000140079310 f i Zenith_DebugVariables.obj
 0001:00078310       ??0VideoPictureLayoutNotSupportedKHRError@vk@@QEAA@AEBV01@@Z 0000000140079310 f i Zenith_DebugVariables.obj
 0001:00078310       ??0VideoProfileCodecNotSupportedKHRError@vk@@QEAA@AEBV01@@Z 0000000140079310 f i Zenith_DebugVariables.obj
 0001:00078310       ??0VideoProfileFormatNotSupportedKHRError@vk@@QEAA@AEBV01@@Z 0000000140079310 f i Zenith_DebugVariables.obj
 0001:00078310       ??0VideoProfileOperationNotSupportedKHRError@vk@@QEAA@AEBV01@@Z 0000000140079310 f i Zenith_DebugVariables.obj
 0001:00078310       ??0VideoStdVersionNotSupportedKHRError@vk@@QEAA@AEBV01@@Z 0000000140079310 f i Zenith_DebugVariables.obj
 0001:00078340       ??0CompressionExhaustedEXTError@vk@@QEAA@PEBD@Z 0000000140079340 f i Zenith_DebugVariables.obj
 0001:00078410       ??0DeviceLostError@vk@@QEAA@PEBD@Z 0000000140079410 f i Zenith_DebugVariables.obj
 0001:000784e0       ??0Error@vk@@QEAA@AEBV01@@Z 00000001400794e0 f i Zenith_DebugVariables.obj
 0001:000784f0       ??0ExtensionNotPresentError@vk@@QEAA@PEBD@Z 00000001400794f0 f i Zenith_DebugVariables.obj
 0001:000785c0       ??0FeatureNotPresentError@vk@@QEAA@PEBD@Z 00000001400795c0 f i Zenith_DebugVariables.obj
 0001:00078690       ??0FormatNotSupportedError@vk@@QEAA@PEBD@Z 0000000140079690 f i Zenith_DebugVariables.obj
 0001:00078760       ??0FragmentationError@vk@@QEAA@PEBD@Z 0000000140079760 f i Zenith_DebugVariables.obj
 0001:00078830       ??0FragmentedPoolError@vk@@QEAA@PEBD@Z 0000000140079830 f i Zenith_DebugVariables.obj
 0001:00078900       ??0ImageUsageNotSupportedKHRError@vk@@QEAA@PEBD@Z 0000000140079900 f i Zenith_DebugVariables.obj
 0001:000789d0       ??0IncompatibleDisplayKHRError@vk@@QEAA@PEBD@Z 00000001400799d0 f i Zenith_DebugVariables.obj
 0001:00078aa0       ??0IncompatibleDriverError@vk@@QEAA@PEBD@Z 0000000140079aa0 f i Zenith_DebugVariables.obj
 0001:00078b70       ??0InitializationFailedError@vk@@QEAA@PEBD@Z 0000000140079b70 f i Zenith_DebugVariables.obj
 0001:00078c40       ??0InvalidDrmFormatModifierPlaneLayoutEXTError@vk@@QEAA@PEBD@Z 0000000140079c40 f i Zenith_DebugVariables.obj
 0001:00078d10       ??0InvalidExternalHandleError@vk@@QEAA@PEBD@Z 0000000140079d10 f i Zenith_DebugVariables.obj
 0001:00078de0       ??0InvalidOpaqueCaptureAddressError@vk@@QEAA@PEBD@Z 0000000140079de0 f i Zenith_DebugVariables.obj
 0001:00078eb0       ??0InvalidShaderNVError@vk@@QEAA@PEBD@Z 0000000140079eb0 f i Zenith_DebugVariables.obj
 0001:00078f80       ??0InvalidVideoStdParametersKHRError@vk@@QEAA@PEBD@Z 0000000140079f80 f i Zenith_DebugVariables.obj
 0001:00079050       ??0LayerNotPresentError@vk@@QEAA@PEBD@Z 000000014007a050 f i Zenith_DebugVariables.obj
 0001:00079120       ??0MemoryMapFailedError@vk@@QEAA@PEBD@Z 000000014007a120 f i Zenith_DebugVariables.obj
 0001:000791f0       ??0NativeWindowInUseKHRError@vk@@QEAA@PEBD@Z 000000014007a1f0 f i Zenith_DebugVariables.obj
 0001:000792c0       ??0NotPermittedKHRError@vk@@QEAA@PEBD@Z 000000014007a2c0 f i Zenith_DebugVariables.obj
 0001:00079390       ??0OutOfDateKHRError@vk@@QEAA@PEBD@Z 000000014007a390 f i Zenith_DebugVariables.obj
 0001:00079460       ??0OutOfDeviceMemoryError@vk@@QEAA@PEBD@Z 000000014007a460 f i Zenith_DebugVariables.obj
 0001:00079530       ??0OutOfHostMemoryError@vk@@QEAA@PEBD@Z 000000014007a530 f i Zenith_DebugVariables.obj
 0001:00079600       ??0OutOfPoolMemoryError@vk@@QEAA@PEBD@Z 000000014007a600 f i Zenith_DebugVariables.obj
 0001:000796d0       ??0SurfaceLostKHRError@vk@@QEAA@PEBD@Z 000000014007a6d0 f i Zenith_DebugVariables.obj
 0001:000797a0       ??0SystemError@vk@@QEAA@AEBV01@@Z 000000014007a7a0 f i Zenith_DebugVariables.obj
 0001:00079810       ??0SystemError@vk@@QEAA@Verror_code@std@@PEBD@Z 000000014007a810 f i Zenith_DebugVariables.obj
 0001:00079860       ??0TooManyObjectsError@vk@@QEAA@PEBD@Z 000000014007a860 f i Zenith_DebugVariables.obj
 0001:00079930       ??0UnknownError@vk@@QEAA@PEBD@Z 000000014007a930 f i Zenith_DebugVariables.obj
 0001:00079a00       ??0ValidationFailedEXTError@vk@@QEAA@PEBD@Z 000000014007aa00 f i Zenith_DebugVariables.obj
 0001:00079ad0       ??0VideoPictureLayoutNotSupportedKHRError@vk@@QEAA@PEBD@Z 000000014007aad0 f i Zenith_DebugVariables.obj
 0001:00079ba0       ??0VideoProfileCodecNotSupportedKHRError@vk@@QEAA@PEBD@Z 000000014007aba0 f i Zenith_DebugVariables.obj
 0001:00079c70       ??0VideoProfileFormatNotSupportedKHRError@vk@@QEAA@PEBD@Z 000000014007ac70 f i Zenith_DebugVariables.obj
 0001:00079d40       ??0VideoProfileOperationNotSupportedKHRError@vk@@QEAA@PEBD@Z 000000014007ad40 f i Zenith_DebugVariables.obj
 0001:00079e10       ??0VideoStdVersionNotSupportedKHRError@vk@@QEAA@PEBD@Z 000000014007ae10 f i Zenith_DebugVariables.obj
 0001:00079ee0       ??0system_error@std@@QEAA@Verror_code@1@PEBD@Z 000000014007aee0 f i Zenith_DebugVariables.obj
 0001:00079fa0       ??1CompressionExhaustedEXTError@vk@@UEAA@XZ 000000014007afa0 f i Zenith_DebugVariables.obj
 0001:00079fa0       ??1DeviceLostError@vk@@UEAA@XZ 000000014007afa0 f i Zenith_DebugVariables.obj
 0001:00079fa0       ??1ExtensionNotPresentError@vk@@UEAA@XZ 000000014007afa0 f i Zenith_DebugVariables.obj
 0001:00079fa0       ??1FeatureNotPresentError@vk@@UEAA@XZ 000000014007afa0 f i Zenith_DebugVariables.obj
 0001:00079fa0       ??1FormatNotSupportedError@vk@@UEAA@XZ 000000014007afa0 f i Zenith_DebugVariables.obj
 0001:00079fa0       ??1FragmentationError@vk@@UEAA@XZ 000000014007afa0 f i Zenith_DebugVariables.obj
 0001:00079fa0       ??1FragmentedPoolError@vk@@UEAA@XZ 000000014007afa0 f i Zenith_DebugVariables.obj
 0001:00079fa0       ??1ImageUsageNotSupportedKHRError@vk@@UEAA@XZ 000000014007afa0 f i Zenith_DebugVariables.obj
 0001:00079fa0       ??1IncompatibleDisplayKHRError@vk@@UEAA@XZ 000000014007afa0 f i Zenith_DebugVariables.obj
 0001:00079fa0       ??1IncompatibleDriverError@vk@@UEAA@XZ 000000014007afa0 f i Zenith_DebugVariables.obj
 0001:00079fa0       ??1InitializationFailedError@vk@@UEAA@XZ 000000014007afa0 f i Zenith_DebugVariables.obj
 0001:00079fa0       ??1InvalidDrmFormatModifierPlaneLayoutEXTError@vk@@UEAA@XZ 000000014007afa0 f i Zenith_DebugVariables.obj
 0001:00079fa0       ??1InvalidExternalHandleError@vk@@UEAA@XZ 000000014007afa0 f i Zenith_DebugVariables.obj
 0001:00079fa0       ??1InvalidOpaqueCaptureAddressError@vk@@UEAA@XZ 000000014007afa0 f i Zenith_DebugVariables.obj
 0001:00079fa0       ??1InvalidShaderNVError@vk@@UEAA@XZ 000000014007afa0 f i Zenith_DebugVariables.obj
 0001:00079fa0       ??1InvalidVideoStdParametersKHRError@vk@@UEAA@XZ 000000014007afa0 f i Zenith_DebugVariables.obj
 0001:00079fa0       ??1LayerNotPresentError@vk@@UEAA@XZ 000000014007afa0 f i Zenith_DebugVariables.obj
 0001:00079fa0       ??1MemoryMapFailedError@vk@@UEAA@XZ 000000014007afa0 f i Zenith_DebugVariables.obj
 0001:00079fa0       ??1NativeWindowInUseKHRError@vk@@UEAA@XZ 000000014007afa0 f i Zenith_DebugVariables.obj
 0001:00079fa0       ??1NotPermittedKHRError@vk@@UEAA@XZ 000000014007afa0 f i Zenith_DebugVariables.obj
 0001:00079fa0       ??1OutOfDateKHRError@vk@@UEAA@XZ 000000014007afa0 f i Zenith_DebugVariables.obj
 0001:00079fa0       ??1OutOfDeviceMemoryError@vk@@UEAA@XZ 000000014007afa0 f i Zenith_DebugVariables.obj
 0001:00079fa0       ??1OutOfHostMemoryError@vk@@UEAA@XZ 000000014007afa0 f i Zenith_DebugVariables.obj
 0001:00079fa0       ??1OutOfPoolMemoryError@vk@@UEAA@XZ 000000014007afa0 f i Zenith_DebugVariables.obj
 0001:00079fa0       ??1SurfaceLostKHRError@vk@@UEAA@XZ 000000014007afa0 f i Zenith_DebugVariables.obj
 0001:00079fa0       ??1SystemError@vk@@UEAA@XZ 000000014007afa0 f i Zenith_DebugVariables.obj
 0001:00079fa0       ??1TooManyObjectsError@vk@@UEAA@XZ 000000014007afa0 f i Zenith_DebugVariables.obj
 0001:00079fa0       ??1UnknownError@vk@@UEAA@XZ 000000014007afa0 f i Zenith_DebugVariables.obj
 0001:00079fa0       ??1ValidationFailedEXTError@vk@@UEAA@XZ 000000014007afa0 f i Zenith_DebugVariables.obj
 0001:00079fa0       ??1VideoPictureLayoutNotSupportedKHRError@vk@@UEAA@XZ 000000014007afa0 f i Zenith_DebugVariables.obj
 0001:00079fa0       ??1VideoProfileCodecNotSupportedKHRError@vk@@UEAA@XZ 000000014007afa0 f i Zenith_DebugVariables.obj
 0001:00079fa0       ??1VideoProfileFormatNotSupportedKHRError@vk@@UEAA@XZ 000000014007afa0 f i Zenith_DebugVariables.obj
 0001:00079fa0       ??1VideoProfileOperationNotSupportedKHRError@vk@@UEAA@XZ 000000014007afa0 f i Zenith_DebugVariables.obj
 0001:00079fa0       ??1VideoStdVersionNotSupportedKHRError@vk@@UEAA@XZ 000000014007afa0 f i Zenith_DebugVariables.obj
 0001:00079fb4       ??_ECompressionExhaustedEXTError@vk@@W7EAAPEAXI@Z 000000014007afb4 f i Zenith_DebugVariables.obj
 0001:00079fb4       ??_EDeviceLostError@vk@@W7EAAPEAXI@Z 000000014007afb4 f i Zenith_DebugVariables.obj
 0001:00079fb4       ??_EExtensionNotPresentError@vk@@W7EAAPEAXI@Z 000000014007afb4 f i Zenith_DebugVariables.obj
 0001:00079fb4       ??_EFeatureNotPresentError@vk@@W7EAAPEAXI@Z 000000014007afb4 f i Zenith_DebugVariables.obj
 0001:00079fb4       ??_EFormatNotSupportedError@vk@@W7EAAPEAXI@Z 000000014007afb4 f i Zenith_DebugVariables.obj
 0001:00079fb4       ??_EFragmentationError@vk@@W7EAAPEAXI@Z 000000014007afb4 f i Zenith_DebugVariables.obj
 0001:00079fb4       ??_EFragmentedPoolError@vk@@W7EAAPEAXI@Z 000000014007afb4 f i Zenith_DebugVariables.obj
 0001:00079fb4       ??_EImageUsageNotSupportedKHRError@vk@@W7EAAPEAXI@Z 000000014007afb4 f i Zenith_DebugVariables.obj
 0001:00079fb4       ??_EIncompatibleDisplayKHRError@vk@@W7EAAPEAXI@Z 000000014007afb4 f i Zenith_DebugVariables.obj
 0001:00079fb4       ??_EIncompatibleDriverError@vk@@W7EAAPEAXI@Z 000000014007afb4 f i Zenith_DebugVariables.obj
 0001:00079fb4       ??_EInitializationFailedError@vk@@W7EAAPEAXI@Z 000000014007afb4 f i Zenith_DebugVariables.obj
 0001:00079fb4       ??_EInvalidDrmFormatModifierPlaneLayoutEXTError@vk@@W7EAAPEAXI@Z 000000014007afb4 f i Zenith_DebugVariables.obj
 0001:00079fb4       ??_EInvalidExternalHandleError@vk@@W7EAAPEAXI@Z 000000014007afb4 f i Zenith_DebugVariables.obj
 0001:00079fb4       ??_EInvalidOpaqueCaptureAddressError@vk@@W7EAAPEAXI@Z 000000014007afb4 f i Zenith_DebugVariables.obj
 0001:00079fb4       ??_EInvalidShaderNVError@vk@@W7EAAPEAXI@Z 000000014007afb4 f i Zenith_DebugVariables.obj
 0001:00079fb4       ??_EInvalidVideoStdParametersKHRError@vk@@W7EAAPEAXI@Z 000000014007afb4 f i Zenith_DebugVariables.obj
 0001:00079fb4       ??_ELayerNotPresentError@vk@@W7EAAPEAXI@Z 000000014007afb4 f i Zenith_DebugVariables.obj
 0001:00079fb4       ??_EMemoryMapFailedError@vk@@W7EAAPEAXI@Z 000000014007afb4 f i Zenith_DebugVariables.obj
 0001:00079fb4       ??_ENativeWindowInUseKHRError@vk@@W7EAAPEAXI@Z 000000014007afb4 f i Zenith_DebugVariables.obj
 0001:00079fb4       ??_ENotPermittedKHRError@vk@@W7EAAPEAXI@Z 000000014007afb4 f i Zenith_DebugVariables.obj
 0001:00079fb4       ??_EOutOfDateKHRError@vk@@W7EAAPEAXI@Z 000000014007afb4 f i Zenith_DebugVariables.obj
 0001:00079fb4       ??_EOutOfDeviceMemoryError@vk@@W7EAAPEAXI@Z 000000014007afb4 f i Zenith_DebugVariables.obj
 0001:00079fb4       ??_EOutOfHostMemoryError@vk@@W7EAAPEAXI@Z 000000014007afb4 f i Zenith_DebugVariables.obj
 0001:00079fb4       ??_EOutOfPoolMemoryError@vk@@W7EAAPEAXI@Z 000000014007afb4 f i Zenith_DebugVariables.obj
 0001:00079fb4       ??_ESurfaceLostKHRError@vk@@W7EAAPEAXI@Z 000000014007afb4 f i Zenith_DebugVariables.obj
 0001:00079fb4       ??_ESystemError@vk@@W7EAAPEAXI@Z 000000014007afb4 f i Zenith_DebugVariables.obj
 0001:00079fb4       ??_ETooManyObjectsError@vk@@W7EAAPEAXI@Z 000000014007afb4 f i Zenith_DebugVariables.obj
 0001:00079fb4       ??_EUnknownError@vk@@W7EAAPEAXI@Z 000000014007afb4 f i Zenith_DebugVariables.obj
 0001:00079fb4       ??_EValidationFailedEXTError@vk@@W7EAAPEAXI@Z 000000014007afb4 f i Zenith_DebugVariables.obj
 0001:00079fb4       ??_EVideoPictureLayoutNotSupportedKHRError@vk@@W7EAAPEAXI@Z 000000014007afb4 f i Zenith_DebugVariables.obj
 0001:00079fb4       ??_EVideoProfileCodecNotSupportedKHRError@vk@@W7EAAPEAXI@Z 000000014007afb4 f i Zenith_DebugVariables.obj
 0001:00079fb4       ??_EVideoProfileFormatNotSupportedKHRError@vk@@W7EAAPEAXI@Z 000000014007afb4 f i Zenith_DebugVariables.obj
 0001:00079fb4       ??_EVideoProfileOperationNotSupportedKHRError@vk@@W7EAAPEAXI@Z 000000014007afb4 f i Zenith_DebugVariables.obj
 0001:00079fb4       ??_EVideoStdVersionNotSupportedKHRError@vk@@W7EAAPEAXI@Z 000000014007afb4 f i Zenith_DebugVariables.obj
 0001:00079fc0       ??_ECompressionExhaustedEXTError@vk@@UEAAPEAXI@Z 000000014007afc0 f i Zenith_DebugVariables.obj
 0001:00079fc0       ??_EDeviceLostError@vk@@UEAAPEAXI@Z 000000014007afc0 f i Zenith_DebugVariables.obj
 0001:00079fc0       ??_EExtensionNotPresentError@vk@@UEAAPEAXI@Z 000000014007afc0 f i Zenith_DebugVariables.obj
 0001:00079fc0       ??_EFeatureNotPresentError@vk@@UEAAPEAXI@Z 000000014007afc0 f i Zenith_DebugVariables.obj
 0001:00079fc0       ??_EFormatNotSupportedError@vk@@UEAAPEAXI@Z 000000014007afc0 f i Zenith_DebugVariables.obj
 0001:00079fc0       ??_EFragmentationError@vk@@UEAAPEAXI@Z 000000014007afc0 f i Zenith_DebugVariables.obj
 0001:00079fc0       ??_EFragmentedPoolError@vk@@UEAAPEAXI@Z 000000014007afc0 f i Zenith_DebugVariables.obj
 0001:00079fc0       ??_EImageUsageNotSupportedKHRError@vk@@UEAAPEAXI@Z 000000014007afc0 f i Zenith_DebugVariables.obj
 0001:00079fc0       ??_EIncompatibleDisplayKHRError@vk@@UEAAPEAXI@Z 000000014007afc0 f i Zenith_DebugVariables.obj
 0001:00079fc0       ??_EIncompatibleDriverError@vk@@UEAAPEAXI@Z 000000014007afc0 f i Zenith_DebugVariables.obj
 0001:00079fc0       ??_EInitializationFailedError@vk@@UEAAPEAXI@Z 000000014007afc0 f i Zenith_DebugVariables.obj
 0001:00079fc0       ??_EInvalidDrmFormatModifierPlaneLayoutEXTError@vk@@UEAAPEAXI@Z 000000014007afc0 f i Zenith_DebugVariables.obj
 0001:00079fc0       ??_EInvalidExternalHandleError@vk@@UEAAPEAXI@Z 000000014007afc0 f i Zenith_DebugVariables.obj
 0001:00079fc0       ??_EInvalidOpaqueCaptureAddressError@vk@@UEAAPEAXI@Z 000000014007afc0 f i Zenith_DebugVariables.obj
 0001:00079fc0       ??_EInvalidShaderNVError@vk@@UEAAPEAXI@Z 000000014007afc0 f i Zenith_DebugVariables.obj
 0001:00079fc0       ??_EInvalidVideoStdParametersKHRError@vk@@UEAAPEAXI@Z 000000014007afc0 f i Zenith_DebugVariables.obj
 0001:00079fc0       ??_ELayerNotPresentError@vk@@UEAAPEAXI@Z 000000014007afc0 f i Zenith_DebugVariables.obj
 0001:00079fc0       ??_EMemoryMapFailedError@vk@@UEAAPEAXI@Z 000000014007afc0 f i Zenith_DebugVariables.obj
 0001:00079fc0       ??_ENativeWindowInUseKHRError@vk@@UEAAPEAXI@Z 000000014007afc0 f i Zenith_DebugVariables.obj
 0001:00079fc0       ??_ENotPermittedKHRError@vk@@UEAAPEAXI@Z 000000014007afc0 f i Zenith_DebugVariables.obj
 0001:00079fc0       ??_EOutOfDateKHRError@vk@@UEAAPEAXI@Z 000000014007afc0 f i Zenith_DebugVariables.obj
 0001:00079fc0       ??_EOutOfDeviceMemoryError@vk@@UEAAPEAXI@Z 000000014007afc0 f i Zenith_DebugVariables.obj
 0001:00079fc0       ??_EOutOfHostMemoryError@vk@@UEAAPEAXI@Z 000000014007afc0 f i Zenith_DebugVariables.obj
 0001:00079fc0       ??_EOutOfPoolMemoryError@vk@@UEAAPEAXI@Z 000000014007afc0 f i Zenith_DebugVariables.obj
 0001:00079fc0       ??_ESurfaceLostKHRError@vk@@UEAAPEAXI@Z 000000014007afc0 f i Zenith_DebugVariables.obj
 0001:00079fc0       ??_ESystemError@vk@@UEAAPEAXI@Z 000000014007afc0 f i Zenith_DebugVariables.obj
 0001:00079fc0       ??_ETooManyObjectsError@vk@@UEAAPEAXI@Z 000000014007afc0 f i Zenith_DebugVariables.obj
 0001:00079fc0       ??_EUnknownError@vk@@UEAAPEAXI@Z 000000014007afc0 f i Zenith_DebugVariables.obj
 0001:00079fc0       ??_EValidationFailedEXTError@vk@@UEAAPEAXI@Z 000000014007afc0 f i Zenith_DebugVariables.obj
 0001:00079fc0       ??_EVideoPictureLayoutNotSupportedKHRError@vk@@UEAAPEAXI@Z 000000014007afc0 f i Zenith_DebugVariables.obj
 0001:00079fc0       ??_EVideoProfileCodecNotSupportedKHRError@vk@@UEAAPEAXI@Z 000000014007afc0 f i Zenith_DebugVariables.obj
 0001:00079fc0       ??_EVideoProfileFormatNotSupportedKHRError@vk@@UEAAPEAXI@Z 000000014007afc0 f i Zenith_DebugVariables.obj
 0001:00079fc0       ??_EVideoProfileOperationNotSupportedKHRError@vk@@UEAAPEAXI@Z 000000014007afc0 f i Zenith_DebugVariables.obj
 0001:00079fc0       ??_EVideoStdVersionNotSupportedKHRError@vk@@UEAAPEAXI@Z 000000014007afc0 f i Zenith_DebugVariables.obj
 0001:00079fc0       ??_GCompressionExhaustedEXTError@vk@@UEAAPEAXI@Z 000000014007afc0 f i Zenith_DebugVariables.obj
 0001:00079fc0       ??_GDeviceLostError@vk@@UEAAPEAXI@Z 000000014007afc0 f i Zenith_DebugVariables.obj
 0001:00079fc0       ??_GExtensionNotPresentError@vk@@UEAAPEAXI@Z 000000014007afc0 f i Zenith_DebugVariables.obj
 0001:00079fc0       ??_GFeatureNotPresentError@vk@@UEAAPEAXI@Z 000000014007afc0 f i Zenith_DebugVariables.obj
 0001:00079fc0       ??_GFormatNotSupportedError@vk@@UEAAPEAXI@Z 000000014007afc0 f i Zenith_DebugVariables.obj
 0001:00079fc0       ??_GFragmentationError@vk@@UEAAPEAXI@Z 000000014007afc0 f i Zenith_DebugVariables.obj
 0001:00079fc0       ??_GFragmentedPoolError@vk@@UEAAPEAXI@Z 000000014007afc0 f i Zenith_DebugVariables.obj
 0001:00079fc0       ??_GImageUsageNotSupportedKHRError@vk@@UEAAPEAXI@Z 000000014007afc0 f i Zenith_DebugVariables.obj
 0001:00079fc0       ??_GIncompatibleDisplayKHRError@vk@@UEAAPEAXI@Z 000000014007afc0 f i Zenith_DebugVariables.obj
 0001:00079fc0       ??_GIncompatibleDriverError@vk@@UEAAPEAXI@Z 000000014007afc0 f i Zenith_DebugVariables.obj
 0001:00079fc0       ??_GInitializationFailedError@vk@@UEAAPEAXI@Z 000000014007afc0 f i Zenith_DebugVariables.obj
 0001:00079fc0       ??_GInvalidDrmFormatModifierPlaneLayoutEXTError@vk@@UEAAPEAXI@Z 000000014007afc0 f i Zenith_DebugVariables.obj
 0001:00079fc0       ??_GInvalidExternalHandleError@vk@@UEAAPEAXI@Z 000000014007afc0 f i Zenith_DebugVariables.obj
 0001:00079fc0       ??_GInvalidOpaqueCaptureAddressError@vk@@UEAAPEAXI@Z 000000014007afc0 f i Zenith_DebugVariables.obj
 0001:00079fc0       ??_GInvalidShaderNVError@vk@@UEAAPEAXI@Z 000000014007afc0 f i Zenith_DebugVariables.obj
 0001:00079fc0       ??_GInvalidVideoStdParametersKHRError@vk@@UEAAPEAXI@Z 000000014007afc0 f i Zenith_DebugVariables.obj
 0001:00079fc0       ??_GLayerNotPresentError@vk@@UEAAPEAXI@Z 000000014007afc0 f i Zenith_DebugVariables.obj
 0001:00079fc0       ??_GMemoryMapFailedError@vk@@UEAAPEAXI@Z 000000014007afc0 f i Zenith_DebugVariables.obj
 0001:00079fc0       ??_GNativeWindowInUseKHRError@vk@@UEAAPEAXI@Z 000000014007afc0 f i Zenith_DebugVariables.obj
 0001:00079fc0       ??_GNotPermittedKHRError@vk@@UEAAPEAXI@Z 000000014007afc0 f i Zenith_DebugVariables.obj
 0001:00079fc0       ??_GOutOfDateKHRError@vk@@UEAAPEAXI@Z 000000014007afc0 f i Zenith_DebugVariables.obj
 0001:00079fc0       ??_GOutOfDeviceMemoryError@vk@@UEAAPEAXI@Z 000000014007afc0 f i Zenith_DebugVariables.obj
 0001:00079fc0       ??_GOutOfHostMemoryError@vk@@UEAAPEAXI@Z 000000014007afc0 f i Zenith_DebugVariables.obj
 0001:00079fc0       ??_GOutOfPoolMemoryError@vk@@UEAAPEAXI@Z 000000014007afc0 f i Zenith_DebugVariables.obj
 0001:00079fc0       ??_GSurfaceLostKHRError@vk@@UEAAPEAXI@Z 000000014007afc0 f i Zenith_DebugVariables.obj
 0001:00079fc0       ??_GSystemError@vk@@UEAAPEAXI@Z 000000014007afc0 f i Zenith_DebugVariables.obj
 0001:00079fc0       ??_GTooManyObjectsError@vk@@UEAAPEAXI@Z 000000014007afc0 f i Zenith_DebugVariables.obj
 0001:00079fc0       ??_GUnknownError@vk@@UEAAPEAXI@Z 000000014007afc0 f i Zenith_DebugVariables.obj
 0001:00079fc0       ??_GValidationFailedEXTError@vk@@UEAAPEAXI@Z 000000014007afc0 f i Zenith_DebugVariables.obj
 0001:00079fc0       ??_GVideoPictureLayoutNotSupportedKHRError@vk@@UEAAPEAXI@Z 000000014007afc0 f i Zenith_DebugVariables.obj
 0001:00079fc0       ??_GVideoProfileCodecNotSupportedKHRError@vk@@UEAAPEAXI@Z 000000014007afc0 f i Zenith_DebugVariables.obj
 0001:00079fc0       ??_GVideoProfileFormatNotSupportedKHRError@vk@@UEAAPEAXI@Z 000000014007afc0 f i Zenith_DebugVariables.obj
 0001:00079fc0       ??_GVideoProfileOperationNotSupportedKHRError@vk@@UEAAPEAXI@Z 000000014007afc0 f i Zenith_DebugVariables.obj
 0001:00079fc0       ??_GVideoStdVersionNotSupportedKHRError@vk@@UEAAPEAXI@Z 000000014007afc0 f i Zenith_DebugVariables.obj
 0001:0007a010       ?AddLeafNode@Zenith_DebugVariableTree@@QEAAXPEAULeafNodeBase@1@AEAV?$vector@V?$basic_string@DU?$char_traits@D@std@@V?$allocator@D@2@@std@@V?$allocator@V?$basic_string@DU?$char_traits@D@std@@V?$allocator@D@2@@std@@@2@@std@@@Z 000000014007b010 f   Zenith_DebugVariables.obj
 0001:0007a250       ?ImGuiDisplay@?$LeafNode@$$CBVZenith_Vulkan_Texture@@@Zenith_DebugVariableTree@@UEAAXXZ 000000014007b250 f   Zenith_DebugVariables.obj
 0001:0007a4f0       ?ImGuiDisplay@?$LeafNode@_N@Zenith_DebugVariableTree@@UEAAXXZ 000000014007b4f0 f   Zenith_DebugVariables.obj
 0001:0007a510       ?ImGuiDisplay@?$LeafNodeWithRange@II@Zenith_DebugVariableTree@@UEAAXXZ 000000014007b510 f   Zenith_DebugVariables.obj
 0001:0007a550       ?ImGuiDisplay@?$LeafNodeWithRange@MM@Zenith_DebugVariableTree@@UEAAXXZ 000000014007b550 f   Zenith_DebugVariables.obj
 0001:0007a5a0       ?ImGuiDisplay@?$LeafNodeWithRange@U?$vec@$02M$0A@@glm@@M@Zenith_DebugVariableTree@@UEAAXXZ 000000014007b5a0 f   Zenith_DebugVariables.obj
 0001:0007a5f0       ?ImGuiDisplay@?$LeafNodeWithRange@U?$vec@$03M$0A@@glm@@M@Zenith_DebugVariableTree@@UEAAXXZ 000000014007b5f0 f   Zenith_DebugVariables.obj
 0001:0007a640       ?ImGuiDisplay@PfnLeafNode@Zenith_DebugVariableTree@@UEAAXXZ 000000014007b640 f   Zenith_DebugVariables.obj
 0001:0007a690       ?TryAddNode@Zenith_DebugVariableTree@@QEAAXPEAUNode@1@0AEAV?$vector@V?$basic_string@DU?$char_traits@D@std@@V?$allocator@D@2@@std@@V?$allocator@V?$basic_string@DU?$char_traits@D@std@@V?$allocator@D@2@@std@@@2@@std@@IIAEA_NAEAPEAU21@@Z 000000014007b690 f   Zenith_DebugVariables.obj
 0001:0007a970       ?_Buy_raw@?$vector@V?$basic_string@DU?$char_traits@D@std@@V?$allocator@D@2@@std@@V?$allocator@V?$basic_string@DU?$char_traits@D@std@@V?$allocator@D@2@@std@@@2@@std@@AEAAX_K@Z 000000014007b970 f i Zenith_DebugVariables.obj
 0001:0007aa00       ?_Change_array@?$vector@V?$basic_string@DU?$char_traits@D@std@@V?$allocator@D@2@@std@@V?$allocator@V?$basic_string@DU?$char_traits@D@std@@V?$allocator@D@2@@std@@@2@@std@@AEAAXQEAV?$basic_string@DU?$char_traits@D@std@@V?$allocator@D@2@@2@_K1@Z 000000014007ba00 f i Zenith_DebugVariables.obj
 0001:0007aaa0       ?_Tidy@?$vector@V?$basic_string@DU?$char_traits@D@std@@V?$allocator@D@2@@std@@V?$allocator@V?$basic_string@DU?$char_traits@D@std@@V?$allocator@D@2@@std@@@2@@std@@AEAAXXZ 000000014007baa0 f i Zenith_DebugVariables.obj
 0001:0007ab10       ?deallocate@?$allocator@P6AXXZ@std@@QEAAXQEAP6AXXZ_K@Z 000000014007bb10 f i Flux_Graphics.obj
 0001:0007ab10       ?deallocate@?$allocator@PEAULeafNodeBase@Zenith_DebugVariableTree@@@std@@QEAAXQEAPEAULeafNodeBase@Zenith_DebugVariableTree@@_K@Z 000000014007bb10 f i Zenith_DebugVariables.obj
 0001:0007ab10       ?deallocate@?$allocator@PEAUNode@Zenith_DebugVariableTree@@@std@@QEAAXQEAPEAUNode@Zenith_DebugVariableTree@@_K@Z 000000014007bb10 f i Zenith_DebugVariables.obj
 0001:0007ab10       ?deallocate@?$allocator@PEAVZenith_CameraComponent@@@std@@QEAAXQEAPEAVZenith_CameraComponent@@_K@Z 000000014007bb10 f i Zenith_Scene.obj
 0001:0007ab10       ?deallocate@?$allocator@PEAVZenith_ColliderComponent@@@std@@QEAAXQEAPEAVZenith_ColliderComponent@@_K@Z 000000014007bb10 f i PlayerController_Behaviour.obj
 0001:0007ab10       ?deallocate@?$allocator@PEAVZenith_ModelComponent@@@std@@QEAAXQEAPEAVZenith_ModelComponent@@_K@Z 000000014007bb10 f i Flux_AnimatedMeshes.obj
 0001:0007ab10       ?deallocate@?$allocator@PEAVZenith_ScriptComponent@@@std@@QEAAXQEAPEAVZenith_ScriptComponent@@_K@Z 000000014007bb10 f i Zenith_Scene.obj
 0001:0007ab10       ?deallocate@?$allocator@PEAVZenith_TerrainComponent@@@std@@QEAAXQEAPEAVZenith_TerrainComponent@@_K@Z 000000014007bb10 f i Zenith_ColliderComponent.obj
 0001:0007ab10       ?deallocate@?$allocator@PEAVZenith_TextComponent@@@std@@QEAAXQEAPEAVZenith_TextComponent@@_K@Z 000000014007bb10 f i Flux_Text.obj
 0001:0007ab10       ?deallocate@?$allocator@PEAVZenith_TransformComponent@@@std@@QEAAXQEAPEAVZenith_TransformComponent@@_K@Z 000000014007bb10 f i Zenith_ColliderComponent.obj
 0001:0007ab10       ?deallocate@?$allocator@PEAW4entity@entt@@@std@@QEAAXQEAPEAW4entity@entt@@_K@Z 000000014007bb10 f i Zenith_ColliderComponent.obj
 0001:0007ab10       ?deallocate@?$allocator@PEBVZenith_Vulkan_CommandBuffer@@@std@@QEAAXQEAPEBVZenith_Vulkan_CommandBuffer@@_K@Z 000000014007bb10 f i Zenith_Vulkan_CommandBuffer.obj
 0001:0007ab10       ?deallocate@?$allocator@UAttachmentReference@vk@@@std@@QEAAXQEAUAttachmentReference@vk@@_K@Z 000000014007bb10 f i Zenith_Vulkan_Pipeline.obj
 0001:0007ab10       ?deallocate@?$allocator@USurfaceFormatKHR@vk@@@std@@QEAAXQEAUSurfaceFormatKHR@vk@@_K@Z 000000014007bb10 f i Zenith_Vulkan_Swapchain.obj
 0001:0007ab10       ?deallocate@?$allocator@U_Find_file_handle@filesystem@std@@@std@@QEAAXQEAU_Find_file_handle@filesystem@2@_K@Z 000000014007bb10 f i zenithtools:Zenith_Tools_MeshExport.obj
 0001:0007ab10       ?deallocate@?$allocator@VCommandBuffer@vk@@@std@@QEAAXQEAVCommandBuffer@vk@@_K@Z 000000014007bb10 f i Zenith_Vulkan.obj
 0001:0007ab10       ?deallocate@?$allocator@VDescriptorSetLayout@vk@@@std@@QEAAXQEAVDescriptorSetLayout@vk@@_K@Z 000000014007bb10 f i Zenith_Vulkan_Pipeline.obj
 0001:0007ab10       ?deallocate@?$allocator@VImage@vk@@@std@@QEAAXQEAVImage@vk@@_K@Z 000000014007bb10 f i Zenith_Vulkan_Swapchain.obj
 0001:0007ab10       ?deallocate@?$allocator@VImageView@vk@@@std@@QEAAXQEAVImageView@vk@@_K@Z 000000014007bb10 f i Zenith_Vulkan_Swapchain.obj
 0001:0007ab10       ?deallocate@?$allocator@VPhysicalDevice@vk@@@std@@QEAAXQEAVPhysicalDevice@vk@@_K@Z 000000014007bb10 f i Zenith_Vulkan.obj
 0001:0007ab10       ?deallocate@?$allocator@VSemaphore@vk@@@std@@QEAAXQEAVSemaphore@vk@@_K@Z 000000014007bb10 f i Zenith_Vulkan_CommandBuffer.obj
 0001:0007ab10       ?deallocate@?$allocator@_K@std@@QEAAXQEA_K_K@Z 000000014007bb10 f i Zenith_ColliderComponent.obj
 0001:0007ab60       ?deallocate@?$allocator@U?$dense_map_node@IV?$shared_ptr@V?$basic_sparse_set@W4entity@entt@@V?$allocator@W4entity@entt@@@std@@@entt@@@std@@@internal@entt@@@std@@QEAAXQEAU?$dense_map_node@IV?$shared_ptr@V?$basic_sparse_set@W4entity@entt@@V?$allocator@W4entity@entt@@@std@@@entt@@@std@@@internal@entt@@_K@Z 000000014007bb60 f i Zenith_ColliderComponent.obj
 0001:0007ab60       ?deallocate@?$allocator@UPipelineColorBlendAttachmentState@vk@@@std@@QEAAXQEAUPipelineColorBlendAttachmentState@vk@@_K@Z 000000014007bb60 f i Zenith_Vulkan_Pipeline.obj
 0001:0007ab60       ?deallocate@?$allocator@V?$basic_string@DU?$char_traits@D@std@@V?$allocator@D@2@@std@@@std@@QEAAXQEAV?$basic_string@DU?$char_traits@D@std@@V?$allocator@D@2@@2@_K@Z 000000014007bb60 f i Zenith_DebugVariables.obj
 0001:0007abb0       ?make_error_code@vk@@YA?AVerror_code@std@@W4Result@1@@Z 000000014007bbb0 f i Zenith_DebugVariables.obj
 0001:0007ac30       ?throwResultException@detail@vk@@YAXW4Result@2@PEBD@Z 000000014007bc30 f i Zenith_DebugVariables.obj
 0001:0007b170       ?to_string@vk@@YA?AV?$basic_string@DU?$char_traits@D@std@@V?$allocator@D@2@@std@@W4Result@1@@Z 000000014007c170 f i Zenith_DebugVariables.obj
 0001:0007bf90       ?what@SystemError@vk@@UEBAPEBDXZ 000000014007cf90 f i Zenith_DebugVariables.obj
 0001:0007bfa4       ?what@SystemError@vk@@W7EBAPEBDXZ 000000014007cfa4 f i Zenith_DebugVariables.obj
 0001:0007bfb0       ??$rotate@N$0A@@glm@@YA?AU?$mat@$03$03N$0A@@0@AEBU10@NAEBU?$vec@$02N$0A@@0@@Z 000000014007cfb0 f i Zenith_CameraComponent.obj
 0001:0007c3c0       ??0Zenith_CameraComponent@@QEAA@AEAVZenith_Entity@@@Z 000000014007d3c0 f   Zenith_CameraComponent.obj
 0001:0007c440       ?BuildProjectionMatrix@Zenith_CameraComponent@@QEBAXAEAU?$mat@$03$03M$0A@@glm@@@Z 000000014007d440 f   Zenith_CameraComponent.obj
 0001:0007c6b0       ?BuildViewMatrix@Zenith_CameraComponent@@QEBAXAEAU?$mat@$03$03M$0A@@glm@@@Z 000000014007d6b0 f   Zenith_CameraComponent.obj
 0001:0007c940       ?GetFacingDir@Zenith_CameraComponent@@QEBAXAEAU?$vec@$02M$0A@@glm@@@Z 000000014007d940 f   Zenith_CameraComponent.obj
 0001:0007c9d0       ?GetPosition@Zenith_CameraComponent@@QEAAXAEAU?$vec@$03M$0A@@glm@@@Z 000000014007d9d0 f   Zenith_CameraComponent.obj
 0001:0007c9f0       ?GetPosition@Zenith_CameraComponent@@QEBAXAEAU?$vec@$02M$0A@@glm@@@Z 000000014007d9f0 f   Zenith_CameraComponent.obj
 0001:0007ca00       ?InitialisePerspective@Zenith_CameraComponent@@QEAAXAEBU?$vec@$02M$0A@@glm@@MMMMMM@Z 000000014007da00 f   Zenith_CameraComponent.obj
 0001:0007ca60       ?call@?$compute_inverse@$03$03M$0A@$0A@@detail@glm@@SA?AU?$mat@$03$03M$0A@@3@AEBU43@@Z 000000014007da60 f i Zenith_CameraComponent.obj
 0001:0007d130       ?call@?$mul4x4@M$0A@$0A@@detail@glm@@SA?AU?$mat@$03$03M$0A@@3@AEBU43@0@Z 000000014007e130 f i Zenith_CameraComponent.obj
 0001:0007d680       ?call@?$mul4x4@N$0A@$0A@@detail@glm@@SA?AU?$mat@$03$03N$0A@@3@AEBU43@0@Z 000000014007e680 f i Zenith_CameraComponent.obj
 0001:0007db20       ??$?0AEAV?$basic_registry@W4entity@entt@@V?$allocator@W4entity@entt@@@std@@@entt@@AEAV01@@?$basic_any@$0BA@$07@entt@@QEAA@U?$in_place_type_t@AEAV?$basic_registry@W4entity@entt@@V?$allocator@W4entity@entt@@@std@@@entt@@@std@@AEAV?$basic_registry@W4entity@entt@@V?$allocator@W4entity@entt@@@std@@@1@@Z 000000014007eb20 f i Zenith_ColliderComponent.obj
 0001:0007db70       ??$GetComponent@VZenith_TransformComponent@@@Zenith_Entity@@QEAAAEAVZenith_TransformComponent@@XZ 000000014007eb70 f i Zenith_ColliderComponent.obj
 0001:0007dca0       ??$HasComponent@VZenith_TerrainComponent@@@Zenith_Entity@@QEAA_NXZ 000000014007eca0 f i Zenith_ColliderComponent.obj
 0001:0007dd50       ??$_Destroy_range@V?$allocator@U?$dense_map_node@IV?$shared_ptr@V?$basic_sparse_set@W4entity@entt@@V?$allocator@W4entity@entt@@@std@@@entt@@@std@@@internal@entt@@@std@@@std@@YAXPEAU?$dense_map_node@IV?$shared_ptr@V?$basic_sparse_set@W4entity@entt@@V?$allocator@W4entity@entt@@@std@@@entt@@@std@@@internal@entt@@QEAU123@AEAV?$allocator@U?$dense_map_node@IV?$shared_ptr@V?$basic_sparse_set@W4entity@entt@@V?$allocator@W4entity@entt@@@std@@@entt@@@std@@@internal@entt@@@0@@Z 000000014007ed50 f i Zenith_ColliderComponent.obj
 0001:0007ddd0       ??$_Emplace_reallocate@AEA_KAEBUpiecewise_construct_t@std@@V?$tuple@AEBI@2@V?$tuple@$$V@2@@?$vector@U?$dense_map_node@IV?$shared_ptr@V?$basic_sparse_set@W4entity@entt@@V?$allocator@W4entity@entt@@@std@@@entt@@@std@@@internal@entt@@V?$allocator@U?$dense_map_node@IV?$shared_ptr@V?$basic_sparse_set@W4entity@entt@@V?$allocator@W4entity@entt@@@std@@@entt@@@std@@@internal@entt@@@std@@@std@@AEAAPEAU?$dense_map_node@IV?$shared_ptr@V?$basic_sparse_set@W4entity@entt@@V?$allocator@W4entity@entt@@@std@@@entt@@@std@@@internal@entt@@QEAU234@AEA_KAEBUpiecewise_construct_t@1@$$QEAV?$tuple@AEBI@1@$$QEAV?$tuple@$$V@1@@Z 000000014007edd0 f i Zenith_ColliderComponent.obj
 0001:0007dfc0       ??$_Emplace_reallocate@AEBW4entity@entt@@@?$vector@W4entity@entt@@V?$allocator@W4entity@entt@@@std@@@std@@AEAAPEAW4entity@entt@@QEAW423@AEBW423@@Z 000000014007efc0 f i Zenith_ColliderComponent.obj
 0001:0007e0c0       ??$_Reallocate@$00@?$vector@W4entity@entt@@V?$allocator@W4entity@entt@@@std@@@std@@AEAAXAEA_K@Z 000000014007f0c0 f i Zenith_ColliderComponent.obj
 0001:0007e0c0       ??$_Reallocate@$0A@@?$vector@W4entity@entt@@V?$allocator@W4entity@entt@@@std@@@std@@AEAAXAEA_K@Z 000000014007f0c0 f i Zenith_ColliderComponent.obj
 0001:0007e130       ??$_Resize_reallocate@PEAVZenith_CameraComponent@@@?$vector@PEAVZenith_CameraComponent@@V?$allocator@PEAVZenith_CameraComponent@@@std@@@std@@AEAAX_KAEBQEAVZenith_CameraComponent@@@Z 000000014007f130 f i Zenith_Scene.obj
 0001:0007e130       ??$_Resize_reallocate@PEAVZenith_ColliderComponent@@@?$vector@PEAVZenith_ColliderComponent@@V?$allocator@PEAVZenith_ColliderComponent@@@std@@@std@@AEAAX_KAEBQEAVZenith_ColliderComponent@@@Z 000000014007f130 f i PlayerController_Behaviour.obj
 0001:0007e130       ??$_Resize_reallocate@PEAVZenith_ModelComponent@@@?$vector@PEAVZenith_ModelComponent@@V?$allocator@PEAVZenith_ModelComponent@@@std@@@std@@AEAAX_KAEBQEAVZenith_ModelComponent@@@Z 000000014007f130 f i Flux_AnimatedMeshes.obj
 0001:0007e130       ??$_Resize_reallocate@PEAVZenith_ScriptComponent@@@?$vector@PEAVZenith_ScriptComponent@@V?$allocator@PEAVZenith_ScriptComponent@@@std@@@std@@AEAAX_KAEBQEAVZenith_ScriptComponent@@@Z 000000014007f130 f i Zenith_Scene.obj
 0001:0007e130       ??$_Resize_reallocate@PEAVZenith_TerrainComponent@@@?$vector@PEAVZenith_TerrainComponent@@V?$allocator@PEAVZenith_TerrainComponent@@@std@@@std@@AEAAX_KAEBQEAVZenith_TerrainComponent@@@Z 000000014007f130 f i Zenith_ColliderComponent.obj
 0001:0007e130       ??$_Resize_reallocate@PEAVZenith_TextComponent@@@?$vector@PEAVZenith_TextComponent@@V?$allocator@PEAVZenith_TextComponent@@@std@@@std@@AEAAX_KAEBQEAVZenith_TextComponent@@@Z 000000014007f130 f i Flux_Text.obj
 0001:0007e130       ??$_Resize_reallocate@PEAVZenith_TransformComponent@@@?$vector@PEAVZenith_TransformComponent@@V?$allocator@PEAVZenith_TransformComponent@@@std@@@std@@AEAAX_KAEBQEAVZenith_TransformComponent@@@Z 000000014007f130 f i Zenith_ColliderComponent.obj
 0001:0007e2c0       ??$_Resize_reallocate@PEAW4entity@entt@@@?$vector@PEAW4entity@entt@@V?$allocator@PEAW4entity@entt@@@std@@@std@@AEAAX_KAEBQEAW4entity@entt@@@Z 000000014007f2c0 f i Zenith_ColliderComponent.obj
 0001:0007e490       ??$_Resize_reallocate@U_Value_init_tag@std@@@?$vector@PEAVZenith_CameraComponent@@V?$allocator@PEAVZenith_CameraComponent@@@std@@@std@@AEAAX_KAEBU_Value_init_tag@1@@Z 000000014007f490 f i Zenith_Scene.obj
 0001:0007e490       ??$_Resize_reallocate@U_Value_init_tag@std@@@?$vector@PEAVZenith_ColliderComponent@@V?$allocator@PEAVZenith_ColliderComponent@@@std@@@std@@AEAAX_KAEBU_Value_init_tag@1@@Z 000000014007f490 f i PlayerController_Behaviour.obj
 0001:0007e490       ??$_Resize_reallocate@U_Value_init_tag@std@@@?$vector@PEAVZenith_ModelComponent@@V?$allocator@PEAVZenith_ModelComponent@@@std@@@std@@AEAAX_KAEBU_Value_init_tag@1@@Z 000000014007f490 f i Flux_AnimatedMeshes.obj
 0001:0007e490       ??$_Resize_reallocate@U_Value_init_tag@std@@@?$vector@PEAVZenith_ScriptComponent@@V?$allocator@PEAVZenith_ScriptComponent@@@std@@@std@@AEAAX_KAEBU_Value_init_tag@1@@Z 000000014007f490 f i Zenith_Scene.obj
 0001:0007e490       ??$_Resize_reallocate@U_Value_init_tag@std@@@?$vector@PEAVZenith_TerrainComponent@@V?$allocator@PEAVZenith_TerrainComponent@@@std@@@std@@AEAAX_KAEBU_Value_init_tag@1@@Z 000000014007f490 f i Zenith_ColliderComponent.obj
 0001:0007e490       ??$_Resize_reallocate@U_Value_init_tag@std@@@?$vector@PEAVZenith_TextComponent@@V?$allocator@PEAVZenith_TextComponent@@@std@@@std@@AEAAX_KAEBU_Value_init_tag@1@@Z 000000014007f490 f i Flux_Text.obj
 0001:0007e490       ??$_Resize_reallocate@U_Value_init_tag@std@@@?$vector@PEAVZenith_TransformComponent@@V?$allocator@PEAVZenith_TransformComponent@@@std@@@std@@AEAAX_KAEBU_Value_init_tag@1@@Z 000000014007f490 f i Zenith_ColliderComponent.obj
 0001:0007e5b0       ??$_Resize_reallocate@U_Value_init_tag@std@@@?$vector@_KV?$allocator@_K@std@@@std@@AEAAX_KAEBU_Value_init_tag@1@@Z 000000014007f5b0 f i Zenith_ColliderComponent.obj
 0001:0007e710       ??$_Uninitialized_move@PEAU?$dense_map_node@IV?$shared_ptr@V?$basic_sparse_set@W4entity@entt@@V?$allocator@W4entity@entt@@@std@@@entt@@@std@@@internal@entt@@V?$allocator@U?$dense_map_node@IV?$shared_ptr@V?$basic_sparse_set@W4entity@entt@@V?$allocator@W4entity@entt@@@std@@@entt@@@std@@@internal@entt@@@std@@@std@@YAPEAU?$dense_map_node@IV?$shared_ptr@V?$basic_sparse_set@W4entity@entt@@V?$allocator@W4entity@entt@@@std@@@entt@@@std@@@internal@entt@@QEAU123@0PEAU123@AEAV?$allocator@U?$dense_map_node@IV?$shared_ptr@V?$basic_sparse_set@W4entity@entt@@V?$allocator@W4entity@entt@@@std@@@entt@@@std@@@internal@entt@@@0@@Z 000000014007f710 f i Zenith_ColliderComponent.obj
 0001:0007e790       ??$assure@VZenith_TerrainComponent@@@?$basic_registry@W4entity@entt@@V?$allocator@W4entity@entt@@@std@@@entt@@AEAAAEA_PI@Z 000000014007f790 f i Zenith_ColliderComponent.obj
 0001:0007e9e0       ??$assure@VZenith_TransformComponent@@@?$basic_registry@W4entity@entt@@V?$allocator@W4entity@entt@@@std@@@entt@@AEAAAEA_PI@Z 000000014007f9e0 f i Zenith_ColliderComponent.obj
 0001:0007ec30       ??$basic_vtable@V?$basic_registry@W4entity@entt@@V?$allocator@W4entity@entt@@@std@@@entt@@@?$basic_any@$0BA@$07@entt@@CAPEBXW4any_operation@internal@1@AEBV01@PEBX@Z 000000014007fc30 f i Zenith_ColliderComponent.obj
 0001:0007ece0       ??$insert_or_do_nothing@AEBI$$V@?$dense_map@IV?$shared_ptr@V?$basic_sparse_set@W4entity@entt@@V?$allocator@W4entity@entt@@@std@@@entt@@@std@@Uidentity@entt@@U?$equal_to@I@2@V?$allocator@U?$pair@$$CBIV?$shared_ptr@V?$basic_sparse_set@W4entity@entt@@V?$allocator@W4entity@entt@@@std@@@entt@@@std@@@std@@@2@@entt@@AEAA?A_PAEBI@Z 000000014007fce0 f i Zenith_ColliderComponent.obj
 0001:0007ef60       ??$type_id@V?$basic_registry@W4entity@entt@@V?$allocator@W4entity@entt@@@std@@@entt@@@entt@@YAAEBUtype_info@0@XZ 000000014007ff60 f i Zenith_ColliderComponent.obj
 0001:0007f030       ??0Zenith_ColliderComponent@@QEAA@AEAVZenith_Entity@@@Z 0000000140080030 f   Zenith_ColliderComponent.obj
 0001:0007f0e0       ??0Zenith_TransformComponent@@QEAA@AEBV0@@Z 00000001400800e0 f i Zenith_ColliderComponent.obj
 0001:0007f180       ??1?$basic_registry@W4entity@entt@@V?$allocator@W4entity@entt@@@std@@@entt@@QEAA@XZ 0000000140080180 f i Zenith_ColliderComponent.obj
 0001:0007f3b0       ??1?$basic_sparse_set@W4entity@entt@@V?$allocator@W4entity@entt@@@std@@@entt@@UEAA@XZ 00000001400803b0 f i Zenith_ColliderComponent.obj
 0001:0007f470       ??1?$basic_storage@VZenith_TerrainComponent@@W4entity@entt@@V?$allocator@VZenith_TerrainComponent@@@std@@X@entt@@UEAA@XZ 0000000140080470 f i Zenith_ColliderComponent.obj
 0001:0007f4f0       ??1?$basic_storage@VZenith_TransformComponent@@W4entity@entt@@V?$allocator@VZenith_TransformComponent@@@std@@X@entt@@UEAA@XZ 00000001400804f0 f i Zenith_ColliderComponent.obj
 0001:0007f570       ??1Zenith_Entity@@QEAA@XZ  0000000140080570 f i Zenith_ColliderComponent.obj
 0001:0007f5d0       ??4?$basic_registry@W4entity@entt@@V?$allocator@W4entity@entt@@@std@@@entt@@QEAAAEAV01@$$QEAV01@@Z 00000001400805d0 f i Zenith_ColliderComponent.obj
 0001:0007f7c0       ??4?$basic_sparse_set@W4entity@entt@@V?$allocator@W4entity@entt@@@std@@@entt@@QEAAAEAV01@$$QEAV01@@Z 00000001400807c0 f i Zenith_ColliderComponent.obj
 0001:0007f920       ??4?$compressed_pair@V?$vector@_KV?$allocator@_K@std@@@std@@Uidentity@entt@@@entt@@QEAAAEAV01@$$QEAV01@@Z 0000000140080920 f i Zenith_ColliderComponent.obj
 0001:0007f9c0       ??4?$sigh@$$A6AXAEAV?$basic_registry@W4entity@entt@@V?$allocator@W4entity@entt@@@std@@@entt@@W4entity@2@@ZV?$allocator@W4entity@entt@@@std@@@entt@@QEAAAEAV01@$$QEAV01@@Z 00000001400809c0 f i Zenith_ColliderComponent.obj
 0001:0007fa60       ??4Zenith_TransformComponent@@QEAAAEAV0@AEBV0@@Z 0000000140080a60 f i Zenith_ColliderComponent.obj
 0001:0007fb30       ??_E?$_Ref_count_obj_alloc3@V?$basic_sigh_mixin@V?$basic_storage@VZenith_TerrainComponent@@W4entity@entt@@V?$allocator@VZenith_TerrainComponent@@@std@@X@entt@@V?$basic_registry@W4entity@entt@@V?$allocator@W4entity@entt@@@std@@@2@@entt@@V?$allocator@W4entity@entt@@@std@@@std@@EEAAPEAXI@Z 0000000140080b30 f i Zenith_ColliderComponent.obj
 0001:0007fb30       ??_G?$_Ref_count_obj_alloc3@V?$basic_sigh_mixin@V?$basic_storage@VZenith_TerrainComponent@@W4entity@entt@@V?$allocator@VZenith_TerrainComponent@@@std@@X@entt@@V?$basic_registry@W4entity@entt@@V?$allocator@W4entity@entt@@@std@@@2@@entt@@V?$allocator@W4entity@entt@@@std@@@std@@EEAAPEAXI@Z 0000000140080b30 f i Zenith_ColliderComponent.obj
 0001:0007fb60       ??_E?$_Ref_count_obj_alloc3@V?$basic_sigh_mixin@V?$basic_storage@VZenith_TransformComponent@@W4entity@entt@@V?$allocator@VZenith_TransformComponent@@@std@@X@entt@@V?$basic_registry@W4entity@entt@@V?$allocator@W4entity@entt@@@std@@@2@@entt@@V?$allocator@W4entity@entt@@@std@@@std@@EEAAPEAXI@Z 0000000140080b60 f i Zenith_ColliderComponent.obj
 0001:0007fb60       ??_G?$_Ref_count_obj_alloc3@V?$basic_sigh_mixin@V?$basic_storage@VZenith_TransformComponent@@W4entity@entt@@V?$allocator@VZenith_TransformComponent@@@std@@X@entt@@V?$basic_registry@W4entity@entt@@V?$allocator@W4entity@entt@@@std@@@2@@entt@@V?$allocator@W4entity@entt@@@std@@@std@@EEAAPEAXI@Z 0000000140080b60 f i Zenith_ColliderComponent.obj
 0001:0007fb90       ??_E?$basic_sigh_mixin@V?$basic_storage@VZenith_TerrainComponent@@W4entity@entt@@V?$allocator@VZenith_TerrainComponent@@@std@@X@entt@@V?$basic_registry@W4entity@entt@@V?$allocator@W4entity@entt@@@std@@@2@@entt@@UEAAPEAXI@Z 0000000140080b90 f i Zenith_ColliderComponent.obj
 0001:0007fb90       ??_G?$basic_sigh_mixin@V?$basic_storage@VZenith_TerrainComponent@@W4entity@entt@@V?$allocator@VZenith_TerrainComponent@@@std@@X@entt@@V?$basic_registry@W4entity@entt@@V?$allocator@W4entity@entt@@@std@@@2@@entt@@UEAAPEAXI@Z 0000000140080b90 f i Zenith_ColliderComponent.obj
 0001:0007fce0       ??_E?$basic_sigh_mixin@V?$basic_storage@VZenith_TransformComponent@@W4entity@entt@@V?$allocator@VZenith_TransformComponent@@@std@@X@entt@@V?$basic_registry@W4entity@entt@@V?$allocator@W4entity@entt@@@std@@@2@@entt@@UEAAPEAXI@Z 0000000140080ce0 f i Zenith_ColliderComponent.obj
 0001:0007fce0       ??_G?$basic_sigh_mixin@V?$basic_storage@VZenith_TransformComponent@@W4entity@entt@@V?$allocator@VZenith_TransformComponent@@@std@@X@entt@@V?$basic_registry@W4entity@entt@@V?$allocator@W4entity@entt@@@std@@@2@@entt@@UEAAPEAXI@Z 0000000140080ce0 f i Zenith_ColliderComponent.obj
 0001:0007fe30       ??_E?$basic_sparse_set@W4entity@entt@@V?$allocator@W4entity@entt@@@std@@@entt@@UEAAPEAXI@Z 0000000140080e30 f i Zenith_ColliderComponent.obj
 0001:0007fe30       ??_G?$basic_sparse_set@W4entity@entt@@V?$allocator@W4entity@entt@@@std@@@entt@@UEAAPEAXI@Z 0000000140080e30 f i Zenith_ColliderComponent.obj
 0001:0007fe70       ??_E?$basic_storage@VZenith_TerrainComponent@@W4entity@entt@@V?$allocator@VZenith_TerrainComponent@@@std@@X@entt@@UEAAPEAXI@Z 0000000140080e70 f i Zenith_ColliderComponent.obj
 0001:0007fe70       ??_G?$basic_storage@VZenith_TerrainComponent@@W4entity@entt@@V?$allocator@VZenith_TerrainComponent@@@std@@X@entt@@UEAAPEAXI@Z 0000000140080e70 f i Zenith_ColliderComponent.obj
 0001:0007feb0       ??_E?$basic_storage@VZenith_TransformComponent@@W4entity@entt@@V?$allocator@VZenith_TransformComponent@@@std@@X@entt@@UEAAPEAXI@Z 0000000140080eb0 f i Zenith_ColliderComponent.obj
 0001:0007feb0       ??_G?$basic_storage@VZenith_TransformComponent@@W4entity@entt@@V?$allocator@VZenith_TransformComponent@@@std@@X@entt@@UEAAPEAXI@Z 0000000140080eb0 f i Zenith_ColliderComponent.obj
 0001:0007fef0       ?AddCollider@Zenith_ColliderComponent@@QEAAXW4CollisionVolumeType@@W4RigidBodyType@@@Z 0000000140080ef0 f   Zenith_ColliderComponent.obj
 0001:00080370       ?_Change_array@?$vector@PEAVZenith_CameraComponent@@V?$allocator@PEAVZenith_CameraComponent@@@std@@@std@@AEAAXQEAPEAVZenith_CameraComponent@@_K1@Z 0000000140081370 f i Zenith_Scene.obj
 0001:00080370       ?_Change_array@?$vector@PEAVZenith_ColliderComponent@@V?$allocator@PEAVZenith_ColliderComponent@@@std@@@std@@AEAAXQEAPEAVZenith_ColliderComponent@@_K1@Z 0000000140081370 f i PlayerController_Behaviour.obj
 0001:00080370       ?_Change_array@?$vector@PEAVZenith_ModelComponent@@V?$allocator@PEAVZenith_ModelComponent@@@std@@@std@@AEAAXQEAPEAVZenith_ModelComponent@@_K1@Z 0000000140081370 f i Flux_AnimatedMeshes.obj
 0001:00080370       ?_Change_array@?$vector@PEAVZenith_ScriptComponent@@V?$allocator@PEAVZenith_ScriptComponent@@@std@@@std@@AEAAXQEAPEAVZenith_ScriptComponent@@_K1@Z 0000000140081370 f i Zenith_Scene.obj
 0001:00080370       ?_Change_array@?$vector@PEAVZenith_TerrainComponent@@V?$allocator@PEAVZenith_TerrainComponent@@@std@@@std@@AEAAXQEAPEAVZenith_TerrainComponent@@_K1@Z 0000000140081370 f i Zenith_ColliderComponent.obj
 0001:00080370       ?_Change_array@?$vector@PEAVZenith_TextComponent@@V?$allocator@PEAVZenith_TextComponent@@@std@@@std@@AEAAXQEAPEAVZenith_TextComponent@@_K1@Z 0000000140081370 f i Flux_Text.obj
 0001:00080370       ?_Change_array@?$vector@PEAVZenith_TransformComponent@@V?$allocator@PEAVZenith_TransformComponent@@@std@@@std@@AEAAXQEAPEAVZenith_TransformComponent@@_K1@Z 0000000140081370 f i Zenith_ColliderComponent.obj
 0001:00080400       ?_Change_array@?$vector@V?$Flags@W4DescriptorBindingFlagBits@vk@@@vk@@V?$allocator@V?$Flags@W4DescriptorBindingFlagBits@vk@@@vk@@@std@@@std@@AEAAXQEAV?$Flags@W4DescriptorBindingFlagBits@vk@@@vk@@_K1@Z 0000000140081400 f i Zenith_Vulkan_Pipeline.obj
 0001:00080400       ?_Change_array@?$vector@W4entity@entt@@V?$allocator@W4entity@entt@@@std@@@std@@AEAAXQEAW4entity@entt@@_K1@Z 0000000140081400 f i Zenith_ColliderComponent.obj
 0001:00080490       ?_Delete_this@?$_Ref_count_obj_alloc3@V?$basic_sigh_mixin@V?$basic_storage@VZenith_CameraComponent@@W4entity@entt@@V?$allocator@VZenith_CameraComponent@@@std@@X@entt@@V?$basic_registry@W4entity@entt@@V?$allocator@W4entity@entt@@@std@@@2@@entt@@V?$allocator@W4entity@entt@@@std@@@std@@EEAAXXZ 0000000140081490 f i Zenith_Scene.obj
 0001:00080490       ?_Delete_this@?$_Ref_count_obj_alloc3@V?$basic_sigh_mixin@V?$basic_storage@VZenith_ColliderComponent@@W4entity@entt@@V?$allocator@VZenith_ColliderComponent@@@std@@X@entt@@V?$basic_registry@W4entity@entt@@V?$allocator@W4entity@entt@@@std@@@2@@entt@@V?$allocator@W4entity@entt@@@std@@@std@@EEAAXXZ 0000000140081490 f i PlayerController_Behaviour.obj
 0001:00080490       ?_Delete_this@?$_Ref_count_obj_alloc3@V?$basic_sigh_mixin@V?$basic_storage@VZenith_ModelComponent@@W4entity@entt@@V?$allocator@VZenith_ModelComponent@@@std@@X@entt@@V?$basic_registry@W4entity@entt@@V?$allocator@W4entity@entt@@@std@@@2@@entt@@V?$allocator@W4entity@entt@@@std@@@std@@EEAAXXZ 0000000140081490 f i Flux_AnimatedMeshes.obj
 0001:00080490       ?_Delete_this@?$_Ref_count_obj_alloc3@V?$basic_sigh_mixin@V?$basic_storage@VZenith_ScriptComponent@@W4entity@entt@@V?$allocator@VZenith_ScriptComponent@@@std@@X@entt@@V?$basic_registry@W4entity@entt@@V?$allocator@W4entity@entt@@@std@@@2@@entt@@V?$allocator@W4entity@entt@@@std@@@std@@EEAAXXZ 0000000140081490 f i Zenith_Scene.obj
 0001:00080490       ?_Delete_this@?$_Ref_count_obj_alloc3@V?$basic_sigh_mixin@V?$basic_storage@VZenith_TerrainComponent@@W4entity@entt@@V?$allocator@VZenith_TerrainComponent@@@std@@X@entt@@V?$basic_registry@W4entity@entt@@V?$allocator@W4entity@entt@@@std@@@2@@entt@@V?$allocator@W4entity@entt@@@std@@@std@@EEAAXXZ 0000000140081490 f i Zenith_ColliderComponent.obj
 0001:00080490       ?_Delete_this@?$_Ref_count_obj_alloc3@V?$basic_sigh_mixin@V?$basic_storage@VZenith_TextComponent@@W4entity@entt@@V?$allocator@VZenith_TextComponent@@@std@@X@entt@@V?$basic_registry@W4entity@entt@@V?$allocator@W4entity@entt@@@std@@@2@@entt@@V?$allocator@W4entity@entt@@@std@@@std@@EEAAXXZ 0000000140081490 f i Flux_Text.obj
 0001:00080490       ?_Delete_this@?$_Ref_count_obj_alloc3@V?$basic_sigh_mixin@V?$basic_storage@VZenith_TransformComponent@@W4entity@entt@@V?$allocator@VZenith_TransformComponent@@@std@@X@entt@@V?$basic_registry@W4entity@entt@@V?$allocator@W4entity@entt@@@std@@@2@@entt@@V?$allocator@W4entity@entt@@@std@@@std@@EEAAXXZ 0000000140081490 f i Zenith_ColliderComponent.obj
 0001:000804c0       ?_Destroy@?$_Ref_count_obj_alloc3@V?$basic_sigh_mixin@V?$basic_storage@VZenith_TerrainComponent@@W4entity@entt@@V?$allocator@VZenith_TerrainComponent@@@std@@X@entt@@V?$basic_registry@W4entity@entt@@V?$allocator@W4entity@entt@@@std@@@2@@entt@@V?$allocator@W4entity@entt@@@std@@@std@@EEAAXXZ 00000001400814c0 f i Zenith_ColliderComponent.obj
 0001:000804d0       ?_Destroy@?$_Ref_count_obj_alloc3@V?$basic_sigh_mixin@V?$basic_storage@VZenith_TransformComponent@@W4entity@entt@@V?$allocator@VZenith_TransformComponent@@@std@@X@entt@@V?$basic_registry@W4entity@entt@@V?$allocator@W4entity@entt@@@std@@@2@@entt@@V?$allocator@W4entity@entt@@@std@@@std@@EEAAXXZ 00000001400814d0 f i Zenith_ColliderComponent.obj
 0001:000804e0       ?_Tidy@?$vector@U?$dense_map_node@IV?$basic_any@$0A@$07@entt@@@internal@entt@@V?$allocator@U?$dense_map_node@IV?$basic_any@$0A@$07@entt@@@internal@entt@@@std@@@std@@AEAAXXZ 00000001400814e0 f i Zenith_ColliderComponent.obj
 0001:000805c0       ?_Tidy@?$vector@U?$dense_map_node@IV?$shared_ptr@Ugroup_descriptor@internal@entt@@@std@@@internal@entt@@V?$allocator@U?$dense_map_node@IV?$shared_ptr@Ugroup_descriptor@internal@entt@@@std@@@internal@entt@@@std@@@std@@AEAAXXZ 00000001400815c0 f i Zenith_ColliderComponent.obj
 0001:00080690       ?_Tidy@?$vector@U?$dense_map_node@IV?$shared_ptr@V?$basic_sparse_set@W4entity@entt@@V?$allocator@W4entity@entt@@@std@@@entt@@@std@@@internal@entt@@V?$allocator@U?$dense_map_node@IV?$shared_ptr@V?$basic_sparse_set@W4entity@entt@@V?$allocator@W4entity@entt@@@std@@@entt@@@std@@@internal@entt@@@std@@@std@@AEAAXXZ 0000000140081690 f i Zenith_ColliderComponent.obj
 0001:00080700       ?_Tidy@?$vector@W4entity@entt@@V?$allocator@W4entity@entt@@@std@@@std@@AEAAXXZ 0000000140081700 f i Zenith_ColliderComponent.obj
 0001:00080760       ?allocate@?$allocator@W4entity@entt@@@std@@QEAAPEAW4entity@entt@@_K@Z 0000000140081760 f i Zenith_ColliderComponent.obj
 0001:000807d0       ?assure_at_least@?$basic_sparse_set@W4entity@entt@@V?$allocator@W4entity@entt@@@std@@@entt@@AEAA@W4entity@2@@Z 00000001400817d0 f i Zenith_ColliderComponent.obj
 0001:00080900       ?assure_at_least@?$basic_storage@VZenith_TerrainComponent@@W4entity@entt@@V?$allocator@VZenith_TerrainComponent@@@std@@X@entt@@AEAA@_K@Z 0000000140081900 f i Zenith_ColliderComponent.obj
 0001:00080a10       ?assure_at_least@?$basic_storage@VZenith_TransformComponent@@W4entity@entt@@V?$allocator@VZenith_TransformComponent@@@std@@X@entt@@AEAA@_K@Z 0000000140081a10 f i Zenith_ColliderComponent.obj
 0001:00080b20       ?bind@?$basic_sigh_mixin@V?$basic_storage@VZenith_CameraComponent@@W4entity@entt@@V?$allocator@VZenith_CameraComponent@@@std@@X@entt@@V?$basic_registry@W4entity@entt@@V?$allocator@W4entity@entt@@@std@@@2@@entt@@UEAAXV?$basic_any@$0BA@$07@2@@Z 0000000140081b20 f i Zenith_Scene.obj
 0001:00080b20       ?bind@?$basic_sigh_mixin@V?$basic_storage@VZenith_ColliderComponent@@W4entity@entt@@V?$allocator@VZenith_ColliderComponent@@@std@@X@entt@@V?$basic_registry@W4entity@entt@@V?$allocator@W4entity@entt@@@std@@@2@@entt@@UEAAXV?$basic_any@$0BA@$07@2@@Z 0000000140081b20 f i PlayerController_Behaviour.obj
 0001:00080b20       ?bind@?$basic_sigh_mixin@V?$basic_storage@VZenith_ModelComponent@@W4entity@entt@@V?$allocator@VZenith_ModelComponent@@@std@@X@entt@@V?$basic_registry@W4entity@entt@@V?$allocator@W4entity@entt@@@std@@@2@@entt@@UEAAXV?$basic_any@$0BA@$07@2@@Z 0000000140081b20 f i Flux_AnimatedMeshes.obj
 0001:00080b20       ?bind@?$basic_sigh_mixin@V?$basic_storage@VZenith_ScriptComponent@@W4entity@entt@@V?$allocator@VZenith_ScriptComponent@@@std@@X@entt@@V?$basic_registry@W4entity@entt@@V?$allocator@W4entity@entt@@@std@@@2@@entt@@UEAAXV?$basic_any@$0BA@$07@2@@Z 0000000140081b20 f i Zenith_Scene.obj
 0001:00080b20       ?bind@?$basic_sigh_mixin@V?$basic_storage@VZenith_TerrainComponent@@W4entity@entt@@V?$allocator@VZenith_TerrainComponent@@@std@@X@entt@@V?$basic_registry@W4entity@entt@@V?$allocator@W4entity@entt@@@std@@@2@@entt@@UEAAXV?$basic_any@$0BA@$07@2@@Z 0000000140081b20 f i Zenith_ColliderComponent.obj
 0001:00080b20       ?bind@?$basic_sigh_mixin@V?$basic_storage@VZenith_TextComponent@@W4entity@entt@@V?$allocator@VZenith_TextComponent@@@std@@X@entt@@V?$basic_registry@W4entity@entt@@V?$allocator@W4entity@entt@@@std@@@2@@entt@@UEAAXV?$basic_any@$0BA@$07@2@@Z 0000000140081b20 f i Flux_Text.obj
 0001:00080b20       ?bind@?$basic_sigh_mixin@V?$basic_storage@VZenith_TransformComponent@@W4entity@entt@@V?$allocator@VZenith_TransformComponent@@@std@@X@entt@@V?$basic_registry@W4entity@entt@@V?$allocator@W4entity@entt@@@std@@@2@@entt@@UEAAXV?$basic_any@$0BA@$07@2@@Z 0000000140081b20 f i Zenith_ColliderComponent.obj
 0001:00080c00       ?bind@?$basic_sparse_set@W4entity@entt@@V?$allocator@W4entity@entt@@@std@@@entt@@UEAAXV?$basic_any@$0BA@$07@2@@Z 0000000140081c00 f i Zenith_ColliderComponent.obj
 0001:00080c20       ?capacity@?$basic_sparse_set@W4entity@entt@@V?$allocator@W4entity@entt@@@std@@@entt@@UEBA_KXZ 0000000140081c20 f i Zenith_ColliderComponent.obj
 0001:00080c30       ?capacity@?$basic_storage@VZenith_CameraComponent@@W4entity@entt@@V?$allocator@VZenith_CameraComponent@@@std@@X@entt@@UEBA_KXZ 0000000140081c30 f i Zenith_Scene.obj
 0001:00080c30       ?capacity@?$basic_storage@VZenith_ColliderComponent@@W4entity@entt@@V?$allocator@VZenith_ColliderComponent@@@std@@X@entt@@UEBA_KXZ 0000000140081c30 f i PlayerController_Behaviour.obj
 0001:00080c30       ?capacity@?$basic_storage@VZenith_ModelComponent@@W4entity@entt@@V?$allocator@VZenith_ModelComponent@@@std@@X@entt@@UEBA_KXZ 0000000140081c30 f i Flux_AnimatedMeshes.obj
 0001:00080c30       ?capacity@?$basic_storage@VZenith_ScriptComponent@@W4entity@entt@@V?$allocator@VZenith_ScriptComponent@@@std@@X@entt@@UEBA_KXZ 0000000140081c30 f i Zenith_Scene.obj
 0001:00080c30       ?capacity@?$basic_storage@VZenith_TerrainComponent@@W4entity@entt@@V?$allocator@VZenith_TerrainComponent@@@std@@X@entt@@UEBA_KXZ 0000000140081c30 f i Zenith_ColliderComponent.obj
 0001:00080c30       ?capacity@?$basic_storage@VZenith_TextComponent@@W4entity@entt@@V?$allocator@VZenith_TextComponent@@@std@@X@entt@@UEBA_KXZ 0000000140081c30 f i Flux_Text.obj
 0001:00080c30       ?capacity@?$basic_storage@VZenith_TransformComponent@@W4entity@entt@@V?$allocator@VZenith_TransformComponent@@@std@@X@entt@@UEBA_KXZ 0000000140081c30 f i Zenith_ColliderComponent.obj
 0001:00080c50       ?deallocate@?$allocator@V?$Flags@W4DescriptorBindingFlagBits@vk@@@vk@@@std@@QEAAXQEAV?$Flags@W4DescriptorBindingFlagBits@vk@@@vk@@_K@Z 0000000140081c50 f i Zenith_Vulkan_Pipeline.obj
 0001:00080c50       ?deallocate@?$allocator@W4PresentModeKHR@vk@@@std@@QEAAXQEAW4PresentModeKHR@vk@@_K@Z 0000000140081c50 f i Zenith_Vulkan_Swapchain.obj
 0001:00080c50       ?deallocate@?$allocator@W4entity@entt@@@std@@QEAAXQEAW4entity@entt@@_K@Z 0000000140081c50 f i Zenith_ColliderComponent.obj
 0001:00080ca0       ?get_at@?$basic_storage@VZenith_TerrainComponent@@W4entity@entt@@V?$allocator@VZenith_TerrainComponent@@@std@@X@entt@@EEBAPEBX_K@Z 0000000140081ca0 f i Zenith_ColliderComponent.obj
 0001:00080cc0       ?get_at@?$basic_storage@VZenith_TransformComponent@@W4entity@entt@@V?$allocator@VZenith_TransformComponent@@@std@@X@entt@@EEBAPEBX_K@Z 0000000140081cc0 f i Zenith_ColliderComponent.obj
 0001:00080ce0       ?pop@?$basic_sigh_mixin@V?$basic_storage@VZenith_TerrainComponent@@W4entity@entt@@V?$allocator@VZenith_TerrainComponent@@@std@@X@entt@@V?$basic_registry@W4entity@entt@@V?$allocator@W4entity@entt@@@std@@@2@@entt@@EEAAXU?$sparse_set_iterator@V?$vector@W4entity@entt@@V?$allocator@W4entity@entt@@@std@@@std@@@internal@2@0@Z 0000000140081ce0 f i Zenith_ColliderComponent.obj
 0001:00081100       ?pop@?$basic_sigh_mixin@V?$basic_storage@VZenith_TransformComponent@@W4entity@entt@@V?$allocator@VZenith_TransformComponent@@@std@@X@entt@@V?$basic_registry@W4entity@entt@@V?$allocator@W4entity@entt@@@std@@@2@@entt@@EEAAXU?$sparse_set_iterator@V?$vector@W4entity@entt@@V?$allocator@W4entity@entt@@@std@@@std@@@internal@2@0@Z 0000000140082100 f i Zenith_ColliderComponent.obj
 0001:00081520       ?pop@?$basic_sparse_set@W4entity@entt@@V?$allocator@W4entity@entt@@@std@@@entt@@MEAAXU?$sparse_set_iterator@V?$vector@W4entity@entt@@V?$allocator@W4entity@entt@@@std@@@std@@@internal@2@0@Z 0000000140082520 f i Zenith_ColliderComponent.obj
 0001:00081810       ?pop@?$basic_storage@VZenith_TerrainComponent@@W4entity@entt@@V?$allocator@VZenith_TerrainComponent@@@std@@X@entt@@MEAAXU?$sparse_set_iterator@V?$vector@W4entity@entt@@V?$allocator@W4entity@entt@@@std@@@std@@@internal@2@0@Z 0000000140082810 f i Zenith_ColliderComponent.obj
 0001:00081a40       ?pop@?$basic_storage@VZenith_TransformComponent@@W4entity@entt@@V?$allocator@VZenith_TransformComponent@@@std@@X@entt@@MEAAXU?$sparse_set_iterator@V?$vector@W4entity@entt@@V?$allocator@W4entity@entt@@@std@@@std@@@internal@2@0@Z 0000000140082a40 f i Zenith_ColliderComponent.obj
 0001:00081c70       ?pop_all@?$basic_sigh_mixin@V?$basic_storage@VZenith_TerrainComponent@@W4entity@entt@@V?$allocator@VZenith_TerrainComponent@@@std@@X@entt@@V?$basic_registry@W4entity@entt@@V?$allocator@W4entity@entt@@@std@@@2@@entt@@EEAAXXZ 0000000140082c70 f i Zenith_ColliderComponent.obj
 0001:00081da0       ?pop_all@?$basic_sigh_mixin@V?$basic_storage@VZenith_TransformComponent@@W4entity@entt@@V?$allocator@VZenith_TransformComponent@@@std@@X@entt@@V?$basic_registry@W4entity@entt@@V?$allocator@W4entity@entt@@@std@@@2@@entt@@EEAAXXZ 0000000140082da0 f i Zenith_ColliderComponent.obj
 0001:00081f90       ?pop_all@?$basic_sparse_set@W4entity@entt@@V?$allocator@W4entity@entt@@@std@@@entt@@MEAAXXZ 0000000140082f90 f i Zenith_ColliderComponent.obj
 0001:000820a0       ?pop_all@?$basic_storage@VZenith_TerrainComponent@@W4entity@entt@@V?$allocator@VZenith_TerrainComponent@@@std@@X@entt@@MEAAXXZ 00000001400830a0 f i Zenith_ColliderComponent.obj
 0001:000822b0       ?pop_all@?$basic_storage@VZenith_TransformComponent@@W4entity@entt@@V?$allocator@VZenith_TransformComponent@@@std@@X@entt@@MEAAXXZ 00000001400832b0 f i Zenith_ColliderComponent.obj
 0001:000823a0       ?publish@?$sigh@$$A6AXAEAV?$basic_registry@W4entity@entt@@V?$allocator@W4entity@entt@@@std@@@entt@@W4entity@2@@ZV?$allocator@VZenith_CameraComponent@@@std@@@entt@@QEBAXAEAV?$basic_registry@W4entity@entt@@V?$allocator@W4entity@entt@@@std@@@2@W4entity@2@@Z 00000001400833a0 f i Zenith_Scene.obj
 0001:000823a0       ?publish@?$sigh@$$A6AXAEAV?$basic_registry@W4entity@entt@@V?$allocator@W4entity@entt@@@std@@@entt@@W4entity@2@@ZV?$allocator@VZenith_ColliderComponent@@@std@@@entt@@QEBAXAEAV?$basic_registry@W4entity@entt@@V?$allocator@W4entity@entt@@@std@@@2@W4entity@2@@Z 00000001400833a0 f i PlayerController_Behaviour.obj
 0001:000823a0       ?publish@?$sigh@$$A6AXAEAV?$basic_registry@W4entity@entt@@V?$allocator@W4entity@entt@@@std@@@entt@@W4entity@2@@ZV?$allocator@VZenith_ModelComponent@@@std@@@entt@@QEBAXAEAV?$basic_registry@W4entity@entt@@V?$allocator@W4entity@entt@@@std@@@2@W4entity@2@@Z 00000001400833a0 f i Flux_AnimatedMeshes.obj
 0001:000823a0       ?publish@?$sigh@$$A6AXAEAV?$basic_registry@W4entity@entt@@V?$allocator@W4entity@entt@@@std@@@entt@@W4entity@2@@ZV?$allocator@VZenith_ScriptComponent@@@std@@@entt@@QEBAXAEAV?$basic_registry@W4entity@entt@@V?$allocator@W4entity@entt@@@std@@@2@W4entity@2@@Z 00000001400833a0 f i Zenith_Scene.obj
 0001:000823a0       ?publish@?$sigh@$$A6AXAEAV?$basic_registry@W4entity@entt@@V?$allocator@W4entity@entt@@@std@@@entt@@W4entity@2@@ZV?$allocator@VZenith_TerrainComponent@@@std@@@entt@@QEBAXAEAV?$basic_registry@W4entity@entt@@V?$allocator@W4entity@entt@@@std@@@2@W4entity@2@@Z 00000001400833a0 f i Test_State_InGame.obj
 0001:000823a0       ?publish@?$sigh@$$A6AXAEAV?$basic_registry@W4entity@entt@@V?$allocator@W4entity@entt@@@std@@@entt@@W4entity@2@@ZV?$allocator@VZenith_TextComponent@@@std@@@entt@@QEBAXAEAV?$basic_registry@W4entity@entt@@V?$allocator@W4entity@entt@@@std@@@2@W4entity@2@@Z 00000001400833a0 f i Flux_Text.obj
 0001:000823a0       ?publish@?$sigh@$$A6AXAEAV?$basic_registry@W4entity@entt@@V?$allocator@W4entity@entt@@@std@@@entt@@W4entity@2@@ZV?$allocator@VZenith_TransformComponent@@@std@@@entt@@QEBAXAEAV?$basic_registry@W4entity@entt@@V?$allocator@W4entity@entt@@@std@@@2@W4entity@2@@Z 00000001400833a0 f i Zenith_ColliderComponent.obj
 0001:000823a0       ?publish@?$sigh@$$A6AXAEAV?$basic_registry@W4entity@entt@@V?$allocator@W4entity@entt@@@std@@@entt@@W4entity@2@@ZV?$allocator@W4entity@entt@@@std@@@entt@@QEBAXAEAV?$basic_registry@W4entity@entt@@V?$allocator@W4entity@entt@@@std@@@2@W4entity@2@@Z 00000001400833a0 f i Zenith_Scene.obj
 0001:00082420       ?rebind@?$basic_registry@W4entity@entt@@V?$allocator@W4entity@entt@@@std@@@entt@@AEAAXXZ 0000000140083420 f i Zenith_ColliderComponent.obj
 0001:000825c0       ?release_sparse_pages@?$basic_sparse_set@W4entity@entt@@V?$allocator@W4entity@entt@@@std@@@entt@@AEAAXXZ 00000001400835c0 f i Zenith_ColliderComponent.obj
 0001:00082630       ?reserve@?$basic_sparse_set@W4entity@entt@@V?$allocator@W4entity@entt@@@std@@@entt@@UEAAX_K@Z 0000000140083630 f i Zenith_ColliderComponent.obj
 0001:00082680       ?reserve@?$basic_storage@VZenith_TerrainComponent@@W4entity@entt@@V?$allocator@VZenith_TerrainComponent@@@std@@X@entt@@UEAAX_K@Z 0000000140083680 f i Zenith_ColliderComponent.obj
 0001:000826f0       ?reserve@?$basic_storage@VZenith_TransformComponent@@W4entity@entt@@V?$allocator@VZenith_TransformComponent@@@std@@X@entt@@UEAAX_K@Z 00000001400836f0 f i Zenith_ColliderComponent.obj
 0001:00082760       ?resize@?$vector@PEAVZenith_CameraComponent@@V?$allocator@PEAVZenith_CameraComponent@@@std@@@std@@QEAAX_K@Z 0000000140083760 f i Zenith_Scene.obj
 0001:00082760       ?resize@?$vector@PEAVZenith_ColliderComponent@@V?$allocator@PEAVZenith_ColliderComponent@@@std@@@std@@QEAAX_K@Z 0000000140083760 f i PlayerController_Behaviour.obj
 0001:00082760       ?resize@?$vector@PEAVZenith_ModelComponent@@V?$allocator@PEAVZenith_ModelComponent@@@std@@@std@@QEAAX_K@Z 0000000140083760 f i Flux_AnimatedMeshes.obj
 0001:00082760       ?resize@?$vector@PEAVZenith_ScriptComponent@@V?$allocator@PEAVZenith_ScriptComponent@@@std@@@std@@QEAAX_K@Z 0000000140083760 f i Zenith_Scene.obj
 0001:00082760       ?resize@?$vector@PEAVZenith_TerrainComponent@@V?$allocator@PEAVZenith_TerrainComponent@@@std@@@std@@QEAAX_K@Z 0000000140083760 f i Zenith_ColliderComponent.obj
 0001:00082760       ?resize@?$vector@PEAVZenith_TextComponent@@V?$allocator@PEAVZenith_TextComponent@@@std@@@std@@QEAAX_K@Z 0000000140083760 f i Flux_Text.obj
 0001:00082760       ?resize@?$vector@PEAVZenith_TransformComponent@@V?$allocator@PEAVZenith_TransformComponent@@@std@@@std@@QEAAX_K@Z 0000000140083760 f i Zenith_ColliderComponent.obj
 0001:00082800       ?resize@?$vector@_KV?$allocator@_K@std@@@std@@QEAAX_K@Z 0000000140083800 f i Zenith_ColliderComponent.obj
 0001:000828a0       ?shrink_to_fit@?$basic_sparse_set@W4entity@entt@@V?$allocator@W4entity@entt@@@std@@@entt@@UEAAXXZ 00000001400838a0 f i Zenith_ColliderComponent.obj
 0001:000828e0       ?shrink_to_fit@?$basic_storage@VZenith_TerrainComponent@@W4entity@entt@@V?$allocator@VZenith_TerrainComponent@@@std@@X@entt@@UEAAXXZ 00000001400838e0 f i Zenith_ColliderComponent.obj
 0001:00082940       ?shrink_to_fit@?$basic_storage@VZenith_TransformComponent@@W4entity@entt@@V?$allocator@VZenith_TransformComponent@@@std@@X@entt@@UEAAXXZ 0000000140083940 f i Zenith_ColliderComponent.obj
 0001:000829a0       ?shrink_to_size@?$basic_storage@VZenith_TerrainComponent@@W4entity@entt@@V?$allocator@VZenith_TerrainComponent@@@std@@X@entt@@AEAAX_K@Z 00000001400839a0 f i Zenith_ColliderComponent.obj
 0001:00082bd0       ?shrink_to_size@?$basic_storage@VZenith_TransformComponent@@W4entity@entt@@V?$allocator@VZenith_TransformComponent@@@std@@X@entt@@AEAAX_K@Z 0000000140083bd0 f i Zenith_ColliderComponent.obj
 0001:00082ca0       ?swap_or_move@?$basic_storage@VZenith_TransformComponent@@W4entity@entt@@V?$allocator@VZenith_TransformComponent@@@std@@X@entt@@EEAAX_K0@Z 0000000140083ca0 f i Zenith_ColliderComponent.obj
 0001:00082db0       ?try_emplace@?$basic_sigh_mixin@V?$basic_storage@VZenith_TerrainComponent@@W4entity@entt@@V?$allocator@VZenith_TerrainComponent@@@std@@X@entt@@V?$basic_registry@W4entity@entt@@V?$allocator@W4entity@entt@@@std@@@2@@entt@@EEAA?AU?$sparse_set_iterator@V?$vector@W4entity@entt@@V?$allocator@W4entity@entt@@@std@@@std@@@internal@2@W4entity@2@_NPEBX@Z 0000000140083db0 f i Zenith_ColliderComponent.obj
 0001:00082db0       ?try_emplace@?$basic_storage@VZenith_TerrainComponent@@W4entity@entt@@V?$allocator@VZenith_TerrainComponent@@@std@@X@entt@@MEAA?AU?$sparse_set_iterator@V?$vector@W4entity@entt@@V?$allocator@W4entity@entt@@@std@@@std@@@internal@2@W4entity@2@_NPEBX@Z 0000000140083db0 f i Zenith_ColliderComponent.obj
 0001:00082dd0       ?try_emplace@?$basic_sigh_mixin@V?$basic_storage@VZenith_TransformComponent@@W4entity@entt@@V?$allocator@VZenith_TransformComponent@@@std@@X@entt@@V?$basic_registry@W4entity@entt@@V?$allocator@W4entity@entt@@@std@@@2@@entt@@EEAA?AU?$sparse_set_iterator@V?$vector@W4entity@entt@@V?$allocator@W4entity@entt@@@std@@@std@@@internal@2@W4entity@2@_NPEBX@Z 0000000140083dd0 f i Zenith_ColliderComponent.obj
 0001:00082e60       ?try_emplace@?$basic_sparse_set@W4entity@entt@@V?$allocator@W4entity@entt@@@std@@@entt@@MEAA?AU?$sparse_set_iterator@V?$vector@W4entity@entt@@V?$allocator@W4entity@entt@@@std@@@std@@@internal@2@W4entity@2@_NPEBX@Z 0000000140083e60 f i Zenith_ColliderComponent.obj
 0001:000830b0       ?try_emplace@?$basic_storage@VZenith_TransformComponent@@W4entity@entt@@V?$allocator@VZenith_TransformComponent@@@std@@X@entt@@MEAA?AU?$sparse_set_iterator@V?$vector@W4entity@entt@@V?$allocator@W4entity@entt@@@std@@@std@@@internal@2@W4entity@2@_NPEBX@Z 00000001400840b0 f i Zenith_ColliderComponent.obj
 0001:00083120       ?IsVisible@Zenith_TerrainComponent@@QEBA?B_NMAEBVZenith_CameraComponent@@@Z 0000000140084120 f   Zenith_TerrainComponent.obj
 0001:000831a0       ??$_Destroy_range@V?$allocator@UTextEntry@@@std@@@std@@YAXPEAUTextEntry@@QEAU1@AEAV?$allocator@UTextEntry@@@0@@Z 00000001400841a0 f i Zenith_TextComponent.obj
 0001:000831a0       ??$_Destroy_range@V?$allocator@UTextEntry_World@@@std@@@std@@YAXPEAUTextEntry_World@@QEAU1@AEAV?$allocator@UTextEntry_World@@@0@@Z 00000001400841a0 f i Zenith_TextComponent.obj
 0001:00083230       ??$_Emplace_reallocate@AEBUTextEntry@@@?$vector@UTextEntry@@V?$allocator@UTextEntry@@@std@@@std@@AEAAPEAUTextEntry@@QEAU2@AEBU2@@Z 0000000140084230 f i Zenith_TextComponent.obj
 0001:00083480       ??$_Uninitialized_move@PEAUTextEntry@@V?$allocator@UTextEntry@@@std@@@std@@YAPEAUTextEntry@@QEAU1@0PEAU1@AEAV?$allocator@UTextEntry@@@0@@Z 0000000140084480 f i Zenith_TextComponent.obj
 0001:00083510       ??0Zenith_TextComponent@@QEAA@AEAVZenith_Entity@@@Z 0000000140084510 f   Zenith_TextComponent.obj
 0001:00083580       ?AddText@Zenith_TextComponent@@QEAAXAEAUTextEntry@@@Z 0000000140084580 f   Zenith_TextComponent.obj
 0001:000835f0       ?deallocate@?$allocator@UTextEntry@@@std@@QEAAXQEAUTextEntry@@_K@Z 00000001400845f0 f i Zenith_TextComponent.obj
 0001:00083640       ??$scale@M$0A@@glm@@YA?AU?$mat@$03$03M$0A@@0@AEBU10@AEBU?$vec@$02M$0A@@0@@Z 0000000140084640 f i Zenith_TransformComponent.obj
 0001:00083760       ??0Zenith_TransformComponent@@QEAA@AEBV?$basic_string@DU?$char_traits@D@std@@V?$allocator@D@2@@std@@AEAVZenith_Entity@@@Z 0000000140084760 f   Zenith_TransformComponent.obj
 0001:00083800       ??1Zenith_TransformComponent@@QEAA@XZ 0000000140084800 f   Zenith_TransformComponent.obj
 0001:00083870       ?BuildModelMatrix@Zenith_TransformComponent@@QEAAXAEAU?$mat@$03$03M$0A@@glm@@@Z 0000000140084870 f   Zenith_TransformComponent.obj
 0001:00083d60       ?GetPosition@Zenith_TransformComponent@@QEAAXAEAU?$vec@$02M$0A@@glm@@@Z 0000000140084d60 f   Zenith_TransformComponent.obj
 0001:00083dc0       ?GetTransform_Unsafe@Zenith_TransformComponent@@AEAAAEAVTransform@reactphysics3d@@XZ 0000000140084dc0 f   Zenith_TransformComponent.obj
 0001:00083dd0       ?SetPosition@Zenith_TransformComponent@@QEAAXU?$vec@$02M$0A@@glm@@@Z 0000000140084dd0 f   Zenith_TransformComponent.obj
 0001:00083e70       ?SetRotation@Zenith_TransformComponent@@QEAAXU?$qua@M$0A@@glm@@@Z 0000000140084e70 f   Zenith_TransformComponent.obj
 0001:00083f30       ?SetScale@Zenith_TransformComponent@@QEAAXU?$vec@$02M$0A@@glm@@@Z 0000000140084f30 f   Zenith_TransformComponent.obj
 0001:00083f40       ??$AddComponent@VZenith_TransformComponent@@AEBV?$basic_string@DU?$char_traits@D@std@@V?$allocator@D@2@@std@@@Zenith_Entity@@QEAAAEAVZenith_TransformComponent@@AEBV?$basic_string@DU?$char_traits@D@std@@V?$allocator@D@2@@std@@@Z 0000000140084f40 f i Zenith_Entity.obj
 0001:000840e0       ??$emplace@U?$pair@$$CB_KVZenith_Entity@@@std@@@?$_Hash@V?$_Umap_traits@_KVZenith_Entity@@V?$_Uhash_compare@_KU?$hash@_K@std@@U?$equal_to@_K@2@@std@@V?$allocator@U?$pair@$$CB_KVZenith_Entity@@@std@@@3@$0A@@std@@@std@@QEAA?AU?$pair@V?$_List_iterator@V?$_List_val@U?$_List_simple_types@U?$pair@$$CB_KVZenith_Entity@@@std@@@std@@@std@@@std@@_N@1@$$QEAU?$pair@$$CB_KVZenith_Entity@@@1@@Z 00000001400850e0 f i Zenith_Entity.obj
 0001:00084440       ?Initialise@Zenith_Entity@@QEAAXPEAVZenith_Scene@@AEBV?$basic_string@DU?$char_traits@D@std@@V?$allocator@D@2@@std@@@Z 0000000140085440 f   Zenith_Entity.obj
 0001:00084520       ?_Forced_rehash@?$_Hash@V?$_Umap_traits@_KVZenith_Entity@@V?$_Uhash_compare@_KU?$hash@_K@std@@U?$equal_to@_K@2@@std@@V?$allocator@U?$pair@$$CB_KVZenith_Entity@@@std@@@3@$0A@@std@@@std@@IEAAX_K@Z 0000000140085520 f i Zenith_Entity.obj
 0001:00084810       ?create@?$basic_registry@W4entity@entt@@V?$allocator@W4entity@entt@@@std@@@entt@@QEAA?AW4entity@2@XZ 0000000140085810 f i Zenith_Entity.obj
 0001:000848e0       ??$GetComponentFromEntity@VZenith_CameraComponent@@@Zenith_Scene@@QEAAAEAVZenith_CameraComponent@@W4entity@entt@@@Z 00000001400858e0 f i Zenith_Scene.obj
 0001:00084a10       ??$_Allocate_at_least_helper@V?$allocator@U?$dense_map_node@IV?$shared_ptr@V?$basic_sparse_set@W4entity@entt@@V?$allocator@W4entity@entt@@@std@@@entt@@@std@@@internal@entt@@@std@@@std@@YAPEAU?$dense_map_node@IV?$shared_ptr@V?$basic_sparse_set@W4entity@entt@@V?$allocator@W4entity@entt@@@std@@@entt@@@std@@@internal@entt@@AEAV?$allocator@U?$dense_map_node@IV?$shared_ptr@V?$basic_sparse_set@W4entity@entt@@V?$allocator@W4entity@entt@@@std@@@entt@@@std@@@internal@entt@@@0@AEA_K@Z 0000000140085a10 f i Zenith_Scene.obj
 0001:00084a80       ??$_Emplace_reallocate@PEAVZenith_ModelComponent@@@?$vector@PEAVZenith_ModelComponent@@V?$allocator@PEAVZenith_ModelComponent@@@std@@@std@@AEAAPEAPEAVZenith_ModelComponent@@QEAPEAV2@$$QEAPEAV2@@Z 0000000140085a80 f i Flux_AnimatedMeshes.obj
 0001:00084a80       ??$_Emplace_reallocate@PEAVZenith_ScriptComponent@@@?$vector@PEAVZenith_ScriptComponent@@V?$allocator@PEAVZenith_ScriptComponent@@@std@@@std@@AEAAPEAPEAVZenith_ScriptComponent@@QEAPEAV2@$$QEAPEAV2@@Z 0000000140085a80 f i Zenith_Scene.obj
 0001:00084a80       ??$_Emplace_reallocate@PEAVZenith_TerrainComponent@@@?$vector@PEAVZenith_TerrainComponent@@V?$allocator@PEAVZenith_TerrainComponent@@@std@@@std@@AEAAPEAPEAVZenith_TerrainComponent@@QEAPEAV2@$$QEAPEAV2@@Z 0000000140085a80 f i Flux_Terrain.obj
 0001:00084a80       ??$_Emplace_reallocate@PEAVZenith_TextComponent@@@?$vector@PEAVZenith_TextComponent@@V?$allocator@PEAVZenith_TextComponent@@@std@@@std@@AEAAPEAPEAVZenith_TextComponent@@QEAPEAV2@$$QEAPEAV2@@Z 0000000140085a80 f i Flux_Text.obj
 0001:00084be0       ??$_Insert_range_unchecked@PEBU?$pair@$$CBV?$basic_string@DU?$char_traits@D@std@@V?$allocator@D@2@@std@@W4ComponentType@@@std@@PEBU12@@?$_Hash@V?$_Umap_traits@V?$basic_string@DU?$char_traits@D@std@@V?$allocator@D@2@@std@@W4ComponentType@@V?$_Uhash_compare@V?$basic_string@DU?$char_traits@D@std@@V?$allocator@D@2@@std@@U?$hash@V?$basic_string@DU?$char_traits@D@std@@V?$allocator@D@2@@std@@@2@U?$equal_to@V?$basic_string@DU?$char_traits@D@std@@V?$allocator@D@2@@std@@@2@@2@V?$allocator@U?$pair@$$CBV?$basic_string@DU?$char_traits@D@std@@V?$allocator@D@2@@std@@W4ComponentType@@@std@@@2@$0A@@std@@@std@@IEAAXPEBU?$pair@$$CBV?$basic_string@DU?$char_traits@D@std@@V?$allocator@D@2@@std@@W4ComponentType@@@1@QEBU21@@Z 0000000140085be0 f i Zenith_Scene.obj
 0001:00084be0       ??$_Insert_range_unchecked@PEBU?$pair@$$CBV?$basic_string@DU?$char_traits@D@std@@V?$allocator@D@2@@std@@W4ScriptBehaviourType@@@std@@PEBU12@@?$_Hash@V?$_Umap_traits@V?$basic_string@DU?$char_traits@D@std@@V?$allocator@D@2@@std@@W4ScriptBehaviourType@@V?$_Uhash_compare@V?$basic_string@DU?$char_traits@D@std@@V?$allocator@D@2@@std@@U?$hash@V?$basic_string@DU?$char_traits@D@std@@V?$allocator@D@2@@std@@@2@U?$equal_to@V?$basic_string@DU?$char_traits@D@std@@V?$allocator@D@2@@std@@@2@@2@V?$allocator@U?$pair@$$CBV?$basic_string@DU?$char_traits@D@std@@V?$allocator@D@2@@std@@W4ScriptBehaviourType@@@std@@@2@$0A@@std@@@std@@IEAAXPEBU?$pair@$$CBV?$basic_string@DU?$char_traits@D@std@@V?$allocator@D@2@@std@@W4ScriptBehaviourType@@@1@QEBU21@@Z 0000000140085be0 f i Zenith_Scene.obj
 0001:00084f30       ??$_Reallocate@$0A@@?$vector@U?$dense_map_node@IV?$shared_ptr@V?$basic_sparse_set@W4entity@entt@@V?$allocator@W4entity@entt@@@std@@@entt@@@std@@@internal@entt@@V?$allocator@U?$dense_map_node@IV?$shared_ptr@V?$basic_sparse_set@W4entity@entt@@V?$allocator@W4entity@entt@@@std@@@entt@@@std@@@internal@entt@@@std@@@std@@AEAAXAEA_K@Z 0000000140085f30 f i Zenith_Scene.obj
 0001:00084ff0       ??$assure@VZenith_CameraComponent@@@?$basic_registry@W4entity@entt@@V?$allocator@W4entity@entt@@@std@@@entt@@AEAAAEA_PI@Z 0000000140085ff0 f i Zenith_Scene.obj
 0001:00085240       ??$assure@VZenith_ScriptComponent@@@?$basic_registry@W4entity@entt@@V?$allocator@W4entity@entt@@@std@@@entt@@AEAAAEA_PI@Z 0000000140086240 f i Zenith_Scene.obj
 0001:00085490       ??$type_id@X@entt@@YAAEBUtype_info@0@XZ 0000000140086490 f i Zenith_Scene.obj
 0001:00085560       ??0?$basic_registry@W4entity@entt@@V?$allocator@W4entity@entt@@@std@@@entt@@QEAA@_KAEBV?$allocator@W4entity@entt@@@std@@@Z 0000000140086560 f i Zenith_Scene.obj
 0001:00085910       ??0?$unordered_map@_KVZenith_Entity@@U?$hash@_K@std@@U?$equal_to@_K@3@V?$allocator@U?$pair@$$CB_KVZenith_Entity@@@std@@@3@@std@@QEAA@XZ 0000000140086910 f i Zenith_Scene.obj
 0001:00085a30       ??0Zenith_CameraComponent@@QEAA@AEBV0@@Z 0000000140086a30 f i Zenith_Scene.obj
 0001:00085ae0       ??1?$_Hash@V?$_Umap_traits@_KVZenith_Entity@@V?$_Uhash_compare@_KU?$hash@_K@std@@U?$equal_to@_K@2@@std@@V?$allocator@U?$pair@$$CB_KVZenith_Entity@@@std@@@3@$0A@@std@@@std@@QEAA@XZ 0000000140086ae0 f i Zenith_Scene.obj
 0001:00085b50       ??1?$basic_sigh_mixin@V?$basic_storage@W4entity@entt@@W412@V?$allocator@W4entity@entt@@@std@@X@entt@@V?$basic_registry@W4entity@entt@@V?$allocator@W4entity@entt@@@std@@@2@@entt@@UEAA@XZ 0000000140086b50 f i Zenith_Scene.obj
 0001:00085c60       ??1?$basic_storage@VZenith_CameraComponent@@W4entity@entt@@V?$allocator@VZenith_CameraComponent@@@std@@X@entt@@UEAA@XZ 0000000140086c60 f i Zenith_Scene.obj
 0001:00085ce0       ??1?$basic_storage@VZenith_ScriptComponent@@W4entity@entt@@V?$allocator@VZenith_ScriptComponent@@@std@@X@entt@@UEAA@XZ 0000000140086ce0 f i Zenith_Scene.obj
 0001:00085d60       ??1?$dense_map@IV?$basic_any@$0A@$07@entt@@Uidentity@2@U?$equal_to@I@std@@V?$allocator@U?$pair@$$CBIV?$basic_any@$0A@$07@entt@@@std@@@5@@entt@@QEAA@XZ 0000000140086d60 f i Zenith_Scene.obj
 0001:00085dd0       ??1?$dense_map@IV?$shared_ptr@Ugroup_descriptor@internal@entt@@@std@@Uidentity@entt@@U?$equal_to@I@2@V?$allocator@U?$pair@$$CBIV?$shared_ptr@Ugroup_descriptor@internal@entt@@@std@@@std@@@2@@entt@@QEAA@XZ 0000000140086dd0 f i Zenith_Scene.obj
 0001:00085e40       ??1?$dense_map@IV?$shared_ptr@V?$basic_sparse_set@W4entity@entt@@V?$allocator@W4entity@entt@@@std@@@entt@@@std@@Uidentity@entt@@U?$equal_to@I@2@V?$allocator@U?$pair@$$CBIV?$shared_ptr@V?$basic_sparse_set@W4entity@entt@@V?$allocator@W4entity@entt@@@std@@@entt@@@std@@@std@@@2@@entt@@QEAA@XZ 0000000140086e40 f i Zenith_Scene.obj
 0001:00085eb0       ??1?$list@U?$pair@$$CB_KVZenith_Entity@@@std@@V?$allocator@U?$pair@$$CB_KVZenith_Entity@@@std@@@2@@std@@QEAA@XZ 0000000140086eb0 f i Zenith_Scene.obj
 0001:00085f20       ??4Zenith_CameraComponent@@QEAAAEAV0@AEBV0@@Z 0000000140086f20 f i Zenith_Scene.obj
 0001:00085ff0       ??4Zenith_ScriptComponent@@QEAAAEAV0@AEBV0@@Z 0000000140086ff0 f i Zenith_Scene.obj
 0001:00086060       ??_E?$_Ref_count_obj_alloc3@V?$basic_sigh_mixin@V?$basic_storage@VZenith_CameraComponent@@W4entity@entt@@V?$allocator@VZenith_CameraComponent@@@std@@X@entt@@V?$basic_registry@W4entity@entt@@V?$allocator@W4entity@entt@@@std@@@2@@entt@@V?$allocator@W4entity@entt@@@std@@@std@@EEAAPEAXI@Z 0000000140087060 f i Zenith_Scene.obj
 0001:00086060       ??_G?$_Ref_count_obj_alloc3@V?$basic_sigh_mixin@V?$basic_storage@VZenith_CameraComponent@@W4entity@entt@@V?$allocator@VZenith_CameraComponent@@@std@@X@entt@@V?$basic_registry@W4entity@entt@@V?$allocator@W4entity@entt@@@std@@@2@@entt@@V?$allocator@W4entity@entt@@@std@@@std@@EEAAPEAXI@Z 0000000140087060 f i Zenith_Scene.obj
 0001:00086090       ??_E?$_Ref_count_obj_alloc3@V?$basic_sigh_mixin@V?$basic_storage@VZenith_ScriptComponent@@W4entity@entt@@V?$allocator@VZenith_ScriptComponent@@@std@@X@entt@@V?$basic_registry@W4entity@entt@@V?$allocator@W4entity@entt@@@std@@@2@@entt@@V?$allocator@W4entity@entt@@@std@@@std@@EEAAPEAXI@Z 0000000140087090 f i Zenith_Scene.obj
 0001:00086090       ??_G?$_Ref_count_obj_alloc3@V?$basic_sigh_mixin@V?$basic_storage@VZenith_ScriptComponent@@W4entity@entt@@V?$allocator@VZenith_ScriptComponent@@@std@@X@entt@@V?$basic_registry@W4entity@entt@@V?$allocator@W4entity@entt@@@std@@@2@@entt@@V?$allocator@W4entity@entt@@@std@@@std@@EEAAPEAXI@Z 0000000140087090 f i Zenith_Scene.obj
 0001:000860c0       ??_E?$basic_sigh_mixin@V?$basic_storage@VZenith_CameraComponent@@W4entity@entt@@V?$allocator@VZenith_CameraComponent@@@std@@X@entt@@V?$basic_registry@W4entity@entt@@V?$allocator@W4entity@entt@@@std@@@2@@entt@@UEAAPEAXI@Z 00000001400870c0 f i Zenith_Scene.obj
 0001:000860c0       ??_G?$basic_sigh_mixin@V?$basic_storage@VZenith_CameraComponent@@W4entity@entt@@V?$allocator@VZenith_CameraComponent@@@std@@X@entt@@V?$basic_registry@W4entity@entt@@V?$allocator@W4entity@entt@@@std@@@2@@entt@@UEAAPEAXI@Z 00000001400870c0 f i Zenith_Scene.obj
 0001:00086210       ??_E?$basic_sigh_mixin@V?$basic_storage@VZenith_ScriptComponent@@W4entity@entt@@V?$allocator@VZenith_ScriptComponent@@@std@@X@entt@@V?$basic_registry@W4entity@entt@@V?$allocator@W4entity@entt@@@std@@@2@@entt@@UEAAPEAXI@Z 0000000140087210 f i Zenith_Scene.obj
 0001:00086210       ??_G?$basic_sigh_mixin@V?$basic_storage@VZenith_ScriptComponent@@W4entity@entt@@V?$allocator@VZenith_ScriptComponent@@@std@@X@entt@@V?$basic_registry@W4entity@entt@@V?$allocator@W4entity@entt@@@std@@@2@@entt@@UEAAPEAXI@Z 0000000140087210 f i Zenith_Scene.obj
 0001:00086360       ??_E?$basic_sigh_mixin@V?$basic_storage@W4entity@entt@@W412@V?$allocator@W4entity@entt@@@std@@X@entt@@V?$basic_registry@W4entity@entt@@V?$allocator@W4entity@entt@@@std@@@2@@entt@@UEAAPEAXI@Z 0000000140087360 f i Zenith_Scene.obj
 0001:00086360       ??_G?$basic_sigh_mixin@V?$basic_storage@W4entity@entt@@W412@V?$allocator@W4entity@entt@@@std@@X@entt@@V?$basic_registry@W4entity@entt@@V?$allocator@W4entity@entt@@@std@@@2@@entt@@UEAAPEAXI@Z 0000000140087360 f i Zenith_Scene.obj
 0001:000863a0       ??_E?$basic_storage@VZenith_CameraComponent@@W4entity@entt@@V?$allocator@VZenith_CameraComponent@@@std@@X@entt@@UEAAPEAXI@Z 00000001400873a0 f i Zenith_Scene.obj
 0001:000863a0       ??_G?$basic_storage@VZenith_CameraComponent@@W4entity@entt@@V?$allocator@VZenith_CameraComponent@@@std@@X@entt@@UEAAPEAXI@Z 00000001400873a0 f i Zenith_Scene.obj
 0001:000863e0       ??_E?$basic_storage@VZenith_ScriptComponent@@W4entity@entt@@V?$allocator@VZenith_ScriptComponent@@@std@@X@entt@@UEAAPEAXI@Z 00000001400873e0 f i Zenith_Scene.obj
 0001:000863e0       ??_G?$basic_storage@VZenith_ScriptComponent@@W4entity@entt@@V?$allocator@VZenith_ScriptComponent@@@std@@X@entt@@UEAAPEAXI@Z 00000001400873e0 f i Zenith_Scene.obj
 0001:00086420       ?GetEntityByGUID@Zenith_Scene@@QEAA?AVZenith_Entity@@UZenith_GUID@@@Z 0000000140087420 f   Zenith_Scene.obj
 0001:00086550       ?GetMainCamera@Zenith_Scene@@QEAAAEAVZenith_CameraComponent@@XZ 0000000140087550 f   Zenith_Scene.obj
 0001:00086560       ?Reset@Zenith_Scene@@QEAAXXZ 0000000140087560 f   Zenith_Scene.obj
 0001:00086710       ?SetMainCameraEntity@Zenith_Scene@@QEAAXAEAVZenith_Entity@@@Z 0000000140087710 f   Zenith_Scene.obj
 0001:00086770       ?Update@Zenith_Scene@@QEAAXM@Z 0000000140087770 f   Zenith_Scene.obj
 0001:00086960       ?_Destroy@?$_Ref_count_obj_alloc3@V?$basic_sigh_mixin@V?$basic_storage@VZenith_CameraComponent@@W4entity@entt@@V?$allocator@VZenith_CameraComponent@@@std@@X@entt@@V?$basic_registry@W4entity@entt@@V?$allocator@W4entity@entt@@@std@@@2@@entt@@V?$allocator@W4entity@entt@@@std@@@std@@EEAAXXZ 0000000140087960 f i Zenith_Scene.obj
 0001:00086970       ?_Destroy@?$_Ref_count_obj_alloc3@V?$basic_sigh_mixin@V?$basic_storage@VZenith_ScriptComponent@@W4entity@entt@@V?$allocator@VZenith_ScriptComponent@@@std@@X@entt@@V?$basic_registry@W4entity@entt@@V?$allocator@W4entity@entt@@@std@@@2@@entt@@V?$allocator@W4entity@entt@@@std@@@std@@EEAAXXZ 0000000140087970 f i Zenith_Scene.obj
 0001:00086980       ?_Unchecked_erase@?$_Hash@V?$_Umap_traits@_KVZenith_Entity@@V?$_Uhash_compare@_KU?$hash@_K@std@@U?$equal_to@_K@2@@std@@V?$allocator@U?$pair@$$CB_KVZenith_Entity@@@std@@@3@$0A@@std@@@std@@AEAAPEAU?$_List_node@U?$pair@$$CB_KVZenith_Entity@@@std@@PEAX@2@PEAU32@QEAU32@@Z 0000000140087980 f i Zenith_Scene.obj
 0001:00086bf0       ?assure_at_least@?$basic_storage@VZenith_CameraComponent@@W4entity@entt@@V?$allocator@VZenith_CameraComponent@@@std@@X@entt@@AEAA@_K@Z 0000000140087bf0 f i Zenith_Scene.obj
 0001:00086d00       ?assure_at_least@?$basic_storage@VZenith_ScriptComponent@@W4entity@entt@@V?$allocator@VZenith_ScriptComponent@@@std@@X@entt@@AEAA@_K@Z 0000000140087d00 f i Zenith_Scene.obj
 0001:00086e10       ?bind@?$basic_sigh_mixin@V?$basic_storage@W4entity@entt@@W412@V?$allocator@W4entity@entt@@@std@@X@entt@@V?$basic_registry@W4entity@entt@@V?$allocator@W4entity@entt@@@std@@@2@@entt@@UEAAXV?$basic_any@$0BA@$07@2@@Z 0000000140087e10 f i Zenith_Scene.obj
 0001:00086ef0       ?emplace@?$basic_storage@W4entity@entt@@W412@V?$allocator@W4entity@entt@@@std@@X@entt@@QEAA?AW4entity@2@W432@@Z 0000000140087ef0 f i Zenith_Scene.obj
 0001:000871e0       ?find@?$basic_sparse_set@W4entity@entt@@V?$allocator@W4entity@entt@@@std@@@entt@@QEBA?AU?$sparse_set_iterator@V?$vector@W4entity@entt@@V?$allocator@W4entity@entt@@@std@@@std@@@internal@2@W4entity@2@@Z 00000001400881e0 f i Zenith_Scene.obj
 0001:000872c0       ?get_at@?$basic_storage@VZenith_CameraComponent@@W4entity@entt@@V?$allocator@VZenith_CameraComponent@@@std@@X@entt@@EEBAPEBX_K@Z 00000001400882c0 f i Zenith_Scene.obj
 0001:000872e0       ?get_at@?$basic_storage@VZenith_ScriptComponent@@W4entity@entt@@V?$allocator@VZenith_ScriptComponent@@@std@@X@entt@@EEBAPEBX_K@Z 00000001400882e0 f i Zenith_Scene.obj
 0001:00087300       ?pop@?$basic_sigh_mixin@V?$basic_storage@VZenith_CameraComponent@@W4entity@entt@@V?$allocator@VZenith_CameraComponent@@@std@@X@entt@@V?$basic_registry@W4entity@entt@@V?$allocator@W4entity@entt@@@std@@@2@@entt@@EEAAXU?$sparse_set_iterator@V?$vector@W4entity@entt@@V?$allocator@W4entity@entt@@@std@@@std@@@internal@2@0@Z 0000000140088300 f i Zenith_Scene.obj
 0001:000876a0       ?pop@?$basic_sigh_mixin@V?$basic_storage@VZenith_ScriptComponent@@W4entity@entt@@V?$allocator@VZenith_ScriptComponent@@@std@@X@entt@@V?$basic_registry@W4entity@entt@@V?$allocator@W4entity@entt@@@std@@@2@@entt@@EEAAXU?$sparse_set_iterator@V?$vector@W4entity@entt@@V?$allocator@W4entity@entt@@@std@@@std@@@internal@2@0@Z 00000001400886a0 f i Zenith_Scene.obj
 0001:00087ab0       ?pop@?$basic_sigh_mixin@V?$basic_storage@W4entity@entt@@W412@V?$allocator@W4entity@entt@@@std@@X@entt@@V?$basic_registry@W4entity@entt@@V?$allocator@W4entity@entt@@@std@@@2@@entt@@EEAAXU?$sparse_set_iterator@V?$vector@W4entity@entt@@V?$allocator@W4entity@entt@@@std@@@std@@@internal@2@0@Z 0000000140088ab0 f i Zenith_Scene.obj
 0001:00087cc0       ?pop@?$basic_storage@VZenith_CameraComponent@@W4entity@entt@@V?$allocator@VZenith_CameraComponent@@@std@@X@entt@@MEAAXU?$sparse_set_iterator@V?$vector@W4entity@entt@@V?$allocator@W4entity@entt@@@std@@@std@@@internal@2@0@Z 0000000140088cc0 f i Zenith_Scene.obj
 0001:00087e70       ?pop@?$basic_storage@VZenith_ScriptComponent@@W4entity@entt@@V?$allocator@VZenith_ScriptComponent@@@std@@X@entt@@MEAAXU?$sparse_set_iterator@V?$vector@W4entity@entt@@V?$allocator@W4entity@entt@@@std@@@std@@@internal@2@0@Z 0000000140088e70 f i Zenith_Scene.obj
 0001:00088070       ?pop_all@?$basic_sigh_mixin@V?$basic_storage@VZenith_CameraComponent@@W4entity@entt@@V?$allocator@VZenith_CameraComponent@@@std@@X@entt@@V?$basic_registry@W4entity@entt@@V?$allocator@W4entity@entt@@@std@@@2@@entt@@EEAAXXZ 0000000140089070 f i Zenith_Scene.obj
 0001:00088270       ?pop_all@?$basic_sigh_mixin@V?$basic_storage@VZenith_ScriptComponent@@W4entity@entt@@V?$allocator@VZenith_ScriptComponent@@@std@@X@entt@@V?$basic_registry@W4entity@entt@@V?$allocator@W4entity@entt@@@std@@@2@@entt@@EEAAXXZ 0000000140089270 f i Zenith_Scene.obj
 0001:00088460       ?pop_all@?$basic_sigh_mixin@V?$basic_storage@W4entity@entt@@W412@V?$allocator@W4entity@entt@@@std@@X@entt@@V?$basic_registry@W4entity@entt@@V?$allocator@W4entity@entt@@@std@@@2@@entt@@EEAAXXZ 0000000140089460 f i Zenith_Scene.obj
 0001:00088680       ?pop_all@?$basic_storage@VZenith_CameraComponent@@W4entity@entt@@V?$allocator@VZenith_CameraComponent@@@std@@X@entt@@MEAAXXZ 0000000140089680 f i Zenith_Scene.obj
 0001:00088770       ?pop_all@?$basic_storage@VZenith_ScriptComponent@@W4entity@entt@@V?$allocator@VZenith_ScriptComponent@@@std@@X@entt@@MEAAXXZ 0000000140089770 f i Zenith_Scene.obj
 0001:00088880       ?rehash@?$dense_map@IV?$shared_ptr@V?$basic_sparse_set@W4entity@entt@@V?$allocator@W4entity@entt@@@std@@@entt@@@std@@Uidentity@entt@@U?$equal_to@I@2@V?$allocator@U?$pair@$$CBIV?$shared_ptr@V?$basic_sparse_set@W4entity@entt@@V?$allocator@W4entity@entt@@@std@@@entt@@@std@@@std@@@2@@entt@@QEAAX_K@Z 0000000140089880 f i Zenith_Scene.obj
 0001:000889f0       ?reserve@?$basic_storage@VZenith_CameraComponent@@W4entity@entt@@V?$allocator@VZenith_CameraComponent@@@std@@X@entt@@UEAAX_K@Z 00000001400899f0 f i Zenith_Scene.obj
 0001:00088a60       ?reserve@?$basic_storage@VZenith_ScriptComponent@@W4entity@entt@@V?$allocator@VZenith_ScriptComponent@@@std@@X@entt@@UEAAX_K@Z 0000000140089a60 f i Zenith_Scene.obj
 0001:00088ad0       ?shrink_to_fit@?$basic_storage@VZenith_CameraComponent@@W4entity@entt@@V?$allocator@VZenith_CameraComponent@@@std@@X@entt@@UEAAXXZ 0000000140089ad0 f i Zenith_Scene.obj
 0001:00088b30       ?shrink_to_fit@?$basic_storage@VZenith_ScriptComponent@@W4entity@entt@@V?$allocator@VZenith_ScriptComponent@@@std@@X@entt@@UEAAXXZ 0000000140089b30 f i Zenith_Scene.obj
 0001:00088b90       ?shrink_to_size@?$basic_storage@VZenith_CameraComponent@@W4entity@entt@@V?$allocator@VZenith_CameraComponent@@@std@@X@entt@@AEAAX_K@Z 0000000140089b90 f i Zenith_Scene.obj
 0001:00088c70       ?shrink_to_size@?$basic_storage@VZenith_ScriptComponent@@W4entity@entt@@V?$allocator@VZenith_ScriptComponent@@@std@@X@entt@@AEAAX_K@Z 0000000140089c70 f i Zenith_Scene.obj
 0001:00088d70       ?swap_or_move@?$basic_storage@VZenith_CameraComponent@@W4entity@entt@@V?$allocator@VZenith_CameraComponent@@@std@@X@entt@@EEAAX_K0@Z 0000000140089d70 f i Zenith_Scene.obj
 0001:00088e00       ?swap_or_move@?$basic_storage@VZenith_ScriptComponent@@W4entity@entt@@V?$allocator@VZenith_ScriptComponent@@@std@@X@entt@@EEAAX_K0@Z 0000000140089e00 f i Zenith_Scene.obj
 0001:00088ed0       ?try_emplace@?$basic_sigh_mixin@V?$basic_storage@VZenith_CameraComponent@@W4entity@entt@@V?$allocator@VZenith_CameraComponent@@@std@@X@entt@@V?$basic_registry@W4entity@entt@@V?$allocator@W4entity@entt@@@std@@@2@@entt@@EEAA?AU?$sparse_set_iterator@V?$vector@W4entity@entt@@V?$allocator@W4entity@entt@@@std@@@std@@@internal@2@W4entity@2@_NPEBX@Z 0000000140089ed0 f i Zenith_Scene.obj
 0001:00088f60       ?try_emplace@?$basic_sigh_mixin@V?$basic_storage@VZenith_ScriptComponent@@W4entity@entt@@V?$allocator@VZenith_ScriptComponent@@@std@@X@entt@@V?$basic_registry@W4entity@entt@@V?$allocator@W4entity@entt@@@std@@@2@@entt@@EEAA?AU?$sparse_set_iterator@V?$vector@W4entity@entt@@V?$allocator@W4entity@entt@@@std@@@std@@@internal@2@W4entity@2@_NPEBX@Z 0000000140089f60 f i Zenith_Scene.obj
 0001:00089030       ?try_emplace@?$basic_sigh_mixin@V?$basic_storage@W4entity@entt@@W412@V?$allocator@W4entity@entt@@@std@@X@entt@@V?$basic_registry@W4entity@entt@@V?$allocator@W4entity@entt@@@std@@@2@@entt@@EEAA?AU?$sparse_set_iterator@V?$vector@W4entity@entt@@V?$allocator@W4entity@entt@@@std@@@std@@@internal@2@W4entity@2@_NPEBX@Z 000000014008a030 f i Zenith_Scene.obj
 0001:00089090       ?try_emplace@?$basic_storage@VZenith_CameraComponent@@W4entity@entt@@V?$allocator@VZenith_CameraComponent@@@std@@X@entt@@MEAA?AU?$sparse_set_iterator@V?$vector@W4entity@entt@@V?$allocator@W4entity@entt@@@std@@@std@@@internal@2@W4entity@2@_NPEBX@Z 000000014008a090 f i Zenith_Scene.obj
 0001:00089100       ?try_emplace@?$basic_storage@VZenith_ScriptComponent@@W4entity@entt@@V?$allocator@VZenith_ScriptComponent@@@std@@X@entt@@MEAA?AU?$sparse_set_iterator@V?$vector@W4entity@entt@@V?$allocator@W4entity@entt@@@std@@@std@@@internal@2@W4entity@2@_NPEBX@Z 000000014008a100 f i Zenith_Scene.obj
 0001:000891b0       ??$_Assign_counted_range@PEAUMeshEntry@Zenith_ModelComponent@@@?$vector@UMeshEntry@Zenith_ModelComponent@@V?$allocator@UMeshEntry@Zenith_ModelComponent@@@std@@@std@@AEAAXPEAUMeshEntry@Zenith_ModelComponent@@_K@Z 000000014008a1b0 f i Flux_AnimatedMeshes.obj
 0001:00089300       ??$_Emplace_reallocate@AEBU?$vec@$02M$0A@@glm@@@?$vector@U?$vec@$02M$0A@@glm@@V?$allocator@U?$vec@$02M$0A@@glm@@@std@@@std@@AEAAPEAU?$vec@$02M$0A@@glm@@QEAU23@AEBU23@@Z 000000014008a300 f i zenithtools:Zenith_Tools_TerrainExport.obj
 0001:00089300       ??$_Emplace_reallocate@AEBUVertexInputBindingDescription@vk@@@?$vector@UVertexInputBindingDescription@vk@@V?$allocator@UVertexInputBindingDescription@vk@@@std@@@std@@AEAAPEAUVertexInputBindingDescription@vk@@QEAU23@AEBU23@@Z 000000014008a300 f i Zenith_Vulkan_Pipeline.obj
 0001:00089300       ??$_Emplace_reallocate@UFlux_BlendState@@@?$vector@UFlux_BlendState@@V?$allocator@UFlux_BlendState@@@std@@@std@@AEAAPEAUFlux_BlendState@@QEAU2@$$QEAU2@@Z 000000014008a300 f i Flux_AnimatedMeshes.obj
 0001:00089300       ??$_Emplace_reallocate@UPushConstantRange@vk@@@?$vector@UPushConstantRange@vk@@V?$allocator@UPushConstantRange@vk@@@std@@@std@@AEAAPEAUPushConstantRange@vk@@QEAU23@$$QEAU23@@Z 000000014008a300 f i Zenith_Vulkan_Pipeline.obj
 0001:00089510       ??$_Emplace_reallocate@AEBUDeviceQueueCreateInfo@vk@@@?$vector@UDeviceQueueCreateInfo@vk@@V?$allocator@UDeviceQueueCreateInfo@vk@@@std@@@std@@AEAAPEAUDeviceQueueCreateInfo@vk@@QEAU23@AEBU23@@Z 000000014008a510 f i Zenith_Vulkan.obj
 0001:00089510       ??$_Emplace_reallocate@UFlux_BufferElement@@@?$vector@UFlux_BufferElement@@V?$allocator@UFlux_BufferElement@@@std@@@std@@AEAAPEAUFlux_BufferElement@@QEAU2@$$QEAU2@@Z 000000014008a510 f i Flux_AnimatedMeshes.obj
 0001:00089730       ??$assure@VZenith_ModelComponent@@@?$basic_registry@W4entity@entt@@V?$allocator@W4entity@entt@@@std@@@entt@@AEAAAEA_PI@Z 000000014008a730 f i Flux_AnimatedMeshes.obj
 0001:00089980       ??0?$vector@V?$basic_string@DU?$char_traits@D@std@@V?$allocator@D@2@@std@@V?$allocator@V?$basic_string@DU?$char_traits@D@std@@V?$allocator@D@2@@std@@@2@@std@@QEAA@V?$initializer_list@V?$basic_string@DU?$char_traits@D@std@@V?$allocator@D@2@@std@@@1@AEBV?$allocator@V?$basic_string@DU?$char_traits@D@std@@V?$allocator@D@2@@std@@@1@@Z 000000014008a980 f i Flux_AnimatedMeshes.obj
 0001:00089a20       ??0Flux_BufferLayout@@QEAA@AEBV0@@Z 000000014008aa20 f i Flux_AnimatedMeshes.obj
 0001:00089b60       ??0LeafNodeBase@Zenith_DebugVariableTree@@QEAA@XZ 000000014008ab60 f i Flux_AnimatedMeshes.obj
 0001:00089ca0       ??0Zenith_ModelComponent@@QEAA@AEBV0@@Z 000000014008aca0 f i Flux_AnimatedMeshes.obj
 0001:00089d70       ??1?$basic_storage@VZenith_ModelComponent@@W4entity@entt@@V?$allocator@VZenith_ModelComponent@@@std@@X@entt@@UEAA@XZ 000000014008ad70 f i Flux_AnimatedMeshes.obj
 0001:00089df0       ??1Zenith_ModelComponent@@QEAA@XZ 000000014008adf0 f i Flux_AnimatedMeshes.obj
 0001:00089e60       ??4Zenith_ModelComponent@@QEAAAEAV0@AEBV0@@Z 000000014008ae60 f i Flux_AnimatedMeshes.obj
 0001:00089ef0       ??_E?$LeafNode@$$CBVZenith_Vulkan_Texture@@@Zenith_DebugVariableTree@@UEAAPEAXI@Z 000000014008aef0 f i Flux_Graphics.obj
 0001:00089ef0       ??_E?$LeafNode@_N@Zenith_DebugVariableTree@@UEAAPEAXI@Z 000000014008aef0 f i Flux_AnimatedMeshes.obj
 0001:00089ef0       ??_EPfnLeafNode@Zenith_DebugVariableTree@@UEAAPEAXI@Z 000000014008aef0 f i Zenith_Main.obj
 0001:00089ef0       ??_G?$LeafNode@$$CBVZenith_Vulkan_Texture@@@Zenith_DebugVariableTree@@UEAAPEAXI@Z 000000014008aef0 f i Flux_Graphics.obj
 0001:00089ef0       ??_G?$LeafNode@_N@Zenith_DebugVariableTree@@UEAAPEAXI@Z 000000014008aef0 f i Flux_AnimatedMeshes.obj
 0001:00089ef0       ??_GPfnLeafNode@Zenith_DebugVariableTree@@UEAAPEAXI@Z 000000014008aef0 f i Zenith_Main.obj
 0001:00089f30       ??_E?$_Ref_count_obj_alloc3@V?$basic_sigh_mixin@V?$basic_storage@VZenith_ModelComponent@@W4entity@entt@@V?$allocator@VZenith_ModelComponent@@@std@@X@entt@@V?$basic_registry@W4entity@entt@@V?$allocator@W4entity@entt@@@std@@@2@@entt@@V?$allocator@W4entity@entt@@@std@@@std@@EEAAPEAXI@Z 000000014008af30 f i Flux_AnimatedMeshes.obj
 0001:00089f30       ??_G?$_Ref_count_obj_alloc3@V?$basic_sigh_mixin@V?$basic_storage@VZenith_ModelComponent@@W4entity@entt@@V?$allocator@VZenith_ModelComponent@@@std@@X@entt@@V?$basic_registry@W4entity@entt@@V?$allocator@W4entity@entt@@@std@@@2@@entt@@V?$allocator@W4entity@entt@@@std@@@std@@EEAAPEAXI@Z 000000014008af30 f i Flux_AnimatedMeshes.obj
 0001:00089f60       ??_E?$basic_sigh_mixin@V?$basic_storage@VZenith_ModelComponent@@W4entity@entt@@V?$allocator@VZenith_ModelComponent@@@std@@X@entt@@V?$basic_registry@W4entity@entt@@V?$allocator@W4entity@entt@@@std@@@2@@entt@@UEAAPEAXI@Z 000000014008af60 f i Flux_AnimatedMeshes.obj
 0001:00089f60       ??_G?$basic_sigh_mixin@V?$basic_storage@VZenith_ModelComponent@@W4entity@entt@@V?$allocator@VZenith_ModelComponent@@@std@@X@entt@@V?$basic_registry@W4entity@entt@@V?$allocator@W4entity@entt@@@std@@@2@@entt@@UEAAPEAXI@Z 000000014008af60 f i Flux_AnimatedMeshes.obj
 0001:0008a0b0       ??_E?$basic_storage@VZenith_ModelComponent@@W4entity@entt@@V?$allocator@VZenith_ModelComponent@@@std@@X@entt@@UEAAPEAXI@Z 000000014008b0b0 f i Flux_AnimatedMeshes.obj
 0001:0008a0b0       ??_G?$basic_storage@VZenith_ModelComponent@@W4entity@entt@@V?$allocator@VZenith_ModelComponent@@@std@@X@entt@@UEAAPEAXI@Z 000000014008b0b0 f i Flux_AnimatedMeshes.obj
 0001:0008a0f0       ??_ELeafNodeBase@Zenith_DebugVariableTree@@UEAAPEAXI@Z 000000014008b0f0 f i Flux_AnimatedMeshes.obj
 0001:0008a0f0       ??_GLeafNodeBase@Zenith_DebugVariableTree@@UEAAPEAXI@Z 000000014008b0f0 f i Flux_AnimatedMeshes.obj
 0001:0008a130       ?Initialise@Flux_AnimatedMeshes@@SAXXZ 000000014008b130 f   Flux_AnimatedMeshes.obj
 0001:0008acc0       ?Render@Flux_AnimatedMeshes@@SAXXZ 000000014008bcc0 f   Flux_AnimatedMeshes.obj
 0001:0008b240       ?_Buy_raw@?$vector@UMeshEntry@Zenith_ModelComponent@@V?$allocator@UMeshEntry@Zenith_ModelComponent@@@std@@@std@@AEAAX_K@Z 000000014008c240 f i Flux_AnimatedMeshes.obj
 0001:0008b2d0       ?_Destroy@?$_Ref_count_obj_alloc3@V?$basic_sigh_mixin@V?$basic_storage@VZenith_ModelComponent@@W4entity@entt@@V?$allocator@VZenith_ModelComponent@@@std@@X@entt@@V?$basic_registry@W4entity@entt@@V?$allocator@W4entity@entt@@@std@@@2@@entt@@V?$allocator@W4entity@entt@@@std@@@std@@EEAAXXZ 000000014008c2d0 f i Flux_AnimatedMeshes.obj
 0001:0008b2e0       ??1?$vector@UPushConstantRange@vk@@V?$allocator@UPushConstantRange@vk@@@std@@@std@@QEAA@XZ 000000014008c2e0 f i Zenith_Vulkan_Pipeline.obj
 0001:0008b2e0       ?_Tidy@?$vector@UFlux_BlendState@@V?$allocator@UFlux_BlendState@@@std@@@std@@AEAAXXZ 000000014008c2e0 f i Flux_AnimatedMeshes.obj
 0001:0008b360       ?assure_at_least@?$basic_storage@VZenith_ModelComponent@@W4entity@entt@@V?$allocator@VZenith_ModelComponent@@@std@@X@entt@@AEAA@_K@Z 000000014008c360 f i Flux_AnimatedMeshes.obj
 0001:0008b470       ?deallocate@?$allocator@U?$vec@$02M$0A@@glm@@@std@@QEAAXQEAU?$vec@$02M$0A@@glm@@_K@Z 000000014008c470 f i zenithtools:Zenith_Tools_TerrainExport.obj
 0001:0008b470       ?deallocate@?$allocator@UFlux_BlendState@@@std@@QEAAXQEAUFlux_BlendState@@_K@Z 000000014008c470 f i Flux_AnimatedMeshes.obj
 0001:0008b470       ?deallocate@?$allocator@UPushConstantRange@vk@@@std@@QEAAXQEAUPushConstantRange@vk@@_K@Z 000000014008c470 f i Zenith_Vulkan_Pipeline.obj
 0001:0008b470       ?deallocate@?$allocator@UVertexInputBindingDescription@vk@@@std@@QEAAXQEAUVertexInputBindingDescription@vk@@_K@Z 000000014008c470 f i Zenith_Vulkan_Pipeline.obj
 0001:0008b4c0       ?get_at@?$basic_storage@VZenith_ModelComponent@@W4entity@entt@@V?$allocator@VZenith_ModelComponent@@@std@@X@entt@@EEBAPEBX_K@Z 000000014008c4c0 f i Flux_AnimatedMeshes.obj
 0001:0008b4e0       ?pop@?$basic_sigh_mixin@V?$basic_storage@VZenith_ModelComponent@@W4entity@entt@@V?$allocator@VZenith_ModelComponent@@@std@@X@entt@@V?$basic_registry@W4entity@entt@@V?$allocator@W4entity@entt@@@std@@@2@@entt@@EEAAXU?$sparse_set_iterator@V?$vector@W4entity@entt@@V?$allocator@W4entity@entt@@@std@@@std@@@internal@2@0@Z 000000014008c4e0 f i Flux_AnimatedMeshes.obj
 0001:0008b8c0       ?pop@?$basic_storage@VZenith_ModelComponent@@W4entity@entt@@V?$allocator@VZenith_ModelComponent@@@std@@X@entt@@MEAAXU?$sparse_set_iterator@V?$vector@W4entity@entt@@V?$allocator@W4entity@entt@@@std@@@std@@@internal@2@0@Z 000000014008c8c0 f i Flux_AnimatedMeshes.obj
 0001:0008bab0       ?pop_all@?$basic_sigh_mixin@V?$basic_storage@VZenith_ModelComponent@@W4entity@entt@@V?$allocator@VZenith_ModelComponent@@@std@@X@entt@@V?$basic_registry@W4entity@entt@@V?$allocator@W4entity@entt@@@std@@@2@@entt@@EEAAXXZ 000000014008cab0 f i Flux_AnimatedMeshes.obj
 0001:0008bca0       ?pop_all@?$basic_storage@VZenith_ModelComponent@@W4entity@entt@@V?$allocator@VZenith_ModelComponent@@@std@@X@entt@@MEAAXXZ 000000014008cca0 f i Flux_AnimatedMeshes.obj
 0001:0008bd90       ?reserve@?$basic_storage@VZenith_ModelComponent@@W4entity@entt@@V?$allocator@VZenith_ModelComponent@@@std@@X@entt@@UEAAX_K@Z 000000014008cd90 f i Flux_AnimatedMeshes.obj
 0001:0008be00       ?shrink_to_fit@?$basic_storage@VZenith_ModelComponent@@W4entity@entt@@V?$allocator@VZenith_ModelComponent@@@std@@X@entt@@UEAAXXZ 000000014008ce00 f i Flux_AnimatedMeshes.obj
 0001:0008be60       ?shrink_to_size@?$basic_storage@VZenith_ModelComponent@@W4entity@entt@@V?$allocator@VZenith_ModelComponent@@@std@@X@entt@@AEAAX_K@Z 000000014008ce60 f i Flux_AnimatedMeshes.obj
 0001:0008bf30       ?swap_or_move@?$basic_storage@VZenith_ModelComponent@@W4entity@entt@@V?$allocator@VZenith_ModelComponent@@@std@@X@entt@@EEAAX_K0@Z 000000014008cf30 f i Flux_AnimatedMeshes.obj
 0001:0008c010       ?try_emplace@?$basic_sigh_mixin@V?$basic_storage@VZenith_ModelComponent@@W4entity@entt@@V?$allocator@VZenith_ModelComponent@@@std@@X@entt@@V?$basic_registry@W4entity@entt@@V?$allocator@W4entity@entt@@@std@@@2@@entt@@EEAA?AU?$sparse_set_iterator@V?$vector@W4entity@entt@@V?$allocator@W4entity@entt@@@std@@@std@@@internal@2@W4entity@2@_NPEBX@Z 000000014008d010 f i Flux_AnimatedMeshes.obj
 0001:0008c0a0       ?try_emplace@?$basic_storage@VZenith_ModelComponent@@W4entity@entt@@V?$allocator@VZenith_ModelComponent@@@std@@X@entt@@MEAA?AU?$sparse_set_iterator@V?$vector@W4entity@entt@@V?$allocator@W4entity@entt@@@std@@@std@@@internal@2@W4entity@2@_NPEBX@Z 000000014008d0a0 f i Flux_AnimatedMeshes.obj
 0001:0008c110       ??1Zenith_Vulkan_CommandBuffer@@QEAA@XZ 000000014008d110 f i Flux_DeferredShading.obj
 0001:0008c1c0       ?BeginFrame@Flux_DeferredShading@@SAXXZ 000000014008d1c0 f   Flux_DeferredShading.obj
 0001:0008c200       ?GetAnimatedMeshesCommandBuffer@Flux_DeferredShading@@SAAEAVZenith_Vulkan_CommandBuffer@@XZ 000000014008d200 f   Flux_DeferredShading.obj
 0001:0008c210       ?GetSkyboxCommandBuffer@Flux_DeferredShading@@SAAEAVZenith_Vulkan_CommandBuffer@@XZ 000000014008d210 f   Flux_DeferredShading.obj
 0001:0008c220       ?GetStaticMeshesCommandBuffer@Flux_DeferredShading@@SAAEAVZenith_Vulkan_CommandBuffer@@XZ 000000014008d220 f   Flux_DeferredShading.obj
 0001:0008c230       ?GetTerrainCommandBuffer@Flux_DeferredShading@@SAAEAVZenith_Vulkan_CommandBuffer@@XZ 000000014008d230 f   Flux_DeferredShading.obj
 0001:0008c240       ?Initialise@Flux_DeferredShading@@SAXXZ 000000014008d240 f   Flux_DeferredShading.obj
 0001:0008c9f0       ?Render@Flux_DeferredShading@@SAXXZ 000000014008d9f0 f   Flux_DeferredShading.obj
 0001:0008cc10       ?EarlyInitialise@Flux@@SAXXZ 000000014008dc10 f   Flux.obj
 0001:0008cc30       ?LateInitialise@Flux@@SAXXZ 000000014008dc30 f   Flux.obj
 0001:0008cc90       ?OnResChange@Flux@@SAXXZ   000000014008dc90 f   Flux.obj
 0001:0008ccd0       ??0Flux_RenderAttachment@@QEAA@XZ 000000014008dcd0 f i Flux_Graphics.obj
 0001:0008cd10       ??0Flux_TargetSetup@@QEAA@XZ 000000014008dd10 f i Flux_Graphics.obj
 0001:0008ceb0       ??1Flux_RenderAttachment@@QEAA@XZ 000000014008deb0 f i Flux_Graphics.obj
 0001:0008ced0       ??1Flux_TargetSetup@@QEAA@XZ 000000014008ded0 f i Flux_Graphics.obj
 0001:0008d030       ??1Zenith_Vulkan_Buffer@@QEAA@XZ 000000014008e030 f i Flux_Graphics.obj
 0001:0008d040       ??_E?$LeafNodeWithRange@II@Zenith_DebugVariableTree@@UEAAPEAXI@Z 000000014008e040 f i Flux_Graphics.obj
 0001:0008d040       ??_E?$LeafNodeWithRange@MM@Zenith_DebugVariableTree@@UEAAPEAXI@Z 000000014008e040 f i Flux_Fog.obj
 0001:0008d040       ??_E?$LeafNodeWithRange@U?$vec@$02M$0A@@glm@@M@Zenith_DebugVariableTree@@UEAAPEAXI@Z 000000014008e040 f i Flux_Graphics.obj
 0001:0008d040       ??_E?$LeafNodeWithRange@U?$vec@$03M$0A@@glm@@M@Zenith_DebugVariableTree@@UEAAPEAXI@Z 000000014008e040 f i Flux_Graphics.obj
 0001:0008d040       ??_G?$LeafNodeWithRange@II@Zenith_DebugVariableTree@@UEAAPEAXI@Z 000000014008e040 f i Flux_Graphics.obj
 0001:0008d040       ??_G?$LeafNodeWithRange@MM@Zenith_DebugVariableTree@@UEAAPEAXI@Z 000000014008e040 f i Flux_Fog.obj
 0001:0008d040       ??_G?$LeafNodeWithRange@U?$vec@$02M$0A@@glm@@M@Zenith_DebugVariableTree@@UEAAPEAXI@Z 000000014008e040 f i Flux_Graphics.obj
 0001:0008d040       ??_G?$LeafNodeWithRange@U?$vec@$03M$0A@@glm@@M@Zenith_DebugVariableTree@@UEAAPEAXI@Z 000000014008e040 f i Flux_Graphics.obj
 0001:0008d080       ?GetAspectRatio@Flux_Graphics@@SAMXZ 000000014008e080 f   Flux_Graphics.obj
 0001:0008d0a0       ?GetDepthStencilTexture@Flux_Graphics@@SAAEAVZenith_Vulkan_Texture@@XZ 000000014008e0a0 f   Flux_Graphics.obj
 0001:0008d0c0       ?GetFOV@Flux_Graphics@@SAMXZ 000000014008e0c0 f   Flux_Graphics.obj
 0001:0008d0e0       ?GetFarPlane@Flux_Graphics@@SAMXZ 000000014008e0e0 f   Flux_Graphics.obj
 0001:0008d100       ?GetGBufferTexture@Flux_Graphics@@SAAEAVZenith_Vulkan_Texture@@W4MRTIndex@@@Z 000000014008e100 f   Flux_Graphics.obj
 0001:0008d130       ?Initialise@Flux_Graphics@@SAXXZ 000000014008e130 f   Flux_Graphics.obj
 0001:0008db30       ?InitialiseRenderTargets@Flux_Graphics@@SAXXZ 000000014008eb30 f   Flux_Graphics.obj
 0001:0008dc30       ?UploadFrameConstants@Flux_Graphics@@SAXXZ 000000014008ec30 f   Flux_Graphics.obj
 0001:0008de90       ?AssignDepthStencil@Flux_TargetSetup@@QEAAXPEAUFlux_RenderAttachment@@@Z 000000014008ee90 f   Flux_RenderTargets.obj
 0001:0008dea0       ?Build@Flux_RenderAttachmentBuilder@@QEAAXAEAUFlux_RenderAttachment@@W4RenderTargetType@@@Z 000000014008eea0 f   Flux_RenderTargets.obj
 0001:0008e000       ?GetNumColourAttachments@Flux_TargetSetup@@QEAA?BIXZ 000000014008f000 f   Flux_RenderTargets.obj
 0001:0008e030       ?Initialise@Flux_Fog@@SAXXZ 000000014008f030 f   Flux_Fog.obj
 0001:0008ec20       ?Render@Flux_Fog@@SAXXZ    000000014008fc20 f   Flux_Fog.obj
 0001:0008ed40       ??$_Destroy_range@V?$allocator@UNode@Flux_MeshAnimation@@@std@@@std@@YAXPEAUNode@Flux_MeshAnimation@@QEAU12@AEAV?$allocator@UNode@Flux_MeshAnimation@@@0@@Z 000000014008fd40 f i Flux_MeshAnimation.obj
 0001:0008ed80       ??$_Destroy_range@V?$allocator@VAnimBone@Flux_MeshAnimation@@@std@@@std@@YAXPEAVAnimBone@Flux_MeshAnimation@@QEAV12@AEAV?$allocator@VAnimBone@Flux_MeshAnimation@@@0@@Z 000000014008fd80 f i Flux_MeshAnimation.obj
 0001:0008edc0       ??$_Emplace_reallocate@AEBUNode@Flux_MeshAnimation@@@?$vector@UNode@Flux_MeshAnimation@@V?$allocator@UNode@Flux_MeshAnimation@@@std@@@std@@AEAAPEAUNode@Flux_MeshAnimation@@QEAU23@AEBU23@@Z 000000014008fdc0 f i Flux_MeshAnimation.obj
 0001:0008efb0       ??$_Emplace_reallocate@VAnimBone@Flux_MeshAnimation@@@?$vector@VAnimBone@Flux_MeshAnimation@@V?$allocator@VAnimBone@Flux_MeshAnimation@@@std@@@std@@AEAAPEAVAnimBone@Flux_MeshAnimation@@QEAV23@$$QEAV23@@Z 000000014008ffb0 f i Flux_MeshAnimation.obj
 0001:0008f3a0       ??$_Free_non_head@V?$allocator@U?$_List_node@U?$pair@$$CBV?$basic_string@DU?$char_traits@D@std@@V?$allocator@D@2@@std@@U?$pair@IU?$mat@$03$03M$0A@@glm@@@2@@std@@PEAX@std@@@std@@@?$_List_node@U?$pair@$$CBV?$basic_string@DU?$char_traits@D@std@@V?$allocator@D@2@@std@@U?$pair@IU?$mat@$03$03M$0A@@glm@@@2@@std@@PEAX@std@@SAXAEAV?$allocator@U?$_List_node@U?$pair@$$CBV?$basic_string@DU?$char_traits@D@std@@V?$allocator@D@2@@std@@U?$pair@IU?$mat@$03$03M$0A@@glm@@@2@@std@@PEAX@std@@@1@PEAU01@@Z 00000001400903a0 f i Flux_MeshAnimation.obj
 0001:0008f440       ??$_Insert_range_unchecked@V?$_List_unchecked_const_iterator@V?$_List_val@U?$_List_simple_types@U?$pair@$$CBV?$basic_string@DU?$char_traits@D@std@@V?$allocator@D@2@@std@@U?$pair@IU?$mat@$03$03M$0A@@glm@@@2@@std@@@std@@@std@@U_Iterator_base0@2@@std@@V12@@?$_Hash@V?$_Umap_traits@V?$basic_string@DU?$char_traits@D@std@@V?$allocator@D@2@@std@@U?$pair@IU?$mat@$03$03M$0A@@glm@@@2@V?$_Uhash_compare@V?$basic_string@DU?$char_traits@D@std@@V?$allocator@D@2@@std@@U?$hash@V?$basic_string@DU?$char_traits@D@std@@V?$allocator@D@2@@std@@@2@U?$equal_to@V?$basic_string@DU?$char_traits@D@std@@V?$allocator@D@2@@std@@@2@@2@V?$allocator@U?$pair@$$CBV?$basic_string@DU?$char_traits@D@std@@V?$allocator@D@2@@std@@U?$pair@IU?$mat@$03$03M$0A@@glm@@@2@@std@@@2@$0A@@std@@@std@@IEAAXV?$_List_unchecked_const_iterator@V?$_List_val@U?$_List_simple_types@U?$pair@$$CBV?$basic_string@DU?$char_traits@D@std@@V?$allocator@D@2@@std@@U?$pair@IU?$mat@$03$03M$0A@@glm@@@2@@std@@@std@@@std@@U_Iterator_base0@2@@1@V21@@Z 0000000140090440 f i Flux_MeshAnimation.obj
 0001:0008f6e0       ??$_Resize_reallocate@U_Value_init_tag@std@@@?$vector@U?$pair@U?$qua@M$0A@@glm@@M@std@@V?$allocator@U?$pair@U?$qua@M$0A@@glm@@M@std@@@2@@std@@AEAAX_KAEBU_Value_init_tag@1@@Z 00000001400906e0 f i Flux_MeshAnimation.obj
 0001:0008f8e0       ??$_Resize_reallocate@U_Value_init_tag@std@@@?$vector@U?$pair@U?$vec@$02M$0A@@glm@@M@std@@V?$allocator@U?$pair@U?$vec@$02M$0A@@glm@@M@std@@@2@@std@@AEAAX_KAEBU_Value_init_tag@1@@Z 00000001400908e0 f i Flux_MeshAnimation.obj
 0001:0008faa0       ??$_Try_emplace@AEBV?$basic_string@DU?$char_traits@D@std@@V?$allocator@D@2@@std@@$$V@?$_Hash@V?$_Umap_traits@V?$basic_string@DU?$char_traits@D@std@@V?$allocator@D@2@@std@@U?$pair@IU?$mat@$03$03M$0A@@glm@@@2@V?$_Uhash_compare@V?$basic_string@DU?$char_traits@D@std@@V?$allocator@D@2@@std@@U?$hash@V?$basic_string@DU?$char_traits@D@std@@V?$allocator@D@2@@std@@@2@U?$equal_to@V?$basic_string@DU?$char_traits@D@std@@V?$allocator@D@2@@std@@@2@@2@V?$allocator@U?$pair@$$CBV?$basic_string@DU?$char_traits@D@std@@V?$allocator@D@2@@std@@U?$pair@IU?$mat@$03$03M$0A@@glm@@@2@@std@@@2@$0A@@std@@@std@@IEAA?AU?$pair@PEAU?$_List_node@U?$pair@$$CBV?$basic_string@DU?$char_traits@D@std@@V?$allocator@D@2@@std@@U?$pair@IU?$mat@$03$03M$0A@@glm@@@2@@std@@PEAX@std@@_N@1@AEBV?$basic_string@DU?$char_traits@D@std@@V?$allocator@D@2@@1@@Z 0000000140090aa0 f i Flux_MeshAnimation.obj
 0001:0008fd10       ??$_Uninitialized_move@PEAUNode@Flux_MeshAnimation@@V?$allocator@UNode@Flux_MeshAnimation@@@std@@@std@@YAPEAUNode@Flux_MeshAnimation@@QEAU12@0PEAU12@AEAV?$allocator@UNode@Flux_MeshAnimation@@@0@@Z 0000000140090d10 f i Flux_MeshAnimation.obj
 0001:0008fe10       ??$emplace@U?$pair@$$CBV?$basic_string@DU?$char_traits@D@std@@V?$allocator@D@2@@std@@U?$pair@IU?$mat@$03$03M$0A@@glm@@@2@@std@@@?$_Hash@V?$_Umap_traits@V?$basic_string@DU?$char_traits@D@std@@V?$allocator@D@2@@std@@U?$pair@IU?$mat@$03$03M$0A@@glm@@@2@V?$_Uhash_compare@V?$basic_string@DU?$char_traits@D@std@@V?$allocator@D@2@@std@@U?$hash@V?$basic_string@DU?$char_traits@D@std@@V?$allocator@D@2@@std@@@2@U?$equal_to@V?$basic_string@DU?$char_traits@D@std@@V?$allocator@D@2@@std@@@2@@2@V?$allocator@U?$pair@$$CBV?$basic_string@DU?$char_traits@D@std@@V?$allocator@D@2@@std@@U?$pair@IU?$mat@$03$03M$0A@@glm@@@2@@std@@@2@$0A@@std@@@std@@QEAA?AU?$pair@V?$_List_iterator@V?$_List_val@U?$_List_simple_types@U?$pair@$$CBV?$basic_string@DU?$char_traits@D@std@@V?$allocator@D@2@@std@@U?$pair@IU?$mat@$03$03M$0A@@glm@@@2@@std@@@std@@@std@@@std@@_N@1@$$QEAU?$pair@$$CBV?$basic_string@DU?$char_traits@D@std@@V?$allocator@D@2@@std@@U?$pair@IU?$mat@$03$03M$0A@@glm@@@2@@1@@Z 0000000140090e10 f i Flux_MeshAnimation.obj
 0001:00090090       ??$toMat4@M$0A@@glm@@YA?AU?$mat@$03$03M$0A@@0@AEBU?$qua@M$0A@@0@@Z 0000000140091090 f i Flux_MeshAnimation.obj
 0001:00090240       ??$translate@M$0A@@glm@@YA?AU?$mat@$03$03M$0A@@0@AEBU10@AEBU?$vec@$02M$0A@@0@@Z 0000000140091240 f i Flux_MeshAnimation.obj
 0001:000903e0       ??0?$vector@U?$pair@U?$vec@$02M$0A@@glm@@M@std@@V?$allocator@U?$pair@U?$vec@$02M$0A@@glm@@M@std@@@2@@std@@QEAA@AEBV01@@Z 00000001400913e0 f i Flux_MeshAnimation.obj
 0001:000904d0       ??0AnimBone@Flux_MeshAnimation@@QEAA@AEBV01@@Z 00000001400914d0 f i Flux_MeshAnimation.obj
 0001:00090670       ??0AnimBone@Flux_MeshAnimation@@QEAA@AEBV?$basic_string@DU?$char_traits@D@std@@V?$allocator@D@2@@std@@IPEBUaiNodeAnim@@@Z 0000000140091670 f   Flux_MeshAnimation.obj
 0001:00090a50       ??0Flux_MeshAnimation@@QEAA@AEBV?$basic_string@DU?$char_traits@D@std@@V?$allocator@D@2@@std@@AEAVFlux_MeshGeometry@@@Z 0000000140091a50 f   Flux_MeshAnimation.obj
 0001:000911d0       ??0Node@Flux_MeshAnimation@@QEAA@AEBU01@@Z 00000001400921d0 f i Flux_MeshAnimation.obj
 0001:00091310       ??1AnimBone@Flux_MeshAnimation@@QEAA@XZ 0000000140092310 f i Flux_MeshAnimation.obj
 0001:00091420       ??1Node@Flux_MeshAnimation@@QEAA@XZ 0000000140092420 f i Flux_MeshAnimation.obj
 0001:00091490       ?CalculateBoneTransform@Flux_MeshAnimation@@QEAAXPEBUNode@1@U?$mat@$03$03M$0A@@glm@@@Z 0000000140092490 f   Flux_MeshAnimation.obj
 0001:00091a70       ?InterpolatePosition@AnimBone@Flux_MeshAnimation@@AEAA?AU?$mat@$03$03M$0A@@glm@@M@Z 0000000140092a70 f i Flux_MeshAnimation.obj
 0001:00091bc0       ?InterpolateRotation@AnimBone@Flux_MeshAnimation@@AEAA?AU?$mat@$03$03M$0A@@glm@@M@Z 0000000140092bc0 f i Flux_MeshAnimation.obj
 0001:00092020       ?InterpolateScaling@AnimBone@Flux_MeshAnimation@@AEAA?AU?$mat@$03$03M$0A@@glm@@M@Z 0000000140093020 f i Flux_MeshAnimation.obj
 0001:00092450       ?_Rehash_for_1@?$_Hash@V?$_Umap_traits@V?$basic_string@DU?$char_traits@D@std@@V?$allocator@D@2@@std@@U?$pair@IU?$mat@$03$03M$0A@@glm@@@2@V?$_Uhash_compare@V?$basic_string@DU?$char_traits@D@std@@V?$allocator@D@2@@std@@U?$hash@V?$basic_string@DU?$char_traits@D@std@@V?$allocator@D@2@@std@@@2@U?$equal_to@V?$basic_string@DU?$char_traits@D@std@@V?$allocator@D@2@@std@@@2@@2@V?$allocator@U?$pair@$$CBV?$basic_string@DU?$char_traits@D@std@@V?$allocator@D@2@@std@@U?$pair@IU?$mat@$03$03M$0A@@glm@@@2@@std@@@2@$0A@@std@@@std@@IEAAXXZ 0000000140093450 f i Flux_MeshAnimation.obj
 0001:00092520       ?_Tidy@?$vector@U?$pair@U?$qua@M$0A@@glm@@M@std@@V?$allocator@U?$pair@U?$qua@M$0A@@glm@@M@std@@@2@@std@@AEAAXXZ 0000000140093520 f i Flux_MeshAnimation.obj
 0001:000925a0       ?_Tidy@?$vector@UNode@Flux_MeshAnimation@@V?$allocator@UNode@Flux_MeshAnimation@@@std@@@std@@AEAAXXZ 00000001400935a0 f i Flux_MeshAnimation.obj
 0001:00092630       ?_Xrange@?$vector@U?$pair@U?$qua@M$0A@@glm@@M@std@@V?$allocator@U?$pair@U?$qua@M$0A@@glm@@M@std@@@2@@std@@CAXXZ 0000000140093630 f i Flux_MeshAnimation.obj
 0001:00092630       ?_Xrange@?$vector@U?$pair@U?$vec@$02M$0A@@glm@@M@std@@V?$allocator@U?$pair@U?$vec@$02M$0A@@glm@@M@std@@@2@@std@@CAXXZ 0000000140093630 f i Flux_MeshAnimation.obj
 0001:00092630       ?_Xrange@?$vector@UAttachmentDescription@vk@@V?$allocator@UAttachmentDescription@vk@@@std@@@std@@CAXXZ 0000000140093630 f i Zenith_Vulkan_Pipeline.obj
 0001:00092630       ?_Xrange@?$vector@UAttachmentReference@vk@@V?$allocator@UAttachmentReference@vk@@@std@@@std@@CAXXZ 0000000140093630 f i Zenith_Vulkan_Pipeline.obj
 0001:00092630       ?_Xrange@?$vector@UDescriptorBufferInfo@vk@@V?$allocator@UDescriptorBufferInfo@vk@@@std@@@std@@CAXXZ 0000000140093630 f i Zenith_Vulkan_CommandBuffer.obj
 0001:00092630       ?_Xrange@?$vector@UDescriptorImageInfo@vk@@V?$allocator@UDescriptorImageInfo@vk@@@std@@@std@@CAXXZ 0000000140093630 f i Zenith_Vulkan_CommandBuffer.obj
 0001:00092630       ?_Xrange@?$vector@UTextVertex@@V?$allocator@UTextVertex@@@std@@@std@@CAXXZ 0000000140093630 f i Flux_Text.obj
 0001:00092630       ?_Xrange@?$vector@UWriteDescriptorSet@vk@@V?$allocator@UWriteDescriptorSet@vk@@@std@@@std@@CAXXZ 0000000140093630 f i Zenith_Vulkan_CommandBuffer.obj
 0001:00092650       ?deallocate@?$allocator@U?$pair@U?$qua@M$0A@@glm@@M@std@@@std@@QEAAXQEAU?$pair@U?$qua@M$0A@@glm@@M@2@_K@Z 0000000140093650 f i Flux_MeshAnimation.obj
 0001:000926a0       ?deallocate@?$allocator@U?$pair@U?$vec@$02M$0A@@glm@@M@std@@@std@@QEAAXQEAU?$pair@U?$vec@$02M$0A@@glm@@M@2@_K@Z 00000001400936a0 f i Flux_MeshAnimation.obj
 0001:000926a0       ?deallocate@?$allocator@UMeshEntry@Zenith_ModelComponent@@@std@@QEAAXQEAUMeshEntry@Zenith_ModelComponent@@_K@Z 00000001400936a0 f i PlayerController_Behaviour.obj
 0001:000926a0       ?deallocate@?$allocator@UVertexInputAttributeDescription@vk@@@std@@QEAAXQEAUVertexInputAttributeDescription@vk@@_K@Z 00000001400936a0 f i Zenith_Vulkan_Pipeline.obj
 0001:000926f0       ?deallocate@?$allocator@UNode@Flux_MeshAnimation@@@std@@QEAAXQEAUNode@Flux_MeshAnimation@@_K@Z 00000001400936f0 f i Flux_MeshAnimation.obj
 0001:00092740       ?deallocate@?$allocator@VAnimBone@Flux_MeshAnimation@@@std@@QEAAXQEAVAnimBone@Flux_MeshAnimation@@_K@Z 0000000140093740 f i Flux_MeshAnimation.obj
 0001:00092790       ??$?DM$0A@@glm@@YA?AU?$vec@$03M$0A@@0@AEBU?$mat@$03$03M$0A@@0@AEBU10@@Z 0000000140093790 f i Flux_MeshGeometry.obj
 0001:00092920       ??0?$basic_stringbuf@DU?$char_traits@D@std@@V?$allocator@D@2@@std@@QEAA@H@Z 0000000140093920 f i Flux_MeshGeometry.obj
 0001:00092a50       ??_D?$basic_ostringstream@DU?$char_traits@D@std@@V?$allocator@D@2@@std@@QEAAXXZ 0000000140093a50 f i Flux_MeshGeometry.obj
 0001:00092ae0       ??_E?$basic_ostringstream@DU?$char_traits@D@std@@V?$allocator@D@2@@std@@$4PPPPPPPM@A@EAAPEAXI@Z 0000000140093ae0 f i Flux_MeshGeometry.obj
 0001:00092af0       ??_E?$basic_ostringstream@DU?$char_traits@D@std@@V?$allocator@D@2@@std@@UEAAPEAXI@Z 0000000140093af0 f i Flux_MeshGeometry.obj
 0001:00092af0       ??_G?$basic_ostringstream@DU?$char_traits@D@std@@V?$allocator@D@2@@std@@UEAAPEAXI@Z 0000000140093af0 f i Flux_MeshGeometry.obj
 0001:00092b30       ?Export@Flux_MeshGeometry@@QEAAXPEBD@Z 0000000140093b30 f   Flux_MeshGeometry.obj
 0001:000937c0       ?GenerateBitangents@Flux_MeshGeometry@@QEAAXXZ 00000001400947c0 f   Flux_MeshGeometry.obj
 0001:00093880       ?GenerateFullscreenQuad@Flux_MeshGeometry@@SAXAEAV1@@Z 0000000140094880 f   Flux_MeshGeometry.obj
 0001:00093a20       ?GenerateFullscreenQuad@Flux_MeshGeometry@@SAXAEAV1@U?$mat@$03$03M$0A@@glm@@@Z 0000000140094a20 f   Flux_MeshGeometry.obj
 0001:00093d60       ?GenerateLayoutAndVertexData@Flux_MeshGeometry@@QEAAXXZ 0000000140094d60 f   Flux_MeshGeometry.obj
 0001:00094440       ?GenerateNormals@Flux_MeshGeometry@@QEAAXXZ 0000000140095440 f   Flux_MeshGeometry.obj
 0001:000946b0       ?GenerateTangents@Flux_MeshGeometry@@QEAAXXZ 00000001400956b0 f   Flux_MeshGeometry.obj
 0001:000949c0       ?LoadFromFile@Flux_MeshGeometry@@SAXPEBDAEAV1@_N@Z 00000001400959c0 f   Flux_MeshGeometry.obj
 0001:000956a0       ?StringToShaderDataType@@YA?AW4ShaderDataType@@AEBV?$basic_string@DU?$char_traits@D@std@@V?$allocator@D@2@@std@@@Z 00000001400966a0 f   Flux_MeshGeometry.obj
 0001:00095840       ?Initialise@Flux_Particles@@SAXXZ 0000000140096840 f   Flux_Particles.obj
 0001:00096380       ?Render@Flux_Particles@@SAXXZ 0000000140097380 f   Flux_Particles.obj
 0001:00096580       ?Initialise@Flux_SDFs@@SAXXZ 0000000140097580 f   Flux_SDFs.obj
 0001:00096e90       ?Render@Flux_SDFs@@SAXXZ   0000000140097e90 f   Flux_SDFs.obj
 0001:000970a0       ??$lookAtLH@M$0A@@glm@@YA?AU?$mat@$03$03M$0A@@0@AEBU?$vec@$02M$0A@@0@00@Z 00000001400980a0 f i Flux_Shadows.obj
 0001:00097310       ?GetCSMTargetSetup@Flux_Shadows@@SAAEAUFlux_TargetSetup@@I@Z 0000000140098310 f   Flux_Shadows.obj
 0001:00097330       ?GetCSMTexture@Flux_Shadows@@SAAEAVZenith_Vulkan_Texture@@I@Z 0000000140098330 f   Flux_Shadows.obj
 0001:00097360       ?GetShadowMatrixBuffer@Flux_Shadows@@SAAEAVFlux_ConstantBuffer@@I@Z 0000000140098360 f   Flux_Shadows.obj
 0001:00097380       ?GetSunViewProjMatrix@Flux_Shadows@@SA?AU?$mat@$03$03M$0A@@glm@@I@Z 0000000140098380 f   Flux_Shadows.obj
 0001:000973c0       ?Initialise@Flux_Shadows@@SAXXZ 00000001400983c0 f   Flux_Shadows.obj
 0001:00097d80       ?Render@Flux_Shadows@@SAXXZ 0000000140098d80 f   Flux_Shadows.obj
 0001:00097ec0       ?UpdateShadowMatrices@Flux_Shadows@@CAXXZ 0000000140098ec0 f   Flux_Shadows.obj
 0001:00098850       ?Initialise@Flux_Skybox@@SAXXZ 0000000140099850 f   Flux_Skybox.obj
 0001:000990d0       ?Render@Flux_Skybox@@SAXXZ 000000014009a0d0 f   Flux_Skybox.obj
 0001:00099190       ??$GetAllOfComponentType@VZenith_ModelComponent@@@Zenith_Scene@@QEAAXAEAV?$vector@PEAVZenith_ModelComponent@@V?$allocator@PEAVZenith_ModelComponent@@@std@@@std@@@Z 000000014009a190 f i Flux_StaticMeshes.obj
 0001:000992f0       ??0?$vector@UFlux_BlendState@@V?$allocator@UFlux_BlendState@@@std@@@std@@QEAA@AEBV01@@Z 000000014009a2f0 f i Flux_StaticMeshes.obj
 0001:00099420       ?GetShadowPipeline@Flux_StaticMeshes@@SAAEAVZenith_Vulkan_Pipeline@@XZ 000000014009a420 f   Flux_StaticMeshes.obj
 0001:00099430       ?Initialise@Flux_StaticMeshes@@SAXXZ 000000014009a430 f   Flux_StaticMeshes.obj
 0001:0009a220       ?RenderToGBuffer@Flux_StaticMeshes@@SAXXZ 000000014009b220 f   Flux_StaticMeshes.obj
 0001:0009a670       ?RenderToShadowMap@Flux_StaticMeshes@@SAXAEAVZenith_Vulkan_CommandBuffer@@@Z 000000014009b670 f   Flux_StaticMeshes.obj
 0001:0009a9a0       ??$GetAllOfComponentType@VZenith_TerrainComponent@@@Zenith_Scene@@QEAAXAEAV?$vector@PEAVZenith_TerrainComponent@@V?$allocator@PEAVZenith_TerrainComponent@@@std@@@std@@@Z 000000014009b9a0 f i Flux_Terrain.obj
 0001:0009ac60       ??0?$view_iterator@V?$basic_sparse_set@W4entity@entt@@V?$allocator@W4entity@entt@@@std@@@entt@@$00$0A@@internal@entt@@QEAA@U?$sparse_set_iterator@V?$vector@W4entity@entt@@V?$allocator@W4entity@entt@@@std@@@std@@@12@0V?$array@PEBV?$basic_sparse_set@W4entity@entt@@V?$allocator@W4entity@entt@@@std@@@entt@@$00@std@@V?$array@PEBV?$basic_sparse_set@W4entity@entt@@V?$allocator@W4entity@entt@@@std@@@entt@@$0A@@5@_K@Z 000000014009bc60 f i Flux_Terrain.obj
 0001:0009ae00       ?AddBoolean@Zenith_DebugVariables@@SAXV?$vector@V?$basic_string@DU?$char_traits@D@std@@V?$allocator@D@2@@std@@V?$allocator@V?$basic_string@DU?$char_traits@D@std@@V?$allocator@D@2@@std@@@2@@std@@AEA_N@Z 000000014009be00 f i Flux_Terrain.obj
 0001:0009aed0       ?AddFloat@Zenith_DebugVariables@@SAXV?$vector@V?$basic_string@DU?$char_traits@D@std@@V?$allocator@D@2@@std@@V?$allocator@V?$basic_string@DU?$char_traits@D@std@@V?$allocator@D@2@@std@@@2@@std@@AEAMMM@Z 000000014009bed0 f i Flux_Terrain.obj
 0001:0009afc0       ?Initialise@Flux_Terrain@@SAXXZ 000000014009bfc0 f   Flux_Terrain.obj
 0001:0009c070       ?RenderToGBuffer@Flux_Terrain@@SAXXZ 000000014009d070 f   Flux_Terrain.obj
 0001:0009c3b0       ?each@?$basic_view@U?$get_t@V?$basic_sigh_mixin@V?$basic_storage@VZenith_TerrainComponent@@W4entity@entt@@V?$allocator@VZenith_TerrainComponent@@@std@@X@entt@@V?$basic_registry@W4entity@entt@@V?$allocator@W4entity@entt@@@std@@@2@@entt@@@entt@@U?$exclude_t@$$V@2@X@entt@@QEBA?AU?$iterable_adaptor@U?$extended_view_iterator@V?$view_iterator@V?$basic_sparse_set@W4entity@entt@@V?$allocator@W4entity@entt@@@std@@@entt@@$00$0A@@internal@entt@@V?$basic_sigh_mixin@V?$basic_storage@VZenith_TerrainComponent@@W4entity@entt@@V?$allocator@VZenith_TerrainComponent@@@std@@X@entt@@V?$basic_registry@W4entity@entt@@V?$allocator@W4entity@entt@@@std@@@2@@3@@internal@entt@@U123@@2@XZ 000000014009d3b0 f i Flux_Terrain.obj
 0001:0009c590       ??$_Assign_counted_range@PEAUTextEntry@@@?$vector@UTextEntry@@V?$allocator@UTextEntry@@@std@@@std@@AEAAXPEAUTextEntry@@_K@Z 000000014009d590 f i Flux_Text.obj
 0001:0009c810       ??$_Assign_counted_range@PEAUTextEntry_World@@@?$vector@UTextEntry_World@@V?$allocator@UTextEntry_World@@@std@@@std@@AEAAXPEAUTextEntry_World@@_K@Z 000000014009d810 f i Flux_Text.obj
 0001:0009cab0       ??$assure@VZenith_TextComponent@@@?$basic_registry@W4entity@entt@@V?$allocator@W4entity@entt@@@std@@@entt@@AEAAAEA_PI@Z 000000014009dab0 f i Flux_Text.obj
 0001:0009cd00       ??0Zenith_TextComponent@@QEAA@AEBV0@@Z 000000014009dd00 f i Flux_Text.obj
 0001:0009cea0       ??1?$basic_storage@VZenith_TextComponent@@W4entity@entt@@V?$allocator@VZenith_TextComponent@@@std@@X@entt@@UEAA@XZ 000000014009dea0 f i Flux_Text.obj
 0001:0009cf20       ??4Zenith_TextComponent@@QEAAAEAV0@AEBV0@@Z 000000014009df20 f i Flux_Text.obj
 0001:0009d000       ??_E?$_Ref_count_obj_alloc3@V?$basic_sigh_mixin@V?$basic_storage@VZenith_TextComponent@@W4entity@entt@@V?$allocator@VZenith_TextComponent@@@std@@X@entt@@V?$basic_registry@W4entity@entt@@V?$allocator@W4entity@entt@@@std@@@2@@entt@@V?$allocator@W4entity@entt@@@std@@@std@@EEAAPEAXI@Z 000000014009e000 f i Flux_Text.obj
 0001:0009d000       ??_G?$_Ref_count_obj_alloc3@V?$basic_sigh_mixin@V?$basic_storage@VZenith_TextComponent@@W4entity@entt@@V?$allocator@VZenith_TextComponent@@@std@@X@entt@@V?$basic_registry@W4entity@entt@@V?$allocator@W4entity@entt@@@std@@@2@@entt@@V?$allocator@W4entity@entt@@@std@@@std@@EEAAPEAXI@Z 000000014009e000 f i Flux_Text.obj
 0001:0009d030       ??_E?$basic_sigh_mixin@V?$basic_storage@VZenith_TextComponent@@W4entity@entt@@V?$allocator@VZenith_TextComponent@@@std@@X@entt@@V?$basic_registry@W4entity@entt@@V?$allocator@W4entity@entt@@@std@@@2@@entt@@UEAAPEAXI@Z 000000014009e030 f i Flux_Text.obj
 0001:0009d030       ??_G?$basic_sigh_mixin@V?$basic_storage@VZenith_TextComponent@@W4entity@entt@@V?$allocator@VZenith_TextComponent@@@std@@X@entt@@V?$basic_registry@W4entity@entt@@V?$allocator@W4entity@entt@@@std@@@2@@entt@@UEAAPEAXI@Z 000000014009e030 f i Flux_Text.obj
 0001:0009d180       ??_E?$basic_storage@VZenith_TextComponent@@W4entity@entt@@V?$allocator@VZenith_TextComponent@@@std@@X@entt@@UEAAPEAXI@Z 000000014009e180 f i Flux_Text.obj
 0001:0009d180       ??_G?$basic_storage@VZenith_TextComponent@@W4entity@entt@@V?$allocator@VZenith_TextComponent@@@std@@X@entt@@UEAAPEAXI@Z 000000014009e180 f i Flux_Text.obj
 0001:0009d1c0       ?Initialise@Flux_Text@@SAXXZ 000000014009e1c0 f   Flux_Text.obj
 0001:0009de50       ?Render@Flux_Text@@SAXXZ   000000014009ee50 f   Flux_Text.obj
 0001:0009df90       ?UploadChars@Flux_Text@@SAIXZ 000000014009ef90 f   Flux_Text.obj
 0001:0009e670       ?_Buy_raw@?$vector@UTextEntry@@V?$allocator@UTextEntry@@@std@@@std@@AEAAX_K@Z 000000014009f670 f i Flux_Text.obj
 0001:0009e670       ?_Buy_raw@?$vector@UTextEntry_World@@V?$allocator@UTextEntry_World@@@std@@@std@@AEAAX_K@Z 000000014009f670 f i Flux_Text.obj
 0001:0009e700       ?_Destroy@?$_Ref_count_obj_alloc3@V?$basic_sigh_mixin@V?$basic_storage@VZenith_TextComponent@@W4entity@entt@@V?$allocator@VZenith_TextComponent@@@std@@X@entt@@V?$basic_registry@W4entity@entt@@V?$allocator@W4entity@entt@@@std@@@2@@entt@@V?$allocator@W4entity@entt@@@std@@@std@@EEAAXXZ 000000014009f700 f i Flux_Text.obj
 0001:0009e710       ?_Tidy@?$vector@UTextEntry@@V?$allocator@UTextEntry@@@std@@@std@@AEAAXXZ 000000014009f710 f i Flux_Text.obj
 0001:0009e710       ?_Tidy@?$vector@UTextEntry_World@@V?$allocator@UTextEntry_World@@@std@@@std@@AEAAXXZ 000000014009f710 f i Flux_Text.obj
 0001:0009e7a0       ?assure_at_least@?$basic_storage@VZenith_ColliderComponent@@W4entity@entt@@V?$allocator@VZenith_ColliderComponent@@@std@@X@entt@@AEAA@_K@Z 000000014009f7a0 f i PlayerController_Behaviour.obj
 0001:0009e7a0       ?assure_at_least@?$basic_storage@VZenith_TextComponent@@W4entity@entt@@V?$allocator@VZenith_TextComponent@@@std@@X@entt@@AEAA@_K@Z 000000014009f7a0 f i Flux_Text.obj
 0001:0009e8b0       ?get_at@?$basic_storage@VZenith_ColliderComponent@@W4entity@entt@@V?$allocator@VZenith_ColliderComponent@@@std@@X@entt@@EEBAPEBX_K@Z 000000014009f8b0 f i PlayerController_Behaviour.obj
 0001:0009e8b0       ?get_at@?$basic_storage@VZenith_TextComponent@@W4entity@entt@@V?$allocator@VZenith_TextComponent@@@std@@X@entt@@EEBAPEBX_K@Z 000000014009f8b0 f i Flux_Text.obj
 0001:0009e8d0       ?pop@?$basic_sigh_mixin@V?$basic_storage@VZenith_TextComponent@@W4entity@entt@@V?$allocator@VZenith_TextComponent@@@std@@X@entt@@V?$basic_registry@W4entity@entt@@V?$allocator@W4entity@entt@@@std@@@2@@entt@@EEAAXU?$sparse_set_iterator@V?$vector@W4entity@entt@@V?$allocator@W4entity@entt@@@std@@@std@@@internal@2@0@Z 000000014009f8d0 f i Flux_Text.obj
 0001:0009ec80       ?pop@?$basic_storage@VZenith_TextComponent@@W4entity@entt@@V?$allocator@VZenith_TextComponent@@@std@@X@entt@@MEAAXU?$sparse_set_iterator@V?$vector@W4entity@entt@@V?$allocator@W4entity@entt@@@std@@@std@@@internal@2@0@Z 000000014009fc80 f i Flux_Text.obj
 0001:0009ee50       ?pop_all@?$basic_sigh_mixin@V?$basic_storage@VZenith_TextComponent@@W4entity@entt@@V?$allocator@VZenith_TextComponent@@@std@@X@entt@@V?$basic_registry@W4entity@entt@@V?$allocator@W4entity@entt@@@std@@@2@@entt@@EEAAXXZ 000000014009fe50 f i Flux_Text.obj
 0001:0009f040       ?pop_all@?$basic_storage@VZenith_TextComponent@@W4entity@entt@@V?$allocator@VZenith_TextComponent@@@std@@X@entt@@MEAAXXZ 00000001400a0040 f i Flux_Text.obj
 0001:0009f150       ?reserve@?$basic_storage@VZenith_ColliderComponent@@W4entity@entt@@V?$allocator@VZenith_ColliderComponent@@@std@@X@entt@@UEAAX_K@Z 00000001400a0150 f i PlayerController_Behaviour.obj
 0001:0009f150       ?reserve@?$basic_storage@VZenith_TextComponent@@W4entity@entt@@V?$allocator@VZenith_TextComponent@@@std@@X@entt@@UEAAX_K@Z 00000001400a0150 f i Flux_Text.obj
 0001:0009f1c0       ?shrink_to_fit@?$basic_storage@VZenith_TextComponent@@W4entity@entt@@V?$allocator@VZenith_TextComponent@@@std@@X@entt@@UEAAXXZ 00000001400a01c0 f i Flux_Text.obj
 0001:0009f220       ?shrink_to_size@?$basic_storage@VZenith_TextComponent@@W4entity@entt@@V?$allocator@VZenith_TextComponent@@@std@@X@entt@@AEAAX_K@Z 00000001400a0220 f i Flux_Text.obj
 0001:0009f310       ?swap_or_move@?$basic_storage@VZenith_TextComponent@@W4entity@entt@@V?$allocator@VZenith_TextComponent@@@std@@X@entt@@EEAAX_K0@Z 00000001400a0310 f i Flux_Text.obj
 0001:0009f3a0       ?try_emplace@?$basic_sigh_mixin@V?$basic_storage@VZenith_TextComponent@@W4entity@entt@@V?$allocator@VZenith_TextComponent@@@std@@X@entt@@V?$basic_registry@W4entity@entt@@V?$allocator@W4entity@entt@@@std@@@2@@entt@@EEAA?AU?$sparse_set_iterator@V?$vector@W4entity@entt@@V?$allocator@W4entity@entt@@@std@@@std@@@internal@2@W4entity@2@_NPEBX@Z 00000001400a03a0 f i Flux_Text.obj
 0001:0009f430       ?try_emplace@?$basic_storage@VZenith_TextComponent@@W4entity@entt@@V?$allocator@VZenith_TextComponent@@@std@@X@entt@@MEAA?AU?$sparse_set_iterator@V?$vector@W4entity@entt@@V?$allocator@W4entity@entt@@@std@@@std@@@internal@2@W4entity@2@_NPEBX@Z 00000001400a0430 f i Flux_Text.obj
 0001:0009f4a0       ?Initialise@Flux_Water@@SAXXZ 00000001400a04a0 f   Flux_Water.obj
 0001:0009ff80       ?Render@Flux_Water@@SAXXZ  00000001400a0f80 f   Flux_Water.obj
 0001:000a0190       ?BeginFrame@Zenith_Input@@SAXXZ 00000001400a1190 f   Zenith_Input.obj
 0001:000a01a0       ?GetMousePosition@Zenith_Input@@SAXAEAU?$vec@$01N$0A@@glm@@@Z 00000001400a11a0 f   Zenith_Input.obj
 0001:000a01b0       ?IsKeyDown@Zenith_Input@@SA_NH@Z 00000001400a11b0 f   Zenith_Input.obj
 0001:000a01c0       ?KeyPressedCallback@Zenith_Input@@SAXH@Z 00000001400a11c0 f   Zenith_Input.obj
 0001:000a01f0       ?WasKeyPressedThisFrame@Zenith_Input@@SA_NH@Z 00000001400a11f0 f   Zenith_Input.obj
 0001:000a02b0       ?_Unchecked_erase@?$_Hash@V?$_Uset_traits@HV?$_Uhash_compare@HU?$hash@H@std@@U?$equal_to@H@2@@std@@V?$allocator@H@2@$0A@@std@@@std@@AEAAPEAU?$_List_node@HPEAX@2@PEAU32@QEAU32@@Z 00000001400a12b0 f i Zenith_Input.obj
 0001:000a0470       ?clear@?$_Hash@V?$_Uset_traits@HV?$_Uhash_compare@HU?$hash@H@std@@U?$equal_to@H@2@@std@@V?$allocator@H@2@$0A@@std@@@std@@QEAAXXZ 00000001400a1470 f i Zenith_Input.obj
 0001:000a0530       ?Initialise@Zenith_Physics@@SAXXZ 00000001400a1530 f   Zenith_Physics.obj
 0001:000a0630       ?Update@Zenith_Physics@@SAXM@Z 00000001400a1630 f   Zenith_Physics.obj
 0001:000a06c0       ??$_Erase_tree@V?$allocator@U?$_Tree_node@IPEAX@std@@@std@@@?$_Tree_val@U?$_Tree_simple_types@I@std@@@std@@QEAAXAEAV?$allocator@U?$_Tree_node@IPEAX@std@@@1@PEAU?$_Tree_node@IPEAX@1@@Z 00000001400a16c0 f i Zenith_Vulkan.obj
 0001:000a0720       ??$_Resize_reallocate@U_Value_init_tag@std@@@?$vector@UQueueFamilyProperties@vk@@V?$allocator@UQueueFamilyProperties@vk@@@std@@@std@@AEAAX_KAEBU_Value_init_tag@1@@Z 00000001400a1720 f i Zenith_Vulkan.obj
 0001:000a0940       ??$_Resize_reallocate@U_Value_init_tag@std@@@?$vector@VImage@vk@@V?$allocator@VImage@vk@@@std@@@std@@AEAAX_KAEBU_Value_init_tag@1@@Z 00000001400a1940 f i Zenith_Vulkan_Swapchain.obj
 0001:000a0940       ??$_Resize_reallocate@U_Value_init_tag@std@@@?$vector@VImageView@vk@@V?$allocator@VImageView@vk@@@std@@@std@@AEAAX_KAEBU_Value_init_tag@1@@Z 00000001400a1940 f i Zenith_Vulkan_Swapchain.obj
 0001:000a0940       ??$_Resize_reallocate@U_Value_init_tag@std@@@?$vector@VPhysicalDevice@vk@@V?$allocator@VPhysicalDevice@vk@@@std@@@std@@AEAAX_KAEBU_Value_init_tag@1@@Z 00000001400a1940 f i Zenith_Vulkan.obj
 0001:000a0940       ??$_Resize_reallocate@U_Value_init_tag@std@@@?$vector@VSemaphore@vk@@V?$allocator@VSemaphore@vk@@@std@@@std@@AEAAX_KAEBU_Value_init_tag@1@@Z 00000001400a1940 f i Zenith_Vulkan_CommandBuffer.obj
 0001:000a0af0       ??$_Uninitialized_value_construct_n@V?$allocator@UQueueFamilyProperties@vk@@@std@@@std@@YAPEAUQueueFamilyProperties@vk@@PEAU12@_KAEAV?$allocator@UQueueFamilyProperties@vk@@@0@@Z 00000001400a1af0 f i Zenith_Vulkan.obj
 0001:000a0b30       ??$getProperties@VDispatchLoaderStatic@vk@@@PhysicalDevice@vk@@QEBA?AUPhysicalDeviceProperties@1@AEBVDispatchLoaderStatic@1@@Z 00000001400a1b30 f i Zenith_Vulkan.obj
 0001:000a0e70       ?BeginFrame@Zenith_Vulkan@@SAXXZ 00000001400a1e70 f   Zenith_Vulkan.obj
 0001:000a0fd0       ?CreateDevice@Zenith_Vulkan@@SAXXZ 00000001400a1fd0 f   Zenith_Vulkan.obj
 0001:000a16d0       ?CreateInstance@Zenith_Vulkan@@SAXXZ 00000001400a26d0 f   Zenith_Vulkan.obj
 0001:000a18b0       ?CreateQueueFamilies@Zenith_Vulkan@@SAXXZ 00000001400a28b0 f   Zenith_Vulkan.obj
 0001:000a1b60       ?EndFrame@Zenith_Vulkan@@SAXXZ 00000001400a2b60 f   Zenith_Vulkan.obj
 0001:000a1f30       ?GetCurrentPerFrameDescriptorPool@Zenith_Vulkan@@SAAEBVDescriptorPool@vk@@XZ 00000001400a2f30 f   Zenith_Vulkan.obj
 0001:000a1f50       ?ImGuiBeginFrame@Zenith_Vulkan@@SAXXZ 00000001400a2f50 f   Zenith_Vulkan.obj
 0001:000a1f70       ?Initialise@Zenith_Vulkan@@SAXXZ 00000001400a2f70 f   Zenith_Vulkan.obj
 0001:000a2570       ?InitialiseImGui@Zenith_Vulkan@@SAXXZ 00000001400a3570 f   Zenith_Vulkan.obj
 0001:000a2830       ?ShouldSubmitDrawCalls@Zenith_Vulkan@@SA?B_NXZ 00000001400a3830 f   Zenith_Vulkan.obj
 0001:000a2840       ?_Insert_node@?$_Tree_val@U?$_Tree_simple_types@I@std@@@std@@QEAAPEAU?$_Tree_node@IPEAX@2@U?$_Tree_id@PEAU?$_Tree_node@IPEAX@std@@@2@QEAU32@@Z 00000001400a3840 f i Zenith_Vulkan.obj
 0001:000a2aa0       ?_Throw_tree_length_error@std@@YAXXZ 00000001400a3aa0 f i Zenith_Vulkan.obj
 0001:000a2ac0       ?deallocate@?$allocator@UDescriptorSetLayoutBinding@vk@@@std@@QEAAXQEAUDescriptorSetLayoutBinding@vk@@_K@Z 00000001400a3ac0 f i Zenith_Vulkan_Pipeline.obj
 0001:000a2ac0       ?deallocate@?$allocator@UQueueFamilyProperties@vk@@@std@@QEAAXQEAUQueueFamilyProperties@vk@@_K@Z 00000001400a3ac0 f i Zenith_Vulkan.obj
 0001:000a2b10       ?resize@?$vector@UQueueFamilyProperties@vk@@V?$allocator@UQueueFamilyProperties@vk@@@std@@@std@@QEAAX_K@Z 00000001400a3b10 f i Zenith_Vulkan.obj
 0001:000a2bd0       ?Reset@Zenith_Vulkan_Buffer@@QEAAXXZ 00000001400a3bd0 f   Zenith_Vulkan_Buffer.obj
 0001:000a2be0       ??$_Uninitialized_value_construct_n@V?$allocator@VImage@vk@@@std@@@std@@YAPEAVImage@vk@@PEAV12@_KAEAV?$allocator@VImage@vk@@@0@@Z 00000001400a3be0 f i Zenith_Vulkan_Swapchain.obj
 0001:000a2be0       ??$_Uninitialized_value_construct_n@V?$allocator@VImageView@vk@@@std@@@std@@YAPEAVImageView@vk@@PEAV12@_KAEAV?$allocator@VImageView@vk@@@0@@Z 00000001400a3be0 f i Zenith_Vulkan_Swapchain.obj
 0001:000a2be0       ??$_Uninitialized_value_construct_n@V?$allocator@VSemaphore@vk@@@std@@@std@@YAPEAVSemaphore@vk@@PEAV12@_KAEAV?$allocator@VSemaphore@vk@@@0@@Z 00000001400a3be0 f i Zenith_Vulkan_CommandBuffer.obj
 0001:000a2c30       ??0?$vector@UWriteDescriptorSet@vk@@V?$allocator@UWriteDescriptorSet@vk@@@std@@@std@@QEAA@_KAEBV?$allocator@UWriteDescriptorSet@vk@@@1@@Z 00000001400a3c30 f i Zenith_Vulkan_CommandBuffer.obj
 0001:000a2d40       ?BeginBind@Zenith_Vulkan_CommandBuffer@@QEAAXW4BindingFrequency@@@Z 00000001400a3d40 f   Zenith_Vulkan_CommandBuffer.obj
 0001:000a2e40       ?BeginRecording@Zenith_Vulkan_CommandBuffer@@QEAAXXZ 00000001400a3e40 f   Zenith_Vulkan_CommandBuffer.obj
 0001:000a2ff0       ?BindBuffer@Zenith_Vulkan_CommandBuffer@@QEAAXPEAVZenith_Vulkan_Buffer@@I@Z 00000001400a3ff0 f   Zenith_Vulkan_CommandBuffer.obj
 0001:000a3130       ?BindTexture@Zenith_Vulkan_CommandBuffer@@QEAAXPEAVZenith_Vulkan_Texture@@I@Z 00000001400a4130 f   Zenith_Vulkan_CommandBuffer.obj
 0001:000a3270       ?BlitTextureToTexture@Zenith_Vulkan_CommandBuffer@@QEAAXPEAVZenith_Vulkan_Texture@@0II@Z 00000001400a4270 f   Zenith_Vulkan_CommandBuffer.obj
 0001:000a33f0       ?CopyBufferToBuffer@Zenith_Vulkan_CommandBuffer@@QEAAXPEAVZenith_Vulkan_Buffer@@0_K1@Z 00000001400a43f0 f   Zenith_Vulkan_CommandBuffer.obj
 0001:000a3440       ?CopyBufferToTexture@Zenith_Vulkan_CommandBuffer@@QEAAXPEAVZenith_Vulkan_Buffer@@PEAVZenith_Vulkan_Texture@@_KI@Z 00000001400a4440 f   Zenith_Vulkan_CommandBuffer.obj
 0001:000a34f0       ?CreateChild@Zenith_Vulkan_CommandBuffer@@QEAAXAEAV1@@Z 00000001400a44f0 f   Zenith_Vulkan_CommandBuffer.obj
 0001:000a3500       ?DrawIndexed@Zenith_Vulkan_CommandBuffer@@QEAAXIIIII@Z 00000001400a4500 f   Zenith_Vulkan_CommandBuffer.obj
 0001:000a3560       ?EndAndCpuWait@Zenith_Vulkan_CommandBuffer@@QEAAX_N@Z 00000001400a4560 f   Zenith_Vulkan_CommandBuffer.obj
 0001:000a36a0       ?EndRecording@Zenith_Vulkan_CommandBuffer@@QEAAXW4RenderOrder@@_N@Z 00000001400a46a0 f   Zenith_Vulkan_CommandBuffer.obj
 0001:000a3790       ?EndRenderPass@Zenith_Vulkan_CommandBuffer@@QEAAXXZ 00000001400a4790 f   Zenith_Vulkan_CommandBuffer.obj
 0001:000a37a0       ?ExecuteChild@Zenith_Vulkan_CommandBuffer@@QEAAXAEAV1@@Z 00000001400a47a0 f   Zenith_Vulkan_CommandBuffer.obj
 0001:000a37b0       ?ImageTransitionBarrier@Zenith_Vulkan_CommandBuffer@@QEAAXVImage@vk@@W4ImageLayout@3@1V?$Flags@W4ImageAspectFlagBits@vk@@@3@V?$Flags@W4PipelineStageFlagBits@vk@@@3@3HH@Z 00000001400a47b0 f   Zenith_Vulkan_CommandBuffer.obj
 0001:000a38f0       ?Initialise@Zenith_Vulkan_CommandBuffer@@QEAAXW4CommandType@@_N@Z 00000001400a48f0 f   Zenith_Vulkan_CommandBuffer.obj
 0001:000a3b10       ?PrepareDrawCallDescriptors@Zenith_Vulkan_CommandBuffer@@AEAAXXZ 00000001400a4b10 f   Zenith_Vulkan_CommandBuffer.obj
 0001:000a4270       ?PushConstant@Zenith_Vulkan_CommandBuffer@@QEAAXPEAX_K@Z 00000001400a5270 f   Zenith_Vulkan_CommandBuffer.obj
 0001:000a42a0       ?SetIndexBuffer@Zenith_Vulkan_CommandBuffer@@QEAAXAEBVFlux_IndexBuffer@@@Z 00000001400a52a0 f   Zenith_Vulkan_CommandBuffer.obj
 0001:000a42c0       ?SetPipeline@Zenith_Vulkan_CommandBuffer@@QEAAXPEAVZenith_Vulkan_Pipeline@@@Z 00000001400a52c0 f   Zenith_Vulkan_CommandBuffer.obj
 0001:000a4330       ?SetVertexBuffer@Zenith_Vulkan_CommandBuffer@@QEAAXAEBVFlux_DynamicVertexBuffer@@I@Z 00000001400a5330 f   Zenith_Vulkan_CommandBuffer.obj
 0001:000a4380       ?SetVertexBuffer@Zenith_Vulkan_CommandBuffer@@QEAAXAEBVFlux_VertexBuffer@@I@Z 00000001400a5380 f   Zenith_Vulkan_CommandBuffer.obj
 0001:000a43c0       ?SubmitTargetSetup@Zenith_Vulkan_CommandBuffer@@QEAAXAEAUFlux_TargetSetup@@_N11@Z 00000001400a53c0 f   Zenith_Vulkan_CommandBuffer.obj
 0001:000a4710       ??$Alloc@$$V@?$VmaPoolAllocator@VBlock@VmaBlockMetadata_TLSF@@@@QEAAPEAVBlock@VmaBlockMetadata_TLSF@@XZ 00000001400a5710 f i Zenith_Vulkan_MemoryManager.obj
 0001:000a4870       ??$getMemoryProperties@VDispatchLoaderStatic@vk@@@PhysicalDevice@vk@@QEBA?AUPhysicalDeviceMemoryProperties@1@AEBVDispatchLoaderStatic@1@@Z 00000001400a5870 f i Zenith_Vulkan_MemoryManager.obj
 0001:000a49b0       ??0VmaAllocator_T@@QEAA@PEBUVmaAllocatorCreateInfo@@@Z 00000001400a59b0 f   Zenith_Vulkan_MemoryManager.obj
 0001:000a5020       ??0VmaCurrentBudgetData@@QEAA@XZ 00000001400a6020 f   Zenith_Vulkan_MemoryManager.obj
 0001:000a5280       ??1?$VmaPoolAllocator@VBlock@VmaBlockMetadata_TLSF@@@@QEAA@XZ 00000001400a6280 f i Zenith_Vulkan_MemoryManager.obj
 0001:000a5330       ??_EVmaBlockMetadata_Linear@@UEAAPEAXI@Z 00000001400a6330 f i Zenith_Vulkan_MemoryManager.obj
 0001:000a5330       ??_GVmaBlockMetadata_Linear@@UEAAPEAXI@Z 00000001400a6330 f i Zenith_Vulkan_MemoryManager.obj
 0001:000a53b0       ??_EVmaBlockMetadata_TLSF@@UEAAPEAXI@Z 00000001400a63b0 f i Zenith_Vulkan_MemoryManager.obj
 0001:000a53b0       ??_GVmaBlockMetadata_TLSF@@UEAAPEAXI@Z 00000001400a63b0 f i Zenith_Vulkan_MemoryManager.obj
 0001:000a5470       ?AddDetailedStatistics@VmaBlockMetadata_Linear@@UEBAXAEAUVmaDetailedStatistics@@@Z 00000001400a6470 f   Zenith_Vulkan_MemoryManager.obj
 0001:000a5840       ?AddDetailedStatistics@VmaBlockMetadata_TLSF@@UEBAXAEAUVmaDetailedStatistics@@@Z 00000001400a6840 f   Zenith_Vulkan_MemoryManager.obj
 0001:000a58f0       ?AddNumber@VmaStringBuilder@@QEAAX_K@Z 00000001400a68f0 f   Zenith_Vulkan_MemoryManager.obj
 0001:000a59a0       ?AddStatistics@VmaBlockMetadata_Linear@@UEBAXAEAUVmaStatistics@@@Z 00000001400a69a0 f   Zenith_Vulkan_MemoryManager.obj
 0001:000a5bd0       ?AddStatistics@VmaBlockMetadata_TLSF@@UEBAXAEAUVmaStatistics@@@Z 00000001400a6bd0 f   Zenith_Vulkan_MemoryManager.obj
 0001:000a5c10       ?Alloc@VmaBlockMetadata_Linear@@UEAAXAEBUVmaAllocationRequest@@W4VmaSuballocationType@@PEAX@Z 00000001400a6c10 f   Zenith_Vulkan_MemoryManager.obj
 0001:000a5d40       ?Alloc@VmaBlockMetadata_TLSF@@UEAAXAEBUVmaAllocationRequest@@W4VmaSuballocationType@@PEAX@Z 00000001400a6d40 f   Zenith_Vulkan_MemoryManager.obj
 0001:000a6030       ?AllocateBuffer@Zenith_Vulkan_MemoryManager@@SAX_KV?$Flags@W4BufferUsageFlagBits@vk@@@vk@@W4MemoryResidency@@AEAVZenith_Vulkan_Buffer@@@Z 00000001400a7030 f   Zenith_Vulkan_MemoryManager.obj
 0001:000a6120       ?AllocateDedicatedMemory@VmaAllocator_T@@AEAA?AW4VkResult@@PEAUVmaPool_T@@_KW4VmaSuballocationType@@AEAVVmaDedicatedAllocationList@@I_N444PEAXMPEAUVkBuffer_T@@PEAUVkImage_T@@UVmaBufferImageUsage@@1PEAPEAUVmaAllocation_T@@PEBX@Z 00000001400a7120 f   Zenith_Vulkan_MemoryManager.obj
 0001:000a65a0       ?AllocateDedicatedMemoryPage@VmaAllocator_T@@AEAA?AW4VkResult@@PEAUVmaPool_T@@_KW4VmaSuballocationType@@IAEBUVkMemoryAllocateInfo@@_N44PEAXPEAPEAUVmaAllocation_T@@@Z 00000001400a75a0 f   Zenith_Vulkan_MemoryManager.obj
 0001:000a67e0       ?AllocateFromBlock@VmaBlockVector@@AEAA?AW4VkResult@@PEAVVmaDeviceMemoryBlock@@_K1IPEAXW4VmaSuballocationType@@IPEAPEAUVmaAllocation_T@@@Z 00000001400a77e0 f   Zenith_Vulkan_MemoryManager.obj
 0001:000a68d0       ?AllocateMemory@VmaAllocator_T@@QEAA?AW4VkResult@@AEBUVkMemoryRequirements@@_N1PEAUVkBuffer_T@@PEAUVkImage_T@@UVmaBufferImageUsage@@AEBUVmaAllocationCreateInfo@@W4VmaSuballocationType@@_KPEAPEAUVmaAllocation_T@@@Z 00000001400a78d0 f   Zenith_Vulkan_MemoryManager.obj
 0001:000a6bb0       ?AllocateMemoryOfType@VmaAllocator_T@@AEAA?AW4VkResult@@PEAUVmaPool_T@@_K1_NPEAUVkBuffer_T@@PEAUVkImage_T@@UVmaBufferImageUsage@@AEBUVmaAllocationCreateInfo@@IW4VmaSuballocationType@@AEAVVmaDedicatedAllocationList@@AEAVVmaBlockVector@@1PEAPEAUVmaAllocation_T@@@Z 00000001400a7bb0 f   Zenith_Vulkan_MemoryManager.obj
 0001:000a7180       ?AllocatePage@VmaBlockVector@@AEAA?AW4VkResult@@_K0AEBUVmaAllocationCreateInfo@@W4VmaSuballocationType@@PEAPEAUVmaAllocation_T@@@Z 00000001400a8180 f   Zenith_Vulkan_MemoryManager.obj
 0001:000a7680       ?AllocateTexture@Zenith_Vulkan_MemoryManager@@SAXIIIW4ColourFormat@@W4DepthStencilFormat@@IIV?$Flags@W4ImageUsageFlagBits@vk@@@vk@@W4MemoryResidency@@AEAVZenith_Vulkan_Texture@@@Z 00000001400a8680 f   Zenith_Vulkan_MemoryManager.obj
 0001:000a7910       ?AllocateVulkanMemory@VmaAllocator_T@@QEAA?AW4VkResult@@PEBUVkMemoryAllocateInfo@@PEAPEAUVkDeviceMemory_T@@@Z 00000001400a8910 f   Zenith_Vulkan_MemoryManager.obj
 0001:000a7a60       ?BeginArray@VmaJsonWriter@@QEAAX_N@Z 00000001400a8a60 f   Zenith_Vulkan_MemoryManager.obj
 0001:000a7af0       ?BeginFrame@Zenith_Vulkan_MemoryManager@@SAXXZ 00000001400a8af0 f   Zenith_Vulkan_MemoryManager.obj
 0001:000a7b00       ?BeginObject@VmaJsonWriter@@QEAAX_N@Z 00000001400a8b00 f   Zenith_Vulkan_MemoryManager.obj
 0001:000a7b90       ?BeginValue@VmaJsonWriter@@AEAAX_N@Z 00000001400a8b90 f   Zenith_Vulkan_MemoryManager.obj
 0001:000a7c40       ?BindBufferMemory@VmaAllocator_T@@QEAA?AW4VkResult@@PEAUVmaAllocation_T@@_KPEAUVkBuffer_T@@PEBX@Z 00000001400a8c40 f   Zenith_Vulkan_MemoryManager.obj
 0001:000a7e30       ?BindImageMemory@VmaAllocator_T@@QEAA?AW4VkResult@@PEAUVmaAllocation_T@@_KPEAUVkImage_T@@PEBX@Z 00000001400a8e30 f   Zenith_Vulkan_MemoryManager.obj
 0001:000a8020       ?CheckBlock@VmaBlockMetadata_TLSF@@AEAA_NAEAVBlock@1@I_K1W4VmaSuballocationType@@PEAUVmaAllocationRequest@@@Z 00000001400a9020 f   Zenith_Vulkan_MemoryManager.obj
 0001:000a81f0       ?CleanupAfterFree@VmaBlockMetadata_Linear@@AEAAXXZ 00000001400a91f0 f   Zenith_Vulkan_MemoryManager.obj
 0001:000a8510       ?Clear@VmaBlockMetadata_Linear@@UEAAXXZ 00000001400a9510 f   Zenith_Vulkan_MemoryManager.obj
 0001:000a8560       ?Clear@VmaBlockMetadata_TLSF@@UEAAXXZ 00000001400a9560 f   Zenith_Vulkan_MemoryManager.obj
 0001:000a8720       ?CommitAllocationRequest@VmaBlockVector@@AEAA?AW4VkResult@@AEAUVmaAllocationRequest@@PEAVVmaDeviceMemoryBlock@@_KIPEAXW4VmaSuballocationType@@PEAPEAUVmaAllocation_T@@@Z 00000001400a9720 f   Zenith_Vulkan_MemoryManager.obj
 0001:000a89a0       ?ContinueString@VmaJsonWriter@@QEAAXPEBD@Z 00000001400a99a0 f   Zenith_Vulkan_MemoryManager.obj
 0001:000a8b60       ?ContinueString_Pointer@VmaJsonWriter@@QEAAXPEBX@Z 00000001400a9b60 f   Zenith_Vulkan_MemoryManager.obj
 0001:000a8be0       ?CreateAllocationRequest@VmaBlockMetadata_Linear@@UEAA_N_K0_NW4VmaSuballocationType@@IPEAUVmaAllocationRequest@@@Z 00000001400a9be0 f   Zenith_Vulkan_MemoryManager.obj
 0001:000a8c30       ?CreateAllocationRequest@VmaBlockMetadata_TLSF@@UEAA_N_K0_NW4VmaSuballocationType@@IPEAUVmaAllocationRequest@@@Z 00000001400a9c30 f   Zenith_Vulkan_MemoryManager.obj
 0001:000a92a0       ?CreateAllocationRequest_LowerAddress@VmaBlockMetadata_Linear@@AEAA_N_K0W4VmaSuballocationType@@IPEAUVmaAllocationRequest@@@Z 00000001400aa2a0 f   Zenith_Vulkan_MemoryManager.obj
 0001:000a9700       ?CreateAllocationRequest_UpperAddress@VmaBlockMetadata_Linear@@AEAA_N_K0W4VmaSuballocationType@@IPEAUVmaAllocationRequest@@@Z 00000001400aa700 f   Zenith_Vulkan_MemoryManager.obj
 0001:000a98f0       ?CreateBlock@VmaBlockVector@@AEAA?AW4VkResult@@_KPEA_K@Z 00000001400aa8f0 f   Zenith_Vulkan_MemoryManager.obj
 0001:000a9af0       ?CreateColourAttachment@Zenith_Vulkan_MemoryManager@@SAXIIW4ColourFormat@@IAEAVZenith_Vulkan_Texture@@@Z 00000001400aaaf0 f   Zenith_Vulkan_MemoryManager.obj
 0001:000a9c30       ?CreateDepthStencilAttachment@Zenith_Vulkan_MemoryManager@@SAXIIW4DepthStencilFormat@@IAEAVZenith_Vulkan_Texture@@@Z 00000001400aac30 f   Zenith_Vulkan_MemoryManager.obj
 0001:000a9d90       ?CreateNewBlock@?$VmaPoolAllocator@UVmaAllocation_T@@@@AEAAAEAUItemBlock@1@XZ 00000001400aad90 f i Zenith_Vulkan_MemoryManager.obj
 0001:000a9e90       ?CreateTexture@Zenith_Vulkan_MemoryManager@@SAXPEBDAEAVZenith_Vulkan_Texture@@@Z 00000001400aae90 f   Zenith_Vulkan_MemoryManager.obj
 0001:000aa230       ?CreateTexture@Zenith_Vulkan_MemoryManager@@SAXPEBXIIIW4ColourFormat@@W4DepthStencilFormat@@_NAEAVZenith_Vulkan_Texture@@@Z 00000001400ab230 f   Zenith_Vulkan_MemoryManager.obj
 0001:000aa3b0       ?CreateTextureCube@Zenith_Vulkan_MemoryManager@@SAXPEBD00000AEAVZenith_Vulkan_Texture@@@Z 00000001400ab3b0 f   Zenith_Vulkan_MemoryManager.obj
 0001:000aa850       ?Destroy@VmaDeviceMemoryBlock@@QEAAXPEAUVmaAllocator_T@@@Z 00000001400ab850 f   Zenith_Vulkan_MemoryManager.obj
 0001:000aa8f0       ?EndFrame@Zenith_Vulkan_MemoryManager@@SAX_N@Z 00000001400ab8f0 f   Zenith_Vulkan_MemoryManager.obj
 0001:000aa930       ?FindFreeBlock@VmaBlockMetadata_TLSF@@AEBAPEAVBlock@1@_KAEAI@Z 00000001400ab930 f   Zenith_Vulkan_MemoryManager.obj
 0001:000aaa30       ?FindMemoryTypeIndex@VmaAllocator_T@@QEBA?AW4VkResult@@IPEBUVmaAllocationCreateInfo@@UVmaBufferImageUsage@@PEAI@Z 00000001400aba30 f   Zenith_Vulkan_MemoryManager.obj
 0001:000aad10       ?FindSuballocation@VmaBlockMetadata_Linear@@AEBAAEAUVmaSuballocation@@_K@Z 00000001400abd10 f   Zenith_Vulkan_MemoryManager.obj
 0001:000aaf10       ?FlushStagingBuffer@Zenith_Vulkan_MemoryManager@@CAXXZ 00000001400abf10 f   Zenith_Vulkan_MemoryManager.obj
 0001:000ab1a0       ?Free@?$VmaPoolAllocator@VBlock@VmaBlockMetadata_TLSF@@@@QEAAXPEAVBlock@VmaBlockMetadata_TLSF@@@Z 00000001400ac1a0 f i Zenith_Vulkan_MemoryManager.obj
 0001:000ab220       ?Free@VmaAllocationObjectAllocator@@QEAAXPEAUVmaAllocation_T@@@Z 00000001400ac220 f   Zenith_Vulkan_MemoryManager.obj
 0001:000ab2f0       ?Free@VmaBlockMetadata_Linear@@UEAAXPEAUVmaAllocHandle_T@@@Z 00000001400ac2f0 f   Zenith_Vulkan_MemoryManager.obj
 0001:000ab590       ?Free@VmaBlockMetadata_TLSF@@UEAAXPEAUVmaAllocHandle_T@@@Z 00000001400ac590 f   Zenith_Vulkan_MemoryManager.obj
 0001:000ab780       ?Free@VmaBlockVector@@QEAAXQEAUVmaAllocation_T@@@Z 00000001400ac780 f   Zenith_Vulkan_MemoryManager.obj
 0001:000abb30       ?FreeBuffer@Zenith_Vulkan_MemoryManager@@SAXPEAVZenith_Vulkan_Buffer@@@Z 00000001400acb30 f   Zenith_Vulkan_MemoryManager.obj
 0001:000abbb0       ?FreeMemory@VmaAllocator_T@@QEAAX_KPEBQEAUVmaAllocation_T@@@Z 00000001400acbb0 f   Zenith_Vulkan_MemoryManager.obj
 0001:000abd20       ?FreeTexture@Zenith_Vulkan_MemoryManager@@SAXPEAVZenith_Vulkan_Texture@@@Z 00000001400acd20 f   Zenith_Vulkan_MemoryManager.obj
 0001:000abdb0       ?FreeVulkanMemory@VmaAllocator_T@@QEAAXI_KPEAUVkDeviceMemory_T@@@Z 00000001400acdb0 f   Zenith_Vulkan_MemoryManager.obj
 0001:000abe40       ?GetAllocationCount@VmaBlockMetadata_Linear@@UEBA_KXZ 00000001400ace40 f   Zenith_Vulkan_MemoryManager.obj
 0001:000abe80       ?GetAllocationCount@VmaBlockMetadata_TLSF@@UEBA_KXZ 00000001400ace80 f i Zenith_Vulkan_MemoryManager.obj
 0001:000abe80       ?GetSumFreeSize@VmaBlockMetadata_Linear@@UEBA_KXZ 00000001400ace80 f i Zenith_Vulkan_MemoryManager.obj
 0001:000abe90       ?GetAllocationInfo@VmaAllocator_T@@QEAAXPEAUVmaAllocation_T@@PEAUVmaAllocationInfo@@@Z 00000001400ace90 f   Zenith_Vulkan_MemoryManager.obj
 0001:000abf70       ?GetAllocationInfo@VmaBlockMetadata_Linear@@UEAAXPEAUVmaAllocHandle_T@@AEAUVmaVirtualAllocationInfo@@@Z 00000001400acf70 f   Zenith_Vulkan_MemoryManager.obj
 0001:000abfa0       ?GetAllocationInfo@VmaBlockMetadata_TLSF@@UEAAXPEAUVmaAllocHandle_T@@AEAUVmaVirtualAllocationInfo@@@Z 00000001400acfa0 f   Zenith_Vulkan_MemoryManager.obj
 0001:000abfc0       ?GetAllocationListBegin@VmaBlockMetadata_TLSF@@UEBAPEAUVmaAllocHandle_T@@XZ 00000001400acfc0 f   Zenith_Vulkan_MemoryManager.obj
 0001:000abff0       ?GetAllocationOffset@VmaBlockMetadata_Linear@@UEBA_KPEAUVmaAllocHandle_T@@@Z 00000001400acff0 f i Zenith_Vulkan_MemoryManager.obj
 0001:000ac000       ?GetAllocationOffset@VmaBlockMetadata_TLSF@@UEBA_KPEAUVmaAllocHandle_T@@@Z 00000001400ad000 f i Zenith_Vulkan_MemoryManager.obj
 0001:000ac010       ?GetAllocationUserData@VmaBlockMetadata_Linear@@UEBAPEAXPEAUVmaAllocHandle_T@@@Z 00000001400ad010 f   Zenith_Vulkan_MemoryManager.obj
 0001:000ac030       ?GetAllocationUserData@VmaBlockMetadata_TLSF@@UEBAPEAXPEAUVmaAllocHandle_T@@@Z 00000001400ad030 f   Zenith_Vulkan_MemoryManager.obj
 0001:000ac040       ?GetFlushOrInvalidateRange@VmaAllocator_T@@AEBA_NPEAUVmaAllocation_T@@_K1AEAUVkMappedMemoryRange@@@Z 00000001400ad040 f   Zenith_Vulkan_MemoryManager.obj
 0001:000ac1a0       ?GetFreeRegionsCount@VmaBlockMetadata_Linear@@UEBA_KXZ 00000001400ad1a0 f   Zenith_Vulkan_MemoryManager.obj
 0001:000ac1b0       ?GetFreeRegionsCount@VmaBlockMetadata_TLSF@@UEBA_KXZ 00000001400ad1b0 f i Zenith_Vulkan_MemoryManager.obj
 0001:000ac1c0       ?GetHeapBudgets@VmaAllocator_T@@QEAAXPEAUVmaBudget@@II@Z 00000001400ad1c0 f   Zenith_Vulkan_MemoryManager.obj
 0001:000ac390       ?GetListIndex@VmaBlockMetadata_TLSF@@AEBAI_K@Z 00000001400ad390 f   Zenith_Vulkan_MemoryManager.obj
 0001:000ac400       ?GetNextAllocation@VmaBlockMetadata_TLSF@@UEBAPEAUVmaAllocHandle_T@@PEAU2@@Z 00000001400ad400 f   Zenith_Vulkan_MemoryManager.obj
 0001:000ac430       ?GetNextFreeRegionSize@VmaBlockMetadata_TLSF@@UEBA_KPEAUVmaAllocHandle_T@@@Z 00000001400ad430 f   Zenith_Vulkan_MemoryManager.obj
 0001:000ac450       ?GetSumFreeSize@VmaBlockMetadata_TLSF@@UEBA_KXZ 00000001400ad450 f i Zenith_Vulkan_MemoryManager.obj
 0001:000ac460       ?ImageTransitionBarrier@Zenith_Vulkan_MemoryManager@@SAXVImage@vk@@W4ImageLayout@3@1V?$Flags@W4ImageAspectFlagBits@vk@@@3@V?$Flags@W4PipelineStageFlagBits@vk@@@3@3II@Z 00000001400ad460 f   Zenith_Vulkan_MemoryManager.obj
 0001:000ac570       ?ImportVulkanFunctions_Custom@VmaAllocator_T@@AEAAXPEBUVmaVulkanFunctions@@@Z 00000001400ad570 f   Zenith_Vulkan_MemoryManager.obj
 0001:000ac730       ?ImportVulkanFunctions_Dynamic@VmaAllocator_T@@AEAAXXZ 00000001400ad730 f   Zenith_Vulkan_MemoryManager.obj
 0001:000acca0       ?IncrementallySortBlocks@VmaBlockVector@@AEAAXXZ 00000001400adca0 f   Zenith_Vulkan_MemoryManager.obj
 0001:000acd50       ?Init@VmaBlockMetadata_Linear@@UEAAX_K@Z 00000001400add50 f   Zenith_Vulkan_MemoryManager.obj
 0001:000acd60       ?Init@VmaBlockMetadata_TLSF@@UEAAX_K@Z 00000001400add60 f   Zenith_Vulkan_MemoryManager.obj
 0001:000acf20       ?Init@VmaDeviceMemoryBlock@@QEAAXPEAUVmaAllocator_T@@PEAUVmaPool_T@@IPEAUVkDeviceMemory_T@@_KII3@Z 00000001400adf20 f   Zenith_Vulkan_MemoryManager.obj
 0001:000ad0f0       ?InitBufferUsage@VmaAllocation_T@@QEAAXAEBUVkBufferCreateInfo@@_N@Z 00000001400ae0f0 f i Zenith_Vulkan_MemoryManager.obj
 0001:000ad130       ?Initialise@Zenith_Vulkan_MemoryManager@@SAXXZ 00000001400ae130 f   Zenith_Vulkan_MemoryManager.obj
 0001:000ad220       ?InitialiseConstantBuffer@Zenith_Vulkan_MemoryManager@@SAXPEBX_KAEAVFlux_ConstantBuffer@@@Z 00000001400ae220 f   Zenith_Vulkan_MemoryManager.obj
 0001:000ad290       ?InitialiseDynamicVertexBuffer@Zenith_Vulkan_MemoryManager@@SAXPEBX_KAEAVFlux_DynamicVertexBuffer@@_N@Z 00000001400ae290 f   Zenith_Vulkan_MemoryManager.obj
 0001:000ad310       ?InitialiseIndexBuffer@Zenith_Vulkan_MemoryManager@@SAXPEBX_KAEAVFlux_IndexBuffer@@@Z 00000001400ae310 f   Zenith_Vulkan_MemoryManager.obj
 0001:000ad410       ?InitialiseStagingBuffer@Zenith_Vulkan_MemoryManager@@CAXXZ 00000001400ae410 f   Zenith_Vulkan_MemoryManager.obj
 0001:000ad650       ?InitialiseVertexBuffer@Zenith_Vulkan_MemoryManager@@SAXPEBX_KAEAVFlux_VertexBuffer@@_N@Z 00000001400ae650 f   Zenith_Vulkan_MemoryManager.obj
 0001:000ad6a0       ?InsertFreeBlock@VmaBlockMetadata_TLSF@@AEAAXPEAVBlock@1@@Z 00000001400ae6a0 f   Zenith_Vulkan_MemoryManager.obj
 0001:000ad7b0       ?IsEmpty@VmaBlockMetadata_Linear@@UEBA_NXZ 00000001400ae7b0 f i Zenith_Vulkan_MemoryManager.obj
 0001:000ad7d0       ?IsEmpty@VmaBlockMetadata_TLSF@@UEBA_NXZ 00000001400ae7d0 f i Zenith_Vulkan_MemoryManager.obj
 0001:000ad7e0       ?Map@VmaAllocator_T@@QEAA?AW4VkResult@@PEAUVmaAllocation_T@@PEAPEAX@Z 00000001400ae7e0 f   Zenith_Vulkan_MemoryManager.obj
 0001:000ad920       ?Map@VmaDeviceMemoryBlock@@QEAA?AW4VkResult@@PEAUVmaAllocator_T@@IPEAPEAX@Z 00000001400ae920 f   Zenith_Vulkan_MemoryManager.obj
 0001:000adac0       ?PrintDetailedMap@VmaBlockMetadata_Linear@@UEBAXAEAVVmaJsonWriter@@@Z 00000001400aeac0 f   Zenith_Vulkan_MemoryManager.obj
 0001:000ae0e0       ?PrintDetailedMap@VmaBlockMetadata_TLSF@@UEBAXAEAVVmaJsonWriter@@@Z 00000001400af0e0 f   Zenith_Vulkan_MemoryManager.obj
 0001:000ae2d0       ?PrintDetailedMap_Allocation@VmaBlockMetadata@@IEBAXAEAVVmaJsonWriter@@_K1PEAX@Z 00000001400af2d0 f   Zenith_Vulkan_MemoryManager.obj
 0001:000ae500       ?PrintDetailedMap_Begin@VmaBlockMetadata@@IEBAXAEAVVmaJsonWriter@@_K11@Z 00000001400af500 f   Zenith_Vulkan_MemoryManager.obj
 0001:000ae760       ?PrintDetailedMap_UnusedRange@VmaBlockMetadata@@IEBAXAEAVVmaJsonWriter@@_K1@Z 00000001400af760 f   Zenith_Vulkan_MemoryManager.obj
 0001:000ae980       ?PrintParameters@VmaAllocation_T@@QEBAXAEAVVmaJsonWriter@@@Z 00000001400af980 f   Zenith_Vulkan_MemoryManager.obj
 0001:000aece0       ?RemoveFreeBlock@VmaBlockMetadata_TLSF@@AEAAXPEAVBlock@1@@Z 00000001400afce0 f   Zenith_Vulkan_MemoryManager.obj
 0001:000aedd0       ?SetAllocationUserData@VmaBlockMetadata_Linear@@UEAAXPEAUVmaAllocHandle_T@@PEAX@Z 00000001400afdd0 f   Zenith_Vulkan_MemoryManager.obj
 0001:000aedf0       ?SetAllocationUserData@VmaBlockMetadata_TLSF@@UEAAXPEAUVmaAllocHandle_T@@PEAX@Z 00000001400afdf0 f   Zenith_Vulkan_MemoryManager.obj
 0001:000aee00       ?SetName@VmaAllocation_T@@QEAAXPEAUVmaAllocator_T@@PEBD@Z 00000001400afe00 f   Zenith_Vulkan_MemoryManager.obj
 0001:000aeef0       ?Unmap@VmaDeviceMemoryBlock@@QEAAXPEAUVmaAllocator_T@@I@Z 00000001400afef0 f   Zenith_Vulkan_MemoryManager.obj
 0001:000aefe0       ?Unregister@VmaDedicatedAllocationList@@QEAAXPEAUVmaAllocation_T@@@Z 00000001400affe0 f   Zenith_Vulkan_MemoryManager.obj
 0001:000af070       ?UpdateVulkanBudget@VmaAllocator_T@@AEAAXXZ 00000001400b0070 f   Zenith_Vulkan_MemoryManager.obj
 0001:000af200       ?UploadBufferData@Zenith_Vulkan_MemoryManager@@SAXAEAVZenith_Vulkan_Buffer@@PEBX_K@Z 00000001400b0200 f   Zenith_Vulkan_MemoryManager.obj
 0001:000af4d0       ?UploadTextureData@Zenith_Vulkan_MemoryManager@@SAXAEAVZenith_Vulkan_Texture@@PEBX_K@Z 00000001400b04d0 f   Zenith_Vulkan_MemoryManager.obj
 0001:000af780       ?Validate@VmaBlockMetadata_Linear@@UEBA_NXZ 00000001400b0780 f   Zenith_Vulkan_MemoryManager.obj
 0001:000afb90       ?Validate@VmaBlockMetadata_TLSF@@UEBA_NXZ 00000001400b0b90 f   Zenith_Vulkan_MemoryManager.obj
 0001:000affd0       ?WriteIndent@VmaJsonWriter@@AEAAX_N@Z 00000001400b0fd0 f   Zenith_Vulkan_MemoryManager.obj
 0001:000b0090       ?resize@?$VmaVector@DU?$VmaStlAllocator@D@@@@QEAAX_K@Z 00000001400b1090 f i Zenith_Vulkan_MemoryManager.obj
 0001:000b0180       ?resize@?$VmaVector@PEAVVmaDeviceMemoryBlock@@U?$VmaStlAllocator@PEAVVmaDeviceMemoryBlock@@@@@@QEAAX_K@Z 00000001400b1180 f i Zenith_Vulkan_MemoryManager.obj
 0001:000b0280       ?resize@?$VmaVector@UItemBlock@?$VmaPoolAllocator@UVmaAllocation_T@@@@U?$VmaStlAllocator@UItemBlock@?$VmaPoolAllocator@UVmaAllocation_T@@@@@@@@QEAAX_K@Z 00000001400b1280 f i Zenith_Vulkan_MemoryManager.obj
 0001:000b0280       ?resize@?$VmaVector@UItemBlock@?$VmaPoolAllocator@VBlock@VmaBlockMetadata_TLSF@@@@U?$VmaStlAllocator@UItemBlock@?$VmaPoolAllocator@VBlock@VmaBlockMetadata_TLSF@@@@@@@@QEAAX_K@Z 00000001400b1280 f i Zenith_Vulkan_MemoryManager.obj
 0001:000b0380       ?resize@?$VmaVector@UStackItem@VmaJsonWriter@@U?$VmaStlAllocator@UStackItem@VmaJsonWriter@@@@@@QEAAX_K@Z 00000001400b1380 f i Zenith_Vulkan_MemoryManager.obj
 0001:000b0480       ?resize@?$VmaVector@UVmaSuballocation@@U?$VmaStlAllocator@UVmaSuballocation@@@@@@QEAAX_K@Z 00000001400b1480 f i Zenith_Vulkan_MemoryManager.obj
 0001:000b0580       snprintf                   00000001400b1580 f i Zenith_Vulkan_MemoryManager.obj
 0001:000b05e0       vmaCreateBuffer            00000001400b15e0 f   Zenith_Vulkan_MemoryManager.obj
 0001:000b0880       vmaCreateImage             00000001400b1880 f   Zenith_Vulkan_MemoryManager.obj
 0001:000b0b10       ??$?HDU?$char_traits@D@std@@V?$allocator@D@1@@std@@YA?AV?$basic_string@DU?$char_traits@D@std@@V?$allocator@D@2@@0@AEBV10@0@Z 00000001400b1b10 f i Zenith_Vulkan_Pipeline.obj
 0001:000b0c60       ??$_Assign_counted_range@PEAUPipelineColorBlendAttachmentState@vk@@@?$vector@UPipelineColorBlendAttachmentState@vk@@V?$allocator@UPipelineColorBlendAttachmentState@vk@@@std@@@std@@AEAAXPEAUPipelineColorBlendAttachmentState@vk@@_K@Z 00000001400b1c60 f i Zenith_Vulkan_Pipeline.obj
 0001:000b0e20       ??$_Assign_counted_range@PEAUPushConstantRange@vk@@@?$vector@UPushConstantRange@vk@@V?$allocator@UPushConstantRange@vk@@@std@@@std@@AEAAXPEAUPushConstantRange@vk@@_K@Z 00000001400b1e20 f i Zenith_Vulkan_Pipeline.obj
 0001:000b1030       ??$_Assign_counted_range@PEAVDescriptorSetLayout@vk@@@?$vector@VDescriptorSetLayout@vk@@V?$allocator@VDescriptorSetLayout@vk@@@std@@@std@@AEAAXPEAVDescriptorSetLayout@vk@@_K@Z 00000001400b2030 f i Zenith_Vulkan_Pipeline.obj
 0001:000b1200       ??$_Assign_counted_range@PEAW4ColourFormat@@@?$vector@W4ColourFormat@@V?$allocator@W4ColourFormat@@@std@@@std@@AEAAXPEAW4ColourFormat@@_K@Z 00000001400b2200 f i Zenith_Vulkan_Pipeline.obj
 0001:000b13d0       ??$_Emplace_reallocate@AEAUDescriptorSetLayoutBinding@vk@@@?$vector@UDescriptorSetLayoutBinding@vk@@V?$allocator@UDescriptorSetLayoutBinding@vk@@@std@@@std@@AEAAPEAUDescriptorSetLayoutBinding@vk@@QEAU23@AEAU23@@Z 00000001400b23d0 f i Zenith_Vulkan_Pipeline.obj
 0001:000b15e0       ??$_Emplace_reallocate@AEAUPipelineColorBlendAttachmentState@vk@@@?$vector@UPipelineColorBlendAttachmentState@vk@@V?$allocator@UPipelineColorBlendAttachmentState@vk@@@std@@@std@@AEAAPEAUPipelineColorBlendAttachmentState@vk@@QEAU23@AEAU23@@Z 00000001400b25e0 f i Zenith_Vulkan_Pipeline.obj
 0001:000b1780       ??$_Emplace_reallocate@AEBUAttachmentDescription@vk@@@?$vector@UAttachmentDescription@vk@@V?$allocator@UAttachmentDescription@vk@@@std@@@std@@AEAAPEAUAttachmentDescription@vk@@QEAU23@AEBU23@@Z 00000001400b2780 f i Zenith_Vulkan_Pipeline.obj
 0001:000b1990       ??$_Emplace_reallocate@AEBUVertexInputAttributeDescription@vk@@@?$vector@UVertexInputAttributeDescription@vk@@V?$allocator@UVertexInputAttributeDescription@vk@@@std@@@std@@AEAAPEAUVertexInputAttributeDescription@vk@@QEAU23@AEBU23@@Z 00000001400b2990 f i Zenith_Vulkan_Pipeline.obj
 0001:000b1990       ??$_Emplace_reallocate@UMeshEntry@Zenith_ModelComponent@@@?$vector@UMeshEntry@Zenith_ModelComponent@@V?$allocator@UMeshEntry@Zenith_ModelComponent@@@std@@@std@@AEAAPEAUMeshEntry@Zenith_ModelComponent@@QEAU23@$$QEAU23@@Z 00000001400b2990 f i PlayerController_Behaviour.obj
 0001:000b1b30       ??$_Emplace_reallocate@V?$Flags@W4DescriptorBindingFlagBits@vk@@@vk@@@?$vector@V?$Flags@W4DescriptorBindingFlagBits@vk@@@vk@@V?$allocator@V?$Flags@W4DescriptorBindingFlagBits@vk@@@vk@@@std@@@std@@AEAAPEAV?$Flags@W4DescriptorBindingFlagBits@vk@@@vk@@QEAV23@$$QEAV23@@Z 00000001400b2b30 f i Zenith_Vulkan_Pipeline.obj
 0001:000b1c90       ??0?$basic_ifstream@DU?$char_traits@D@std@@@std@@QEAA@PEBDHH@Z 00000001400b2c90 f i Zenith_Vulkan_Pipeline.obj
 0001:000b1ee0       ??0Zenith_Vulkan_DescriptorSetLayoutBuilder@@QEAA@AEBV0@@Z 00000001400b2ee0 f i Zenith_Vulkan_Pipeline.obj
 0001:000b2040       ??0Zenith_Vulkan_PipelineBuilder@@QEAA@XZ 00000001400b3040 f   Zenith_Vulkan_Pipeline.obj
 0001:000b2370       ??0Zenith_Vulkan_PipelineSpecification@@QEAA@UFlux_VertexInputDescription@@PEAVZenith_Vulkan_Shader@@V?$vector@UFlux_BlendState@@V?$allocator@UFlux_BlendState@@@std@@@std@@_N3W4DepthCompareFunc@@W4DepthStencilFormat@@33V?$array@I$02@4@6AEAUFlux_TargetSetup@@3@Z 00000001400b3370 f   Zenith_Vulkan_Pipeline.obj
 0001:000b2560       ??1Zenith_Vulkan_DescriptorSetLayoutBuilder@@QEAA@XZ 00000001400b3560 f i Zenith_Vulkan_Pipeline.obj
 0001:000b2620       ??1Zenith_Vulkan_Pipeline@@QEAA@XZ 00000001400b3620 f   Zenith_Vulkan_Pipeline.obj
 0001:000b2680       ??1Zenith_Vulkan_Shader@@QEAA@XZ 00000001400b3680 f   Zenith_Vulkan_Pipeline.obj
 0001:000b2710       ??4Zenith_Vulkan_PipelineBuilder@@QEAAAEAV0@AEBV0@@Z 00000001400b3710 f i Zenith_Vulkan_Pipeline.obj
 0001:000b2a50       ??_D?$basic_ifstream@DU?$char_traits@D@std@@@std@@QEAAXXZ 00000001400b3a50 f i Zenith_Vulkan_Pipeline.obj
 0001:000b2ae4       ??_E?$basic_ifstream@DU?$char_traits@D@std@@@std@@$4PPPPPPPM@A@EAAPEAXI@Z 00000001400b3ae4 f i Zenith_Vulkan_Pipeline.obj
 0001:000b2af0       ??_E?$basic_ifstream@DU?$char_traits@D@std@@@std@@UEAAPEAXI@Z 00000001400b3af0 f i Zenith_Vulkan_Pipeline.obj
 0001:000b2af0       ??_G?$basic_ifstream@DU?$char_traits@D@std@@@std@@UEAAPEAXI@Z 00000001400b3af0 f i Zenith_Vulkan_Pipeline.obj
 0001:000b2b30       ?Build@Zenith_Vulkan_DescriptorSetLayoutBuilder@@QEAA?AVDescriptorSetLayout@vk@@VDevice@3@@Z 00000001400b3b30 f i Zenith_Vulkan_Pipeline.obj
 0001:000b2d00       ?Build@Zenith_Vulkan_PipelineBuilder@@QEAAXAEAVZenith_Vulkan_Pipeline@@AEBUZenith_Vulkan_PipelineSpecification@@VPipelineCache@vk@@@Z 00000001400b3d00 f   Zenith_Vulkan_Pipeline.obj
 0001:000b2ff0       ?CreateShaderModule@Zenith_Vulkan_Shader@@AEAA?AVShaderModule@vk@@PEBD_K@Z 00000001400b3ff0 f   Zenith_Vulkan_Pipeline.obj
 0001:000b30d0       ?FromSpecification@Zenith_Vulkan_PipelineBuilder@@SAXAEAVZenith_Vulkan_Pipeline@@AEBUZenith_Vulkan_PipelineSpecification@@@Z 00000001400b40d0 f   Zenith_Vulkan_Pipeline.obj
 0001:000b3710       ?HandleDescriptors@Zenith_Vulkan_PipelineBuilder@@KA?AUDescriptorThings@1@AEBUZenith_Vulkan_PipelineSpecification@@AEAV1@@Z 00000001400b4710 f   Zenith_Vulkan_Pipeline.obj
 0001:000b3e30       ?Initialise@Zenith_Vulkan_Shader@@QEAAXAEBV?$basic_string@DU?$char_traits@D@std@@V?$allocator@D@2@@std@@0000@Z 00000001400b4e30 f   Zenith_Vulkan_Pipeline.obj
 0001:000b46e0       ?TargetSetupToFramebuffer@Zenith_Vulkan_Pipeline@@SA?AVFramebuffer@vk@@AEAUFlux_TargetSetup@@IIAEBVRenderPass@3@@Z 00000001400b56e0 f   Zenith_Vulkan_Pipeline.obj
 0001:000b4880       ?TargetSetupToRenderPass@Zenith_Vulkan_Pipeline@@SA?AVRenderPass@vk@@AEAUFlux_TargetSetup@@W4LoadAction@@W4StoreAction@@12W4RenderTargetUsage@@@Z 00000001400b5880 f   Zenith_Vulkan_Pipeline.obj
 0001:000b4f70       ?VertexDescToVulkanDesc@Zenith_Vulkan@@SA?AUPipelineVertexInputStateCreateInfo@vk@@AEBUFlux_VertexInputDescription@@AEAV?$vector@UVertexInputBindingDescription@vk@@V?$allocator@UVertexInputBindingDescription@vk@@@std@@@std@@AEAV?$vector@UVertexInputAttributeDescription@vk@@V?$allocator@UVertexInputAttributeDescription@vk@@@std@@@6@@Z 00000001400b5f70 f i Zenith_Vulkan_Pipeline.obj
 0001:000b5340       ?WithDescriptorSetLayout@Zenith_Vulkan_PipelineBuilder@@QEAAAEAV1@IVDescriptorSetLayout@vk@@@Z 00000001400b6340 f   Zenith_Vulkan_Pipeline.obj
 0001:000b53f0       ?_Buy_raw@?$vector@UDescriptorSetLayoutBinding@vk@@V?$allocator@UDescriptorSetLayoutBinding@vk@@@std@@@std@@AEAAX_K@Z 00000001400b63f0 f i Zenith_Vulkan_Pipeline.obj
 0001:000b5480       ?_Buy_raw@?$vector@V?$Flags@W4DescriptorBindingFlagBits@vk@@@vk@@V?$allocator@V?$Flags@W4DescriptorBindingFlagBits@vk@@@vk@@@std@@@std@@AEAAX_K@Z 00000001400b6480 f i Zenith_Vulkan_Pipeline.obj
 0001:000b5510       ?_Ipfx@?$basic_istream@DU?$char_traits@D@std@@@std@@QEAA_N_N@Z 00000001400b6510 f i Zenith_Vulkan_Pipeline.obj
 0001:000b5750       ?_Tidy@?$vector@UDescriptorSetLayoutBinding@vk@@V?$allocator@UDescriptorSetLayoutBinding@vk@@@std@@@std@@AEAAXXZ 00000001400b6750 f i Zenith_Vulkan_Pipeline.obj
 0001:000b57d0       ?deallocate@?$allocator@UAttachmentDescription@vk@@@std@@QEAAXQEAUAttachmentDescription@vk@@_K@Z 00000001400b67d0 f i Zenith_Vulkan_Pipeline.obj
 0001:000b5820       ?read@?$basic_istream@DU?$char_traits@D@std@@@std@@QEAAAEAV12@PEAD_J@Z 00000001400b6820 f i Zenith_Vulkan_Pipeline.obj
 0001:000b5960       ?seekg@?$basic_istream@DU?$char_traits@D@std@@@std@@QEAAAEAV12@V?$fpos@U_Mbstatet@@@2@@Z 00000001400b6960 f i Zenith_Vulkan_Pipeline.obj
 0001:000b5b60       ?snextc@?$basic_streambuf@DU?$char_traits@D@std@@@std@@QEAAHXZ 00000001400b6b60 f i Zenith_Vulkan_Pipeline.obj
 0001:000b5c10       ?tellg@?$basic_istream@DU?$char_traits@D@std@@@std@@QEAA?AV?$fpos@U_Mbstatet@@@2@XZ 00000001400b6c10 f i Zenith_Vulkan_Pipeline.obj
 0001:000b5ce0       ??$_Resize_reallocate@U_Value_init_tag@std@@@?$vector@USurfaceFormatKHR@vk@@V?$allocator@USurfaceFormatKHR@vk@@@std@@@std@@AEAAX_KAEBU_Value_init_tag@1@@Z 00000001400b6ce0 f i Zenith_Vulkan_Swapchain.obj
 0001:000b5e90       ??$_Resize_reallocate@U_Value_init_tag@std@@@?$vector@W4PresentModeKHR@vk@@V?$allocator@W4PresentModeKHR@vk@@@std@@@std@@AEAAX_KAEBU_Value_init_tag@1@@Z 00000001400b6e90 f i Zenith_Vulkan_Swapchain.obj
 0001:000b5ff0       ??1SwapChainSupportDetails@@QEAA@XZ 00000001400b6ff0 f i Zenith_Vulkan_Swapchain.obj
 0001:000b60a0       ?BeginFrame@Zenith_Vulkan_Swapchain@@SA_NXZ 00000001400b70a0 f   Zenith_Vulkan_Swapchain.obj
 0001:000b61a0       ?CopyToFramebuffer@Zenith_Vulkan_Swapchain@@SAXXZ 00000001400b71a0 f   Zenith_Vulkan_Swapchain.obj
 0001:000b6540       ?EndFrame@Zenith_Vulkan_Swapchain@@SAXXZ 00000001400b7540 f   Zenith_Vulkan_Swapchain.obj
 0001:000b6620       ?GetCurrentImageAvailableSemaphore@Zenith_Vulkan_Swapchain@@SAAEAVSemaphore@vk@@XZ 00000001400b7620 f   Zenith_Vulkan_Swapchain.obj
 0001:000b6640       ?GetCurrentInFlightFence@Zenith_Vulkan_Swapchain@@SAAEAVFence@vk@@XZ 00000001400b7640 f   Zenith_Vulkan_Swapchain.obj
 0001:000b6660       ?GetCurrentRenderCompleteSemaphore@Zenith_Vulkan_Swapchain@@SAAEAVSemaphore@vk@@XZ 00000001400b7660 f   Zenith_Vulkan_Swapchain.obj
 0001:000b6680       ?Initialise@Zenith_Vulkan_Swapchain@@SAXXZ 00000001400b7680 f   Zenith_Vulkan_Swapchain.obj
 0001:000b7130       ?InitialiseCopyToFramebufferCommands@@YAXXZ 00000001400b8130 f   Zenith_Vulkan_Swapchain.obj
 0001:000b7c70       ?ConvertToVkFormat_Colour@Zenith_Vulkan_Texture@@SA?AW4Format@vk@@W4ColourFormat@@@Z 00000001400b8c70 f   Zenith_Vulkan_Texture.obj
 0001:000b7d20       ?ConvertToVkFormat_DepthStencil@Zenith_Vulkan_Texture@@SA?AW4Format@vk@@W4DepthStencilFormat@@@Z 00000001400b8d20 f   Zenith_Vulkan_Texture.obj
 0001:000b7d60       ?ConvertToVkLoadAction@Zenith_Vulkan_Texture@@SA?AW4AttachmentLoadOp@vk@@W4LoadAction@@@Z 00000001400b8d60 f   Zenith_Vulkan_Texture.obj
 0001:000b7db0       ?ConvertToVkStoreAction@Zenith_Vulkan_Texture@@SA?AW4AttachmentStoreOp@vk@@W4StoreAction@@@Z 00000001400b8db0 f   Zenith_Vulkan_Texture.obj
 0001:000b7df0       ?ConvertToVkTargetUsage@Zenith_Vulkan_Texture@@SA?AW4ImageLayout@vk@@W4RenderTargetUsage@@W4RenderTargetType@@@Z 00000001400b8df0 f   Zenith_Vulkan_Texture.obj
 0001:000b7e60       ?InitialiseDefault@Zenith_Vulkan_Sampler@@SAXAEAV1@@Z 00000001400b8e60 f   Zenith_Vulkan_Texture.obj
 0001:000b7f30       ?Reset@Zenith_Vulkan_Texture@@QEAAXXZ 00000001400b8f30 f   Zenith_Vulkan_Texture.obj
 0001:000b7f40       ??0Zenith_Window@@QEAA@PEBDII@Z 00000001400b8f40 f   Zenith_Windows_Window.obj
 0001:000b8010       ??_EZenith_Window@@UEAAPEAXI@Z 00000001400b9010 f i Zenith_Windows_Window.obj
 0001:000b8010       ??_GZenith_Window@@UEAAPEAXI@Z 00000001400b9010 f i Zenith_Windows_Window.obj
 0001:000b8040       ?BeginFrame@Zenith_Window@@QEAAXXZ 00000001400b9040 f   Zenith_Windows_Window.obj
 0001:000b8060       ?GetMousePosition@Zenith_Window@@QEAAXAEAU?$vec@$01N$0A@@glm@@@Z 00000001400b9060 f   Zenith_Windows_Window.obj
 0001:000b8070       ?IsKeyDown@Zenith_Window@@QEAA_NH@Z 00000001400b9070 f   Zenith_Windows_Window.obj
 0001:000b80b0       ?AddButton@Zenith_DebugVariables@@SAXV?$vector@V?$basic_string@DU?$char_traits@D@std@@V?$allocator@D@2@@std@@V?$allocator@V?$basic_string@DU?$char_traits@D@std@@V?$allocator@D@2@@std@@@2@@std@@P6AXXZ@Z 00000001400b90b0 f i Zenith_Main.obj
 0001:000b8180       main                       00000001400b9180 f   Zenith_Main.obj
 0001:000b8830       ??$?DN$0A@@glm@@YA?AU?$vec@$03N$0A@@0@AEBU?$mat@$03$03N$0A@@0@AEBU10@@Z 00000001400b9830 f i PlayerController_Behaviour.obj
 0001:000b89d0       ??$AddComponent@VZenith_ModelComponent@@$$V@Zenith_Entity@@QEAAAEAVZenith_ModelComponent@@XZ 00000001400b99d0 f i PlayerController_Behaviour.obj
 0001:000b8ba0       ??$GetComponent@VZenith_CameraComponent@@@Zenith_Entity@@QEAAAEAVZenith_CameraComponent@@XZ 00000001400b9ba0 f i PlayerController_Behaviour.obj
 0001:000b8cd0       ??$HasComponent@VZenith_ColliderComponent@@@Zenith_Entity@@QEAA_NXZ 00000001400b9cd0 f i PlayerController_Behaviour.obj
 0001:000b8d80       ??$assure@VZenith_ColliderComponent@@@?$basic_registry@W4entity@entt@@V?$allocator@W4entity@entt@@@std@@@entt@@AEAAAEA_PI@Z 00000001400b9d80 f i PlayerController_Behaviour.obj
 0001:000b8fd0       ??$quat_cast@M$0A@@glm@@YA?AU?$qua@M$0A@@0@AEBU?$mat@$03$03M$0A@@0@@Z 00000001400b9fd0 f i PlayerController_Behaviour.obj
 0001:000b91a0       ??0PlayerController_Behaviour@@QEAA@AEAVZenith_Entity@@@Z 00000001400ba1a0 f   PlayerController_Behaviour.obj
 0001:000b94e0       ??0Zenith_ColliderComponent@@QEAA@AEBV0@@Z 00000001400ba4e0 f i PlayerController_Behaviour.obj
 0001:000b9570       ??1?$basic_storage@VZenith_ColliderComponent@@W4entity@entt@@V?$allocator@VZenith_ColliderComponent@@@std@@X@entt@@UEAA@XZ 00000001400ba570 f i PlayerController_Behaviour.obj
 0001:000b95f0       ??1Zenith_ColliderComponent@@QEAA@XZ 00000001400ba5f0 f i PlayerController_Behaviour.obj
 0001:000b96b0       ??1Zenith_ScriptBehaviour@@UEAA@XZ 00000001400ba6b0 f i PlayerController_Behaviour.obj
 0001:000b9720       ??4Zenith_ColliderComponent@@QEAAAEAV0@AEBV0@@Z 00000001400ba720 f i PlayerController_Behaviour.obj
 0001:000b97c0       ??_E?$_Ref_count_obj_alloc3@V?$basic_sigh_mixin@V?$basic_storage@VZenith_ColliderComponent@@W4entity@entt@@V?$allocator@VZenith_ColliderComponent@@@std@@X@entt@@V?$basic_registry@W4entity@entt@@V?$allocator@W4entity@entt@@@std@@@2@@entt@@V?$allocator@W4entity@entt@@@std@@@std@@EEAAPEAXI@Z 00000001400ba7c0 f i PlayerController_Behaviour.obj
 0001:000b97c0       ??_G?$_Ref_count_obj_alloc3@V?$basic_sigh_mixin@V?$basic_storage@VZenith_ColliderComponent@@W4entity@entt@@V?$allocator@VZenith_ColliderComponent@@@std@@X@entt@@V?$basic_registry@W4entity@entt@@V?$allocator@W4entity@entt@@@std@@@2@@entt@@V?$allocator@W4entity@entt@@@std@@@std@@EEAAPEAXI@Z 00000001400ba7c0 f i PlayerController_Behaviour.obj
 0001:000b97f0       ??_E?$basic_sigh_mixin@V?$basic_storage@VZenith_ColliderComponent@@W4entity@entt@@V?$allocator@VZenith_ColliderComponent@@@std@@X@entt@@V?$basic_registry@W4entity@entt@@V?$allocator@W4entity@entt@@@std@@@2@@entt@@UEAAPEAXI@Z 00000001400ba7f0 f i PlayerController_Behaviour.obj
 0001:000b97f0       ??_G?$basic_sigh_mixin@V?$basic_storage@VZenith_ColliderComponent@@W4entity@entt@@V?$allocator@VZenith_ColliderComponent@@@std@@X@entt@@V?$basic_registry@W4entity@entt@@V?$allocator@W4entity@entt@@@std@@@2@@entt@@UEAAPEAXI@Z 00000001400ba7f0 f i PlayerController_Behaviour.obj
 0001:000b9940       ??_E?$basic_storage@VZenith_ColliderComponent@@W4entity@entt@@V?$allocator@VZenith_ColliderComponent@@@std@@X@entt@@UEAAPEAXI@Z 00000001400ba940 f i PlayerController_Behaviour.obj
 0001:000b9940       ??_G?$basic_storage@VZenith_ColliderComponent@@W4entity@entt@@V?$allocator@VZenith_ColliderComponent@@@std@@X@entt@@UEAAPEAXI@Z 00000001400ba940 f i PlayerController_Behaviour.obj
 0001:000b9980       ??_EPlayerController_Behaviour@@UEAAPEAXI@Z 00000001400ba980 f i PlayerController_Behaviour.obj
 0001:000b9980       ??_GPlayerController_Behaviour@@UEAAPEAXI@Z 00000001400ba980 f i PlayerController_Behaviour.obj
 0001:000b99c0       ??_EZenith_ScriptBehaviour@@UEAAPEAXI@Z 00000001400ba9c0 f i PlayerController_Behaviour.obj
 0001:000b99c0       ??_GZenith_ScriptBehaviour@@UEAAPEAXI@Z 00000001400ba9c0 f i PlayerController_Behaviour.obj
 0001:000b9a00       ?OnUpdate@PlayerController_Behaviour@@UEAAXM@Z 00000001400baa00 f   PlayerController_Behaviour.obj
 0001:000ba1d0       ?Shoot@PlayerController_Behaviour@@QEAAXXZ 00000001400bb1d0 f   PlayerController_Behaviour.obj
 0001:000ba6d0       ?_Destroy@?$_Ref_count_obj_alloc3@V?$basic_sigh_mixin@V?$basic_storage@VZenith_ColliderComponent@@W4entity@entt@@V?$allocator@VZenith_ColliderComponent@@@std@@X@entt@@V?$basic_registry@W4entity@entt@@V?$allocator@W4entity@entt@@@std@@@2@@entt@@V?$allocator@W4entity@entt@@@std@@@std@@EEAAXXZ 00000001400bb6d0 f i PlayerController_Behaviour.obj
 0001:000ba6e0       ?insert@?$basic_string@DU?$char_traits@D@std@@V?$allocator@D@2@@std@@QEAAAEAV12@_KQEBD0@Z 00000001400bb6e0 f i PlayerController_Behaviour.obj
 0001:000ba7f0       ?pop@?$basic_sigh_mixin@V?$basic_storage@VZenith_ColliderComponent@@W4entity@entt@@V?$allocator@VZenith_ColliderComponent@@@std@@X@entt@@V?$basic_registry@W4entity@entt@@V?$allocator@W4entity@entt@@@std@@@2@@entt@@EEAAXU?$sparse_set_iterator@V?$vector@W4entity@entt@@V?$allocator@W4entity@entt@@@std@@@std@@@internal@2@0@Z 00000001400bb7f0 f i PlayerController_Behaviour.obj
 0001:000baa10       ?pop@?$basic_storage@VZenith_ColliderComponent@@W4entity@entt@@V?$allocator@VZenith_ColliderComponent@@@std@@X@entt@@MEAAXU?$sparse_set_iterator@V?$vector@W4entity@entt@@V?$allocator@W4entity@entt@@@std@@@std@@@internal@2@0@Z 00000001400bba10 f i PlayerController_Behaviour.obj
 0001:000bacf0       ?pop_all@?$basic_sigh_mixin@V?$basic_storage@VZenith_ColliderComponent@@W4entity@entt@@V?$allocator@VZenith_ColliderComponent@@@std@@X@entt@@V?$basic_registry@W4entity@entt@@V?$allocator@W4entity@entt@@@std@@@2@@entt@@EEAAXXZ 00000001400bbcf0 f i PlayerController_Behaviour.obj
 0001:000baee0       ?pop_all@?$basic_storage@VZenith_ColliderComponent@@W4entity@entt@@V?$allocator@VZenith_ColliderComponent@@@std@@X@entt@@MEAAXXZ 00000001400bbee0 f i PlayerController_Behaviour.obj
 0001:000bafc0       ?shrink_to_fit@?$basic_storage@VZenith_ColliderComponent@@W4entity@entt@@V?$allocator@VZenith_ColliderComponent@@@std@@X@entt@@UEAAXXZ 00000001400bbfc0 f i PlayerController_Behaviour.obj
 0001:000bb020       ?shrink_to_size@?$basic_storage@VZenith_ColliderComponent@@W4entity@entt@@V?$allocator@VZenith_ColliderComponent@@@std@@X@entt@@AEAAX_K@Z 00000001400bc020 f i PlayerController_Behaviour.obj
 0001:000bb0f0       ?swap_or_move@?$basic_storage@VZenith_ColliderComponent@@W4entity@entt@@V?$allocator@VZenith_ColliderComponent@@@std@@X@entt@@EEAAX_K0@Z 00000001400bc0f0 f i PlayerController_Behaviour.obj
 0001:000bb1e0       ?try_emplace@?$basic_sigh_mixin@V?$basic_storage@VZenith_ColliderComponent@@W4entity@entt@@V?$allocator@VZenith_ColliderComponent@@@std@@X@entt@@V?$basic_registry@W4entity@entt@@V?$allocator@W4entity@entt@@@std@@@2@@entt@@EEAA?AU?$sparse_set_iterator@V?$vector@W4entity@entt@@V?$allocator@W4entity@entt@@@std@@@std@@@internal@2@W4entity@2@_NPEBX@Z 00000001400bc1e0 f i PlayerController_Behaviour.obj
 0001:000bb270       ?try_emplace@?$basic_storage@VZenith_ColliderComponent@@W4entity@entt@@V?$allocator@VZenith_ColliderComponent@@@std@@X@entt@@MEAA?AU?$sparse_set_iterator@V?$vector@W4entity@entt@@V?$allocator@W4entity@entt@@@std@@@std@@@internal@2@W4entity@2@_NPEBX@Z 00000001400bc270 f i PlayerController_Behaviour.obj
 0001:000bb2e0       ??$GetComponent@VZenith_ColliderComponent@@@Zenith_Entity@@QEAAAEAVZenith_ColliderComponent@@XZ 00000001400bc2e0 f i SphereMovement_Behaviour.obj
 0001:000bb410       ??0HookesLaw_Behaviour@@QEAA@AEAVZenith_Entity@@@Z 00000001400bc410 f   SphereMovement_Behaviour.obj
 0001:000bb480       ??0RotationBehaviour_Behaviour@@QEAA@AEAVZenith_Entity@@@Z 00000001400bc480 f   SphereMovement_Behaviour.obj
 0001:000bb4f0       ??_EHookesLaw_Behaviour@@UEAAPEAXI@Z 00000001400bc4f0 f i SphereMovement_Behaviour.obj
 0001:000bb4f0       ??_ERotationBehaviour_Behaviour@@UEAAPEAXI@Z 00000001400bc4f0 f i SphereMovement_Behaviour.obj
 0001:000bb4f0       ??_GHookesLaw_Behaviour@@UEAAPEAXI@Z 00000001400bc4f0 f i SphereMovement_Behaviour.obj
 0001:000bb4f0       ??_GRotationBehaviour_Behaviour@@UEAAPEAXI@Z 00000001400bc4f0 f i SphereMovement_Behaviour.obj
 0001:000bb530       ?OnUpdate@HookesLaw_Behaviour@@UEAAXM@Z 00000001400bc530 f   SphereMovement_Behaviour.obj
 0001:000bb5e0       ?OnUpdate@RotationBehaviour_Behaviour@@UEAAXM@Z 00000001400bc5e0 f   SphereMovement_Behaviour.obj
 0001:000bb660       ?OnEnter@Test_State_InGame@@EEAAXXZ 00000001400bc660 f   Test_State_InGame.obj
 0001:000bcec0       ?OnUpdate@Test_State_InGame@@EEAAXXZ 00000001400bdec0 f   Test_State_InGame.obj
 0001:000bcfd0       ?OnExit@Test_State_InGame@@EEAAXXZ 00000001400bdfd0 f   Test_State_InGame.obj
 0001:000bdea0       ??$AddComponent@VZenith_CameraComponent@@$$V@Zenith_Entity@@QEAAAEAVZenith_CameraComponent@@XZ 00000001400beea0 f i Test_State_InGame.obj
 0001:000be020       ??$AddComponent@VZenith_ColliderComponent@@$$V@Zenith_Entity@@QEAAAEAVZenith_ColliderComponent@@XZ 00000001400bf020 f i Test_State_InGame.obj
 0001:000be1a0       ??$AddComponent@VZenith_ScriptComponent@@$$V@Zenith_Entity@@QEAAAEAVZenith_ScriptComponent@@XZ 00000001400bf1a0 f i Test_State_InGame.obj
 0001:000be370       ??$AddComponent@VZenith_TerrainComponent@@AEAVFlux_MeshGeometry@@AEAV2@AEAVFlux_Material@@AEAV3@AEAU?$mat@$03$03M$0A@@glm@@U?$vec@$01M$0A@@5@@Zenith_Entity@@QEAAAEAVZenith_TerrainComponent@@AEAVFlux_MeshGeometry@@0AEAVFlux_Material@@1AEAU?$mat@$03$03M$0A@@glm@@$$QEAU?$vec@$01M$0A@@5@@Z 00000001400bf370 f i Test_State_InGame.obj
 0001:000be630       ??$AddComponent@VZenith_TextComponent@@$$V@Zenith_Entity@@QEAAAEAVZenith_TextComponent@@XZ 00000001400bf630 f i Test_State_InGame.obj
 0001:000be7b0       ??$HasComponent@VZenith_ModelComponent@@@Zenith_Entity@@QEAA_NXZ 00000001400bf7b0 f i Test_State_InGame.obj
 0001:000be860       ??$SetBehaviour@VHookesLaw_Behaviour@@@Zenith_ScriptComponent@@QEAAXXZ 00000001400bf860 f i Test_State_InGame.obj
 0001:000be8a0       ??$_Allocate_for_capacity@$0A@@?$basic_string@DU?$char_traits@D@std@@V?$allocator@D@2@@std@@CAPEADAEAV?$allocator@D@1@AEA_K@Z 00000001400bf8a0 f i Test_State_InGame.obj
 0001:000be910       ??$_Convert_Source_to_wide@V?$basic_string_view@_WU?$char_traits@_W@std@@@std@@U_Normal_conversion@filesystem@2@@filesystem@std@@YA?AV?$basic_string@_WU?$char_traits@_W@std@@V?$allocator@_W@2@@1@AEBV?$basic_string_view@_WU?$char_traits@_W@std@@@1@U_Normal_conversion@01@@Z 00000001400bf910 f i Test_State_InGame.obj
 0001:000bea50       ??$_Convert_stringoid_to_wide@U_Normal_conversion@filesystem@std@@@filesystem@std@@YA?AV?$basic_string@_WU?$char_traits@_W@std@@V?$allocator@_W@2@@1@V?$basic_string_view@DU?$char_traits@D@std@@@1@U_Normal_conversion@01@@Z 00000001400bfa50 f i Test_State_InGame.obj
 0001:000bea90       ??$_Initialize_dir_enum@U_Dir_enum_impl@filesystem@std@@@_Dir_enum_impl@filesystem@std@@SA?AW4__std_win_error@@AEAV?$shared_ptr@U_Dir_enum_impl@filesystem@std@@@2@AEBVpath@12@W4directory_options@12@@Z 00000001400bfa90 f i Test_State_InGame.obj
 0001:000bece0       ??$_Reallocate_for@V<lambda_3fa8b2c8193a0f3144fc4b1b8f243931>@@PEB_W@?$basic_string@_WU?$char_traits@_W@std@@V?$allocator@_W@2@@std@@AEAAAEAV01@_KV<lambda_3fa8b2c8193a0f3144fc4b1b8f243931>@@PEB_W@Z 00000001400bfce0 f i Test_State_InGame.obj
 0001:000bee40       ??$_Reallocate_grow_by@V<lambda_1dfe18491bcca09701d8ccb01d0b0af4>@@PEB_W_K@?$basic_string@_WU?$char_traits@_W@std@@V?$allocator@_W@2@@std@@AEAAAEAV01@_KV<lambda_1dfe18491bcca09701d8ccb01d0b0af4>@@PEB_W_K@Z 00000001400bfe40 f i Test_State_InGame.obj
 0001:000bf000       ??$_Reallocate_grow_by@V<lambda_25953b27f3c43b57ba59f021c7f225c5>@@_W@?$basic_string@_WU?$char_traits@_W@std@@V?$allocator@_W@2@@std@@AEAAAEAV01@_KV<lambda_25953b27f3c43b57ba59f021c7f225c5>@@_W@Z 00000001400c0000 f i Test_State_InGame.obj
 0001:000bf190       ??$_Reallocate_grow_by@V<lambda_9013ee9e23efe4882b67eff5b0ecf103>@@$$V@?$basic_string@DU?$char_traits@D@std@@V?$allocator@D@2@@std@@AEAAAEAV01@_KV<lambda_9013ee9e23efe4882b67eff5b0ecf103>@@@Z 00000001400c0190 f i Test_State_InGame.obj
 0001:000bf2e0       ??$_Reallocate_grow_by@V<lambda_a3050a43f3157934f354774ab3dd2e02>@@_K_W@?$basic_string@_WU?$char_traits@_W@std@@V?$allocator@_W@2@@std@@AEAAAEAV01@_KV<lambda_a3050a43f3157934f354774ab3dd2e02>@@_K_W@Z 00000001400c02e0 f i Test_State_InGame.obj
 0001:000bf490       ??0?$basic_string@DU?$char_traits@D@std@@V?$allocator@D@2@@std@@QEAA@QEBD@Z 00000001400c0490 f i Test_State_InGame.obj
 0001:000bf4d0       ??0_System_error@std@@IEAA@Verror_code@1@@Z 00000001400c04d0 f i Test_State_InGame.obj
 0001:000bf5a0       ??0filesystem_error@filesystem@std@@QEAA@AEBV012@@Z 00000001400c05a0 f i Test_State_InGame.obj
 0001:000bf620       ??0filesystem_error@filesystem@std@@QEAA@AEBV?$basic_string@DU?$char_traits@D@std@@V?$allocator@D@2@@2@AEBVpath@12@Verror_code@2@@Z 00000001400c0620 f i Test_State_InGame.obj
 0001:000bf740       ??0filesystem_error@filesystem@std@@QEAA@AEBV?$basic_string@DU?$char_traits@D@std@@V?$allocator@D@2@@2@Verror_code@2@@Z 00000001400c0740 f i Test_State_InGame.obj
 0001:000bf7e0       ??0?$basic_string@_WU?$char_traits@_W@std@@V?$allocator@_W@2@@std@@QEAA@AEBV01@@Z 00000001400c07e0 f i zenithtools:Zenith_Tools_MeshExport.obj
 0001:000bf7e0       ??0path@filesystem@std@@QEAA@AEBV012@@Z 00000001400c07e0 f i Test_State_InGame.obj
 0001:000bf910       ??0system_error@std@@QEAA@Verror_code@1@@Z 00000001400c0910 f i Test_State_InGame.obj
 0001:000bf940       ??1?$shared_ptr@U_Dir_enum_impl@filesystem@std@@@std@@QEAA@XZ 00000001400c0940 f i Test_State_InGame.obj
 0001:000bf990       ??1filesystem_error@filesystem@std@@UEAA@XZ 00000001400c0990 f i Test_State_InGame.obj
 0001:000bfa20       ??4path@filesystem@std@@QEAAAEAV012@AEBV012@@Z 00000001400c0a20 f i Test_State_InGame.obj
 0001:000bfab0       ??_0path@filesystem@std@@QEAAAEAV012@AEBV012@@Z 00000001400c0ab0 f i Test_State_InGame.obj
 0001:000bfcf0       ??_E?$_Ref_count_obj2@U_Dir_enum_impl@filesystem@std@@@std@@UEAAPEAXI@Z 00000001400c0cf0 f i Test_State_InGame.obj
 0001:000bfcf0       ??_G?$_Ref_count_obj2@U_Dir_enum_impl@filesystem@std@@@std@@UEAAPEAXI@Z 00000001400c0cf0 f i Test_State_InGame.obj
 0001:000bfd20       ??_Efilesystem_error@filesystem@std@@UEAAPEAXI@Z 00000001400c0d20 f i Test_State_InGame.obj
 0001:000bfd20       ??_Gfilesystem_error@filesystem@std@@UEAAPEAXI@Z 00000001400c0d20 f i Test_State_InGame.obj
 0001:000bfdd0       ?AddMeshEntry@Zenith_ModelComponent@@QEAAXAEAVFlux_MeshGeometry@@AEAVFlux_Material@@@Z 00000001400c0dd0 f i Test_State_InGame.obj
 0001:000bfe10       ?GetMaterialIndexFromMeshName@Zenith_ModelComponent@@SAIAEBV?$basic_string@DU?$char_traits@D@std@@V?$allocator@D@2@@std@@@Z 00000001400c0e10 f i Test_State_InGame.obj
 0001:000bff80       ?GetMaterialIndexFromTextureName@Zenith_ModelComponent@@SAIAEBV?$basic_string@DU?$char_traits@D@std@@V?$allocator@D@2@@std@@@Z 00000001400c0f80 f i Test_State_InGame.obj
 0001:000c1d60       ?LoadMeshesFromDir@Zenith_ModelComponent@@QEAAXAEBVpath@filesystem@std@@@Z 00000001400c2d60 f i Test_State_InGame.obj
 0001:000c3440       ?Update@Flux_MeshAnimation@@QEAAXM@Z 00000001400c4440 f i Test_State_InGame.obj
 0001:000c34f0       ?_Convert_narrow_to_wide@filesystem@std@@YA?AV?$basic_string@_WU?$char_traits@_W@std@@V?$allocator@_W@2@@2@W4__std_code_page@@V?$basic_string_view@DU?$char_traits@D@std@@@2@@Z 00000001400c44f0 f i Test_State_InGame.obj
 0001:000c3650       ?_Decref@_Ref_count_base@std@@QEAAXXZ 00000001400c4650 f i Test_State_InGame.obj
 0001:000c36a0       ?_Delete_this@?$_Ref_count_obj2@U_Dir_enum_impl@filesystem@std@@@std@@EEAAXXZ 00000001400c46a0 f i Test_State_InGame.obj
 0001:000c36a0       ?_Delete_this@?$_Ref_count_obj2@U_Recursive_dir_enum_impl@filesystem@std@@@std@@EEAAXXZ 00000001400c46a0 f i zenithtools:Zenith_Tools_MeshExport.obj
 0001:000c36c0       ?_Destroy@?$_Ref_count_obj2@U_Dir_enum_impl@filesystem@std@@@std@@EEAAXXZ 00000001400c46c0 f i Test_State_InGame.obj
 0001:000c36e0       ?_Find_extension@filesystem@std@@YAPEB_WQEB_W0@Z 00000001400c46e0 f i Test_State_InGame.obj
 0001:000c3730       ?_Find_filename@filesystem@std@@YAPEB_WQEB_WPEB_W@Z 00000001400c4730 f i Test_State_InGame.obj
 0001:000c3790       ?_Find_root_name_end@filesystem@std@@YAPEB_WQEB_W0@Z 00000001400c4790 f i Test_State_InGame.obj
 0001:000c38a0       ?_Make_ec@std@@YA?AVerror_code@1@W4__std_win_error@@@Z 00000001400c48a0 f i Test_State_InGame.obj
 0001:000c38c0       ?_Open_dir@_Dir_enum_impl@filesystem@std@@SA?AW4__std_win_error@@AEAVpath@23@W4directory_options@23@AEAU_Find_file_handle@23@AEAU__std_fs_find_data@@@Z 00000001400c48c0 f i Test_State_InGame.obj
 0001:000c3ab0       ?_Pretty_message@filesystem_error@filesystem@std@@CA?AV?$basic_string@DU?$char_traits@D@std@@V?$allocator@D@2@@3@V?$basic_string_view@DU?$char_traits@D@std@@@3@AEBVpath@23@1@Z 00000001400c4ab0 f i Test_State_InGame.obj
 0001:000c3f40       ?_Range_compare@filesystem@std@@YAHQEB_W000@Z 00000001400c4f40 f i Test_State_InGame.obj
 0001:000c3fa0       ?_Refresh@_Dir_enum_impl@filesystem@std@@QEAAXAEBU__std_fs_find_data@@@Z 00000001400c4fa0 f i Test_State_InGame.obj
 0001:000c4100       ?_Throw_fs_error@filesystem@std@@YAXPEBDW4__std_win_error@@@Z 00000001400c5100 f i Test_State_InGame.obj
 0001:000c4160       ?_Throw_fs_error@filesystem@std@@YAXPEBDW4__std_win_error@@AEBVpath@12@@Z 00000001400c5160 f i Test_State_InGame.obj
 0001:000c41d0       ?_Throw_system_error@std@@YAXW4errc@1@@Z 00000001400c51d0 f i Test_State_InGame.obj
 0001:000c4210       ?_Throw_system_error_from_std_win_error@std@@YAXW4__std_win_error@@@Z 00000001400c5210 f i Test_State_InGame.obj
 0001:000c4250       ?_Tidy_deallocate@?$basic_string@_WU?$char_traits@_W@std@@V?$allocator@_W@2@@std@@AEAAXXZ 00000001400c5250 f i Test_State_InGame.obj
 0001:000c42c0       ?compare@path@filesystem@std@@QEBAHV?$basic_string_view@_WU?$char_traits@_W@std@@@3@@Z 00000001400c52c0 f i Test_State_InGame.obj
 0001:000c44e0       ?default_error_condition@_System_error_category@std@@UEBA?AVerror_condition@2@H@Z 00000001400c54e0 f i Test_State_InGame.obj
 0001:000c4560       ?end@filesystem@std@@YA?AVdirectory_iterator@12@V312@@Z 00000001400c5560 f i Test_State_InGame.obj
 0001:000c45e0       ?make_error_code@std@@YA?AVerror_code@1@W4errc@1@@Z 00000001400c55e0 f i Test_State_InGame.obj
 0001:000c4600       ?message@_Generic_error_category@std@@UEBA?AV?$basic_string@DU?$char_traits@D@std@@V?$allocator@D@2@@2@H@Z 00000001400c5600 f i Test_State_InGame.obj
 0001:000c4650       ?message@_System_error_category@std@@UEBA?AV?$basic_string@DU?$char_traits@D@std@@V?$allocator@D@2@@2@H@Z 00000001400c5650 f i Test_State_InGame.obj
 0001:000c4700       ?name@_Generic_error_category@std@@UEBAPEBDXZ 00000001400c5700 f i Test_State_InGame.obj
 0001:000c4710       ?name@_System_error_category@std@@UEBAPEBDXZ 00000001400c5710 f i Test_State_InGame.obj
 0001:000c4720       ?resize@?$basic_string@DU?$char_traits@D@std@@V?$allocator@D@2@@std@@QEAAX_KD@Z 00000001400c5720 f i Test_State_InGame.obj
 0001:000c47c0       ?stem@path@filesystem@std@@QEBA?AV123@XZ 00000001400c57c0 f i Test_State_InGame.obj
 0001:000c48d0       ?string@path@filesystem@std@@QEBA?AV?$basic_string@DU?$char_traits@D@std@@V?$allocator@D@2@@3@XZ 00000001400c58d0 f i Test_State_InGame.obj
 0001:000c49d0       ?what@filesystem_error@filesystem@std@@UEBAPEBDXZ 00000001400c59d0 f i Test_State_InGame.obj
 0001:000c49e0       ?OnEnter@Test_State_MainMenu@@EEAAXXZ 00000001400c59e0 f   Test_State_MainMenu.obj
 0001:000c4b10       ?OnExit@Test_State_MainMenu@@EEAAXXZ 00000001400c5b10 f   Test_State_MainMenu.obj
 0001:000c4b20       ?OnUpdate@Test_State_MainMenu@@EEAAXXZ 00000001400c5b20 f   Test_State_MainMenu.obj
 0001:000c4b80       ??3@YAXPEAX@Z              00000001400c5b80 f   LIBCMT:delete_scalar.obj
 0001:000c4b90       ??0ImGuiContext@@QEAA@PEAUImFontAtlas@@@Z 00000001400c5b90 f i zenithtools:imgui.obj
 0001:000c5800       ??0ImGuiIO@@QEAA@XZ        00000001400c6800 f   zenithtools:imgui.obj
 0001:000c5af0       ??0ImGuiStyle@@QEAA@XZ     00000001400c6af0 f   zenithtools:imgui.obj
 0001:000c5d00       ??0ImGuiWindow@@QEAA@PEAUImGuiContext@@PEBD@Z 00000001400c6d00 f   zenithtools:imgui.obj
 0001:000c6280       ?AddFocusEvent@ImGuiIO@@QEAAX_N@Z 00000001400c7280 f   zenithtools:imgui.obj
 0001:000c6330       ?AddInputCharacter@ImGuiIO@@QEAAXI@Z 00000001400c7330 f   zenithtools:imgui.obj
 0001:000c63a0       ?AddKeyAnalogEvent@ImGuiIO@@QEAAXW4ImGuiKey@@_NM@Z 00000001400c73a0 f   zenithtools:imgui.obj
 0001:000c65c0       ?AddKeyEvent@ImGuiIO@@QEAAXW4ImGuiKey@@_N@Z 00000001400c75c0 f   zenithtools:imgui.obj
 0001:000c65f0       ?AddMouseButtonEvent@ImGuiIO@@QEAAXH_N@Z 00000001400c75f0 f   zenithtools:imgui.obj
 0001:000c67c0       ?AddMousePosEvent@ImGuiIO@@QEAAXMM@Z 00000001400c77c0 f   zenithtools:imgui.obj
 0001:000c6900       ?AddMouseSourceEvent@ImGuiIO@@QEAAXW4ImGuiMouseSource@@@Z 00000001400c7900 f   zenithtools:imgui.obj
 0001:000c6910       ?AddMouseWheelEvent@ImGuiIO@@QEAAXMM@Z 00000001400c7910 f   zenithtools:imgui.obj
 0001:000c6990       ?AddSettingsHandler@ImGui@@YAXPEBUImGuiSettingsHandler@@@Z 00000001400c7990 f   zenithtools:imgui.obj
 0001:000c6c90       ?Begin@ImGui@@YA_NPEBDPEA_NH@Z 00000001400c7c90 f   zenithtools:imgui.obj
 0001:000c9130       ?BeginChildEx@ImGui@@YA_NPEBDIAEBUImVec2@@HH@Z 00000001400ca130 f   zenithtools:imgui.obj
 0001:000c94d0       ?BeginDisabled@ImGui@@YAX_N@Z 00000001400ca4d0 f   zenithtools:imgui.obj
 0001:000c9580       ?BeginGroup@ImGui@@YAXXZ   00000001400ca580 f   zenithtools:imgui.obj
 0001:000c96c0       ?BeginTooltipEx@ImGui@@YA_NHH@Z 00000001400ca6c0 f   zenithtools:imgui.obj
 0001:000c9880       ?CalcFontSize@ImGuiWindow@@QEBAMXZ 00000001400ca880 f i zenithtools:imgui.obj
 0001:000c98b0       ?CalcItemSize@ImGui@@YA?AUImVec2@@U2@MM@Z 00000001400ca8b0 f   zenithtools:imgui.obj
 0001:000c99c0       ?CalcItemWidth@ImGui@@YAMXZ 00000001400ca9c0 f   zenithtools:imgui.obj
 0001:000c9c20       ?CalcTextSize@ImGui@@YA?AUImVec2@@PEBD0_NM@Z 00000001400cac20 f   zenithtools:imgui.obj
 0001:000c9d00       ?CalcTypematicRepeatAmount@ImGui@@YAHMMMM@Z 00000001400cad00 f   zenithtools:imgui.obj
 0001:000ca350       ?CalcWrapWidthForPos@ImGui@@YAMAEBUImVec2@@M@Z 00000001400cb350 f   zenithtools:imgui.obj
 0001:000ca400       ?Clear@ImGuiKeyRoutingTable@@QEAAXXZ 00000001400cb400 f i zenithtools:imgui.obj
 0001:000ca470       ?ClearActiveID@ImGui@@YAXXZ 00000001400cb470 f   zenithtools:imgui.obj
 0001:000ca480       ?ClearDragDrop@ImGui@@YAXXZ 00000001400cb480 f   zenithtools:imgui.obj
 0001:000ca550       ?ClearInputKeys@ImGuiIO@@QEAAXXZ 00000001400cb550 f   zenithtools:imgui.obj
 0001:000ca670       ?ClipWithFull@ImRect@@QEAAXAEBU1@@Z 00000001400cb670 f i zenithtools:imgui.obj
 0001:000ca6f0       ?CloseCurrentPopup@ImGui@@YAXXZ 00000001400cb6f0 f   zenithtools:imgui.obj
 0001:000ca7d0       ?ClosePopupToLevel@ImGui@@YAXH_N@Z 00000001400cb7d0 f   zenithtools:imgui.obj
 0001:000ca8b0       ?ClosePopupsOverWindow@ImGui@@YAXPEAUImGuiWindow@@_N@Z 00000001400cb8b0 f   zenithtools:imgui.obj
 0001:000ca9b0       ?ColorConvertFloat4ToU32@ImGui@@YAIAEBUImVec4@@@Z 00000001400cb9b0 f   zenithtools:imgui.obj
 0001:000caa60       ?ColorConvertHSVtoRGB@ImGui@@YAXMMMAEAM00@Z 00000001400cba60 f   zenithtools:imgui.obj
 0001:000cac20       ?ConvertSingleModFlagToKey@ImGui@@YA?AW4ImGuiKey@@W42@@Z 00000001400cbc20 f i zenithtools:imgui.obj
 0001:000cac60       ?CreateContext@ImGui@@YAPEAUImGuiContext@@PEAUImFontAtlas@@@Z 00000001400cbc60 f   zenithtools:imgui.obj
 0001:000cae80       ?CreateNewWindowSettings@ImGui@@YAPEAUImGuiWindowSettings@@PEBD@Z 00000001400cbe80 f   zenithtools:imgui.obj
 0001:000caf60       ?DebugCheckVersionAndDataLayout@ImGui@@YA_NPEBD_K11111@Z 00000001400cbf60 f   zenithtools:imgui.obj
 0001:000caff0       ?DebugHookIdInfo@ImGui@@YAXIHPEBX0@Z 00000001400cbff0 f   zenithtools:imgui.obj
 0001:000cb200       ?DebugLocateItemResolveWithLastItem@ImGui@@YAXXZ 00000001400cc200 f   zenithtools:imgui.obj
 0001:000cb370       ?DebugLog@ImGui@@YAXPEBDZZ 00000001400cc370 f   zenithtools:imgui.obj
 0001:000cb3a0       ?DebugLogV@ImGui@@YAXPEBDPEAD@Z 00000001400cc3a0 f   zenithtools:imgui.obj
 0001:000cb800       ?End@ImGui@@YAXXZ          00000001400cc800 f   zenithtools:imgui.obj
 0001:000cbb50       ?EndChild@ImGui@@YAXXZ     00000001400ccb50 f   zenithtools:imgui.obj
 0001:000cbd40       ?EndDisabled@ImGui@@YAXXZ  00000001400ccd40 f   zenithtools:imgui.obj
 0001:000cbda0       ?EndFrame@ImGui@@YAXXZ     00000001400ccda0 f   zenithtools:imgui.obj
 0001:000cc120       ?EndGroup@ImGui@@YAXXZ     00000001400cd120 f   zenithtools:imgui.obj
 0001:000cc620       ?FindBestWindowPosForPopup@ImGui@@YA?AUImVec2@@PEAUImGuiWindow@@@Z 00000001400cd620 f   zenithtools:imgui.obj
 0001:000cc980       ?FindBestWindowPosForPopupEx@ImGui@@YA?AUImVec2@@AEBU2@0PEAW4ImGuiDir@@AEBUImRect@@2W4ImGuiPopupPositionPolicy@@@Z 00000001400cd980 f   zenithtools:imgui.obj
 0001:000cccc0       ?FindHoveredWindowEx@ImGui@@YAXAEBUImVec2@@_NPEAPEAUImGuiWindow@@2@Z 00000001400cdcc0 f   zenithtools:imgui.obj
 0001:000ccef0       ?FindRenderedTextEnd@ImGui@@YAPEBDPEBD0@Z 00000001400cdef0 f   zenithtools:imgui.obj
 0001:000ccf30       ?FindSettingsHandler@ImGui@@YAPEAUImGuiSettingsHandler@@PEBD@Z 00000001400cdf30 f   zenithtools:imgui.obj
 0001:000ccfd0       ?FindWindowByID@ImGui@@YAPEAUImGuiWindow@@I@Z 00000001400cdfd0 f   zenithtools:imgui.obj
 0001:000cd0e0       ?FindWindowSettingsByWindow@ImGui@@YAPEAUImGuiWindowSettings@@PEAUImGuiWindow@@@Z 00000001400ce0e0 f   zenithtools:imgui.obj
 0001:000cd160       ?FixupKeyChord@ImGui@@YAHH@Z 00000001400ce160 f   zenithtools:imgui.obj
 0001:000cd300       ?FocusTopMostWindowUnderOne@ImGui@@YAXPEAUImGuiWindow@@0PEAUImGuiViewport@@H@Z 00000001400ce300 f   zenithtools:imgui.obj
 0001:000cd3a0       ?FocusWindow@ImGui@@YAXPEAUImGuiWindow@@H@Z 00000001400ce3a0 f   zenithtools:imgui.obj
 0001:000cd7c0       ?GetClipboardText@ImGui@@YAPEBDXZ 00000001400ce7c0 f   zenithtools:imgui.obj
 0001:000cd920       ?GetColorU32@ImGui@@YAIAEBUImVec4@@@Z 00000001400ce920 f   zenithtools:imgui.obj
 0001:000cd960       ?GetColorU32@ImGui@@YAIHM@Z 00000001400ce960 f   zenithtools:imgui.obj
 0001:000cd9b0       ?GetCurrentContext@ImGui@@YAPEAUImGuiContext@@XZ 00000001400ce9b0 f   zenithtools:imgui.obj
 0001:000cd9c0       ?GetDrawData@ImGui@@YAPEAUImDrawData@@XZ 00000001400ce9c0 f   zenithtools:imgui.obj
 0001:000cd9e0       ?GetFrameHeight@ImGui@@YAMXZ 00000001400ce9e0 f   zenithtools:imgui.obj
 0001:000cda00       ?GetID@ImGuiWindow@@QEAAIH@Z 00000001400cea00 f   zenithtools:imgui.obj
 0001:000cdab0       ?GetID@ImGuiWindow@@QEAAIPEBD0@Z 00000001400ceab0 f   zenithtools:imgui.obj
 0001:000cdb30       ?GetIDFromRectangle@ImGuiWindow@@QEAAIAEBUImRect@@@Z 00000001400ceb30 f   zenithtools:imgui.obj
 0001:000cdd20       ?GetIO@ImGui@@YAAEAUImGuiIO@@XZ 00000001400ced20 f   zenithtools:imgui.obj
 0001:000cdd30       ?GetInt@ImGuiStorage@@QEBAHIH@Z 00000001400ced30 f   zenithtools:imgui.obj
 0001:000cdda0       ?GetKeyChordName@ImGui@@YAPEBDH@Z 00000001400ceda0 f   zenithtools:imgui.obj
 0001:000cdf10       ?GetKeyData@ImGui@@YAPEAUImGuiKeyData@@PEAUImGuiContext@@W4ImGuiKey@@@Z 00000001400cef10 f   zenithtools:imgui.obj
 0001:000cdf80       ?GetKeyName@ImGui@@YAPEBDW4ImGuiKey@@@Z 00000001400cef80 f   zenithtools:imgui.obj
 0001:000ce020       ?GetKeyOwnerData@ImGui@@YAPEAUImGuiKeyOwnerData@@PEAUImGuiContext@@W4ImGuiKey@@@Z 00000001400cf020 f i zenithtools:imgui.obj
 0001:000ce080       ?GetKeyPressedAmount@ImGui@@YAHW4ImGuiKey@@MM@Z 00000001400cf080 f   zenithtools:imgui.obj
 0001:000ce140       ?GetMainViewport@ImGui@@YAPEAUImGuiViewport@@XZ 00000001400cf140 f   zenithtools:imgui.obj
 0001:000ce160       ?GetMouseCursor@ImGui@@YAHXZ 00000001400cf160 f   zenithtools:imgui.obj
 0001:000ce170       ?GetNavTweakPressedAmount@ImGui@@YAMW4ImGuiAxis@@@Z 00000001400cf170 f   zenithtools:imgui.obj
 0001:000ce3a0       ?GetScrollMaxY@ImGui@@YAMXZ 00000001400cf3a0 f   zenithtools:imgui.obj
 0001:000ce3c0       ?GetShortcutRoutingData@ImGui@@YAPEAUImGuiKeyRoutingData@@H@Z 00000001400cf3c0 f   zenithtools:imgui.obj
 0001:000ce540       ?GetStyle@ImGui@@YAAEAUImGuiStyle@@XZ 00000001400cf540 f   zenithtools:imgui.obj
 0001:000ce550       ?GetStyleColorVec4@ImGui@@YAAEBUImVec4@@H@Z 00000001400cf550 f   zenithtools:imgui.obj
 0001:000ce570       ?GetTextLineHeight@ImGui@@YAMXZ 00000001400cf570 f   zenithtools:imgui.obj
 0001:000ce580       ?GetTopMostPopupModal@ImGui@@YAPEAUImGuiWindow@@XZ 00000001400cf580 f   zenithtools:imgui.obj
 0001:000ce700       ?ImFileOpen@@YAPEAU_iobuf@@PEBD0@Z 00000001400cf700 f   zenithtools:imgui.obj
 0001:000ce890       ?ImFormatString@@YAHPEAD_KPEBDZZ 00000001400cf890 f   zenithtools:imgui.obj
 0001:000ce910       ?ImFormatStringToTempBuffer@@YAXPEAPEBD0PEBDZZ 00000001400cf910 f   zenithtools:imgui.obj
 0001:000cea90       ?ImFormatStringToTempBufferV@@YAXPEAPEBD0PEBDPEAD@Z 00000001400cfa90 f   zenithtools:imgui.obj
 0001:000cec00       ?ImHashStr@@YAIPEBD_KI@Z   00000001400cfc00 f   zenithtools:imgui.obj
 0001:000cecb0       ?ImStrSkipBlank@@YAPEBDPEBD@Z 00000001400cfcb0 f   zenithtools:imgui.obj
 0001:000cecd0       ?ImStrTrimBlanks@@YAXPEAD@Z 00000001400cfcd0 f   zenithtools:imgui.obj
 0001:000ced60       ?ImStrbolW@@YAPEBGPEBG0@Z  00000001400cfd60 f   zenithtools:imgui.obj
 0001:000ced80       ?ImStrncpy@@YAXPEADPEBD_K@Z 00000001400cfd80 f   zenithtools:imgui.obj
 0001:000cedb0       ?ImTextCharFromUtf8@@YAHPEAIPEBD1@Z 00000001400cfdb0 f   zenithtools:imgui.obj
 0001:000cef60       ?ImTextCountCharsFromUtf8@@YAHPEBD0@Z 00000001400cff60 f   zenithtools:imgui.obj
 0001:000cf140       ?ImTextCountUtf8BytesFromStr@@YAHPEBG0@Z 00000001400d0140 f   zenithtools:imgui.obj
 0001:000cf190       ?ImTextStrFromUtf8@@YAHPEAGHPEBD1PEAPEBD@Z 00000001400d0190 f   zenithtools:imgui.obj
 0001:000cf3d0       ?ImTextStrToUtf8@@YAHPEADHPEBG1@Z 00000001400d03d0 f   zenithtools:imgui.obj
 0001:000cf4a0       ?Indent@ImGui@@YAXM@Z      00000001400d04a0 f   zenithtools:imgui.obj
 0001:000cf610       ?Initialize@ImGui@@YAXXZ   00000001400d0610 f   zenithtools:imgui.obj
 0001:000cfac0       ?IsClippedEx@ImGui@@YA_NAEBUImRect@@I@Z 00000001400d0ac0 f   zenithtools:imgui.obj
 0001:000cfb40       ?IsItemActive@ImGui@@YA_NXZ 00000001400d0b40 f   zenithtools:imgui.obj
 0001:000cfb60       ?IsItemDeactivatedAfterEdit@ImGui@@YA_NXZ 00000001400d0b60 f   zenithtools:imgui.obj
 0001:000cfbc0       ?IsItemHovered@ImGui@@YA_NH@Z 00000001400d0bc0 f   zenithtools:imgui.obj
 0001:000cfde0       ?IsKeyChordPressed@ImGui@@YA_NHHI@Z 00000001400d0de0 f   zenithtools:imgui.obj
 0001:000cfe90       ?IsKeyDown@ImGui@@YA_NW4ImGuiKey@@@Z 00000001400d0e90 f   zenithtools:imgui.obj
 0001:000cff00       ?IsKeyDown@ImGui@@YA_NW4ImGuiKey@@I@Z 00000001400d0f00 f   zenithtools:imgui.obj
 0001:000cff50       ?IsKeyPressed@ImGui@@YA_NW4ImGuiKey@@HI@Z 00000001400d0f50 f   zenithtools:imgui.obj
 0001:000d00c0       ?IsKeyPressed@ImGui@@YA_NW4ImGuiKey@@_N@Z 00000001400d10c0 f   zenithtools:imgui.obj
 0001:000d00d0       ?IsKeyReleased@ImGui@@YA_NW4ImGuiKey@@@Z 00000001400d10d0 f   zenithtools:imgui.obj
 0001:000d0150       ?IsMouseClicked@ImGui@@YA_NHHI@Z 00000001400d1150 f   zenithtools:imgui.obj
 0001:000d01e0       ?IsMouseClicked@ImGui@@YA_NH_N@Z 00000001400d11e0 f   zenithtools:imgui.obj
 0001:000d02a0       ?IsMouseDown@ImGui@@YA_NH@Z 00000001400d12a0 f   zenithtools:imgui.obj
 0001:000d0310       ?IsMouseDown@ImGui@@YA_NHI@Z 00000001400d1310 f   zenithtools:imgui.obj
 0001:000d0350       ?IsMouseDragging@ImGui@@YA_NHM@Z 00000001400d1350 f   zenithtools:imgui.obj
 0001:000d0390       ?IsMouseHoveringRect@ImGui@@YA_NAEBUImVec2@@0_N@Z 00000001400d1390 f   zenithtools:imgui.obj
 0001:000d0470       ?IsMouseReleased@ImGui@@YA_NHI@Z 00000001400d1470 f   zenithtools:imgui.obj
 0001:000d04b0       ?IsPopupOpen@ImGui@@YA_NIH@Z 00000001400d14b0 f   zenithtools:imgui.obj
 0001:000d0530       ?IsWindowContentHoverable@ImGui@@YA_NPEAUImGuiWindow@@H@Z 00000001400d1530 f   zenithtools:imgui.obj
 0001:000d05a0       ?ItemAdd@ImGui@@YA_NAEBUImRect@@IPEBU2@H@Z 00000001400d15a0 f   zenithtools:imgui.obj
 0001:000d0810       ?ItemHoverable@ImGui@@YA_NAEBUImRect@@IH@Z 00000001400d1810 f   zenithtools:imgui.obj
 0001:000d0a60       ?ItemSize@ImGui@@YAXAEBUImVec2@@M@Z 00000001400d1a60 f   zenithtools:imgui.obj
 0001:000d0bd0       ?LoadIniSettingsFromMemory@ImGui@@YAXPEBD_K@Z 00000001400d1bd0 f   zenithtools:imgui.obj
 0001:000d0e10       ?LogRenderedText@ImGui@@YAXPEBUImVec2@@PEBD1@Z 00000001400d1e10 f   zenithtools:imgui.obj
 0001:000d1010       ?LogSetNextTextDecoration@ImGui@@YAXPEBD0@Z 00000001400d2010 f   zenithtools:imgui.obj
 0001:000d1030       ?LogText@ImGui@@YAXPEBDZZ  00000001400d2030 f   zenithtools:imgui.obj
 0001:000d1120       ?MarkIniSettingsDirty@ImGui@@YAXPEAUImGuiWindow@@@Z 00000001400d2120 f   zenithtools:imgui.obj
 0001:000d1150       ?MarkItemEdited@ImGui@@YAXI@Z 00000001400d2150 f   zenithtools:imgui.obj
 0001:000d1180       ?MemAlloc@ImGui@@YAPEAX_K@Z 00000001400d2180 f   zenithtools:imgui.obj
 0001:000d1230       ?MemFree@ImGui@@YAXPEAX@Z  00000001400d2230 f   zenithtools:imgui.obj
 0001:000d15e0       ?NavClearPreferredPosForAxis@ImGui@@YAXW4ImGuiAxis@@@Z 00000001400d25e0 f   zenithtools:imgui.obj
 0001:000d1610       ?NavInitWindow@ImGui@@YAXPEAUImGuiWindow@@_N@Z 00000001400d2610 f   zenithtools:imgui.obj
 0001:000d1740       ?NavMoveRequestApplyResult@ImGui@@YAXXZ 00000001400d2740 f   zenithtools:imgui.obj
 0001:000d1bb0       ?NavMoveRequestButNoResultYet@ImGui@@YA_NXZ 00000001400d2bb0 f   zenithtools:imgui.obj
 0001:000d1be0       ?NavMoveRequestCancel@ImGui@@YAXXZ 00000001400d2be0 f   zenithtools:imgui.obj
 0001:000d1c20       ?NavMoveRequestResolveWithLastItem@ImGui@@YAXPEAUImGuiNavItemData@@@Z 00000001400d2c20 f   zenithtools:imgui.obj
 0001:000d1c70       ?NavMoveRequestSubmit@ImGui@@YAXW4ImGuiDir@@0HH@Z 00000001400d2c70 f   zenithtools:imgui.obj
 0001:000d3ec0       ?NavUpdateCurrentWindowIsScrollPushableX@ImGui@@YAXXZ 00000001400d4ec0 f   zenithtools:imgui.obj
 0001:000d4fb0       ?NewFrame@ImGui@@YAXXZ     00000001400d5fb0 f   zenithtools:imgui.obj
 0001:000d6090       ?Overlaps@ImRect@@QEBA_NAEBU1@@Z 00000001400d7090 f i zenithtools:imgui.obj
 0001:000d60c0       ?PathLineTo@ImDrawList@@QEAAXAEBUImVec2@@@Z 00000001400d70c0 f i zenithtools:imgui.obj
 0001:000d6270       ?PopClipRect@ImGui@@YAXXZ  00000001400d7270 f   zenithtools:imgui.obj
 0001:000d62f0       ?PopFont@ImGui@@YAXXZ      00000001400d72f0 f   zenithtools:imgui.obj
 0001:000d6360       ?PopID@ImGui@@YAXXZ        00000001400d7360 f   zenithtools:imgui.obj
 0001:000d6380       ?PopItemWidth@ImGui@@YAXXZ 00000001400d7380 f   zenithtools:imgui.obj
 0001:000d63c0       ?PopStyleColor@ImGui@@YAXH@Z 00000001400d73c0 f   zenithtools:imgui.obj
 0001:000d6420       ?PopStyleVar@ImGui@@YAXH@Z 00000001400d7420 f   zenithtools:imgui.obj
 0001:000d6690       ?PushClipRect@ImGui@@YAXAEBUImVec2@@0_N@Z 00000001400d7690 f   zenithtools:imgui.obj
 0001:000d6720       ?PushFont@ImGui@@YAXPEAUImFont@@@Z 00000001400d7720 f   zenithtools:imgui.obj
 0001:000d6820       ?PushID@ImGui@@YAXH@Z      00000001400d7820 f   zenithtools:imgui.obj
 0001:000d68a0       ?PushID@ImGui@@YAXPEBD@Z   00000001400d78a0 f   zenithtools:imgui.obj
 0001:000d6960       ?PushMultiItemsWidths@ImGui@@YAXHM@Z 00000001400d7960 f   zenithtools:imgui.obj
 0001:000d6af0       ?PushOverrideID@ImGui@@YAXI@Z 00000001400d7af0 f   zenithtools:imgui.obj
 0001:000d6b80       ?PushStyleColor@ImGui@@YAXHAEBUImVec4@@@Z 00000001400d7b80 f   zenithtools:imgui.obj
 0001:000d6bf0       ?PushStyleVar@ImGui@@YAXHAEBUImVec2@@@Z 00000001400d7bf0 f   zenithtools:imgui.obj
 0001:000d6c80       ?PushStyleVar@ImGui@@YAXHM@Z 00000001400d7c80 f   zenithtools:imgui.obj
 0001:000d6d00       ?Render@ImGui@@YAXXZ       00000001400d7d00 f   zenithtools:imgui.obj
 0001:000d75a0       ?RenderFrame@ImGui@@YAXUImVec2@@0I_NM@Z 00000001400d85a0 f   zenithtools:imgui.obj
 0001:000d7750       ?RenderMouseCursor@ImGui@@YAXUImVec2@@MHIII@Z 00000001400d8750 f   zenithtools:imgui.obj
 0001:000d7b30       ?RenderNavHighlight@ImGui@@YAXAEBUImRect@@IH@Z 00000001400d8b30 f   zenithtools:imgui.obj
 0001:000d7d70       ?RenderText@ImGui@@YAXUImVec2@@PEBD1_N@Z 00000001400d8d70 f   zenithtools:imgui.obj
 0001:000d8030       ?RenderTextClipped@ImGui@@YAXAEBUImVec2@@0PEBD1PEBU2@0PEBUImRect@@@Z 00000001400d9030 f   zenithtools:imgui.obj
 0001:000d82b0       ?RenderTextClippedEx@ImGui@@YAXPEAUImDrawList@@AEBUImVec2@@1PEBD2PEBU3@1PEBUImRect@@@Z 00000001400d92b0 f   zenithtools:imgui.obj
 0001:000d8530       ?RenderTextEllipsis@ImGui@@YAXPEAUImDrawList@@AEBUImVec2@@1MMPEBD2PEBU3@@Z 00000001400d9530 f   zenithtools:imgui.obj
 0001:000d8b30       ?RenderTextWrapped@ImGui@@YAXUImVec2@@PEBD1M@Z 00000001400d9b30 f   zenithtools:imgui.obj
 0001:000d9d40       ?SameLine@ImGui@@YAXMM@Z   00000001400dad40 f   zenithtools:imgui.obj
 0001:000d9df0       ?SaveIniSettingsToDisk@ImGui@@YAXPEBD@Z 00000001400dadf0 f   zenithtools:imgui.obj
 0001:000d9e70       ?SaveIniSettingsToMemory@ImGui@@YAPEBDPEA_K@Z 00000001400dae70 f   zenithtools:imgui.obj
 0001:000d9f90       ?ScrollToRectEx@ImGui@@YA?AUImVec2@@PEAUImGuiWindow@@AEBUImRect@@H@Z 00000001400daf90 f   zenithtools:imgui.obj
 0001:000da3d0       ?SetActiveID@ImGui@@YAXIPEAUImGuiWindow@@@Z 00000001400db3d0 f   zenithtools:imgui.obj
 0001:000da530       ?SetClipboardText@ImGui@@YAXPEBD@Z 00000001400db530 f   zenithtools:imgui.obj
 0001:000da630       ?SetCurrentFont@ImGui@@YAXPEAUImFont@@@Z 00000001400db630 f   zenithtools:imgui.obj
 0001:000da7e0       ?SetFocusID@ImGui@@YAXIPEAUImGuiWindow@@@Z 00000001400db7e0 f   zenithtools:imgui.obj
 0001:000da930       ?SetHoveredID@ImGui@@YAXI@Z 00000001400db930 f   zenithtools:imgui.obj
 0001:000da960       ?SetInt@ImGuiStorage@@QEAAXIH@Z 00000001400db960 f   zenithtools:imgui.obj
 0001:000daa00       ?SetKeyEventNativeData@ImGuiIO@@QEAAXW4ImGuiKey@@HHH@Z 00000001400dba00 f   zenithtools:imgui.obj
 0001:000daa30       ?SetKeyOwner@ImGui@@YAXW4ImGuiKey@@IH@Z 00000001400dba30 f   zenithtools:imgui.obj
 0001:000daac0       ?SetKeyOwnersForKeyChord@ImGui@@YAXHIH@Z 00000001400dbac0 f   zenithtools:imgui.obj
 0001:000dad30       ?SetNavFocusScope@ImGui@@YAXI@Z 00000001400dbd30 f   zenithtools:imgui.obj
 0001:000daef0       ?SetNavID@ImGui@@YAXIW4ImGuiNavLayer@@IAEBUImRect@@@Z 00000001400dbef0 f   zenithtools:imgui.obj
 0001:000dafc0       ?SetNavWindow@ImGui@@YAXPEAUImGuiWindow@@@Z 00000001400dbfc0 f   zenithtools:imgui.obj
 0001:000db070       ?SetScrollY@ImGui@@YAXPEAUImGuiWindow@@M@Z 00000001400dc070 f   zenithtools:imgui.obj
 0001:000db090       ?SetShortcutRouting@ImGui@@YA_NHHI@Z 00000001400dc090 f   zenithtools:imgui.obj
 0001:000db340       ?SetTooltip@ImGui@@YAXPEBDZZ 00000001400dc340 f   zenithtools:imgui.obj
 0001:000db390       ?SetWindowPos@ImGui@@YAXPEAUImGuiWindow@@AEBUImVec2@@H@Z 00000001400dc390 f   zenithtools:imgui.obj
 0001:000db4f0       ?SetWindowSize@ImGui@@YAXPEAUImGuiWindow@@AEBUImVec2@@H@Z 00000001400dc4f0 f   zenithtools:imgui.obj
 0001:000db620       ?Shortcut@ImGui@@YA_NHHI@Z 00000001400dc620 f   zenithtools:imgui.obj
 0001:000db6d0       ?StartMouseMovingWindow@ImGui@@YAXPEAUImGuiWindow@@@Z 00000001400dc6d0 f   zenithtools:imgui.obj
 0001:000db7b0       ?TestKeyOwner@ImGui@@YA_NW4ImGuiKey@@I@Z 00000001400dc7b0 f   zenithtools:imgui.obj
 0001:000dba80       ?UpdateHoveredWindowAndCaptureFlags@ImGui@@YAXXZ 00000001400dca80 f   zenithtools:imgui.obj
 0001:000dbf10       ?UpdateInputEvents@ImGui@@YAX_N@Z 00000001400dcf10 f   zenithtools:imgui.obj
 0001:000dd390       ?UpdateMouseMovingWindowEndFrame@ImGui@@YAXXZ 00000001400de390 f   zenithtools:imgui.obj
 0001:000df440       ?append@ImGuiTextBuffer@@QEAAXPEBD0@Z 00000001400e0440 f   zenithtools:imgui.obj
 0001:000df530       ?appendf@ImGuiTextBuffer@@QEAAXPEBDZZ 00000001400e0530 f   zenithtools:imgui.obj
 0001:000df560       ?appendfv@ImGuiTextBuffer@@QEAAXPEBDPEAD@Z 00000001400e0560 f   zenithtools:imgui.obj
 0001:000df670       ?clear_destruct@?$ImVector@UImGuiMultiSelectTempData@@@@QEAAXXZ 00000001400e0670 f i zenithtools:imgui.obj
 0001:000df6e0       ?insert@?$ImVector@UImGuiStoragePair@@@@QEAAPEAUImGuiStoragePair@@PEBU2@AEBU2@@Z 00000001400e06e0 f i zenithtools:imgui.obj
 0001:000df7e0       ?push_back@?$ImVector@H@@QEAAXAEBH@Z 00000001400e07e0 f i zenithtools:imgui.obj
 0001:000df840       ?push_back@?$ImVector@UImGuiColorMod@@@@QEAAXAEBUImGuiColorMod@@@Z 00000001400e0840 f i zenithtools:imgui.obj
 0001:000df900       ?push_back@?$ImVector@UImGuiInputEvent@@@@QEAAXAEBUImGuiInputEvent@@@Z 00000001400e0900 f i zenithtools:imgui.obj
 0001:000df9c0       ?push_back@?$ImVector@UImDrawCmd@@@@QEAAXAEBUImDrawCmd@@@Z 00000001400e09c0 f i zenithtools:imgui_draw.obj
 0001:000df9c0       ?push_back@?$ImVector@UImGuiPopupData@@@@QEAAXAEBUImGuiPopupData@@@Z 00000001400e09c0 f i zenithtools:imgui.obj
 0001:000dfa80       ?push_back@?$ImVector@UImGuiStyleMod@@@@QEAAXAEBUImGuiStyleMod@@@Z 00000001400e0a80 f i zenithtools:imgui.obj
 0001:000dfb40       ?push_front@?$ImVector@UImDrawCmd@@@@QEAAXAEBUImDrawCmd@@@Z 00000001400e0b40 f i zenithtools:imgui.obj
 0001:000dfcb0       ?reserve@?$ImVector@D@@QEAAXH@Z 00000001400e0cb0 f i zenithtools:imgui.obj
 0001:000dfd10       ?reserve@?$ImVector@H@@QEAAXH@Z 00000001400e0d10 f i zenithtools:imgui.obj
 0001:000dfd10       ?reserve@?$ImVector@I@@QEAAXH@Z 00000001400e0d10 f i zenithtools:imgui.obj
 0001:000dfd10       ?reserve@?$ImVector@M@@QEAAXH@Z 00000001400e0d10 f i zenithtools:imgui.obj
 0001:000dfd80       ?reserve@?$ImVector@PEAUImDrawList@@@@QEAAXH@Z 00000001400e0d80 f i zenithtools:imgui_draw.obj
 0001:000dfd80       ?reserve@?$ImVector@PEAUImGuiWindow@@@@QEAAXH@Z 00000001400e0d80 f i zenithtools:imgui.obj
 0001:000dfd80       ?reserve@?$ImVector@PEAX@@QEAAXH@Z 00000001400e0d80 f i zenithtools:imgui_draw.obj
 0001:000dfd80       ?reserve@?$ImVector@UImGuiFocusScopeData@@@@QEAAXH@Z 00000001400e0d80 f i zenithtools:imgui.obj
 0001:000dfd80       ?reserve@?$ImVector@UImVec2@@@@QEAAXH@Z 00000001400e0d80 f i zenithtools:imgui_draw.obj
 0001:000dfdf0       ?reserve@?$ImVector@UImGuiKeyRoutingData@@@@QEAAXH@Z 00000001400e0df0 f i zenithtools:imgui.obj
 0001:000dfdf0       ?reserve@?$ImVector@UImVec4@@@@QEAAXH@Z 00000001400e0df0 f i zenithtools:imgui_draw.obj
 0001:000dfe60       ?reserve@?$ImVector@UImGuiStackLevelInfo@@@@QEAAXH@Z 00000001400e0e60 f i zenithtools:imgui.obj
 0001:000dfed0       ?resize@?$ImVector@D@@QEAAXH@Z 00000001400e0ed0 f i zenithtools:imgui.obj
 0001:000dff80       ?resize@?$ImVector@G@@QEAAXH@Z 00000001400e0f80 f i zenithtools:imgui.obj
 0001:000e0030       ?resize@?$ImVector@PEAUImDrawList@@@@QEAAXH@Z 00000001400e1030 f i zenithtools:imgui.obj
 0001:000e00e0       ?resize@?$ImVector@UImDrawCmd@@@@QEAAXH@Z 00000001400e10e0 f i zenithtools:imgui_draw.obj
 0001:000e00e0       ?resize@?$ImVector@UImGuiGroupData@@@@QEAAXH@Z 00000001400e10e0 f i zenithtools:imgui.obj
 0001:000e00e0       ?resize@?$ImVector@UImGuiPopupData@@@@QEAAXH@Z 00000001400e10e0 f i zenithtools:imgui.obj
 0001:000e0190       ?resize@?$ImVector@UImGuiInputEvent@@@@QEAAXH@Z 00000001400e1190 f i zenithtools:imgui.obj
 0001:000e0240       __local_stdio_scanf_options 00000001400e1240 f i zenithtools:imgui.obj
 0001:000e0250       sscanf                     00000001400e1250 f i zenithtools:imgui.obj
 0001:000e02b0       ??$RoundScalarWithFormatT@H@ImGui@@YAHPEBDHH@Z 00000001400e12b0 f i zenithtools:imgui_widgets.obj
 0001:000e03d0       ??$RoundScalarWithFormatT@I@ImGui@@YAIPEBDHI@Z 00000001400e13d0 f i zenithtools:imgui_widgets.obj
 0001:000e04f0       ??$RoundScalarWithFormatT@M@ImGui@@YAMPEBDHM@Z 00000001400e14f0 f i zenithtools:imgui_widgets.obj
 0001:000e0620       ??$RoundScalarWithFormatT@N@ImGui@@YANPEBDHN@Z 00000001400e1620 f i zenithtools:imgui_widgets.obj
 0001:000e0740       ??$RoundScalarWithFormatT@_J@ImGui@@YA_JPEBDH_J@Z 00000001400e1740 f i zenithtools:imgui_widgets.obj
 0001:000e0860       ??$RoundScalarWithFormatT@_K@ImGui@@YA_KPEBDH_K@Z 00000001400e1860 f i zenithtools:imgui_widgets.obj
 0001:000e09b0       ??$ScaleRatioFromValueT@HHM@ImGui@@YAMHHHH_NMM@Z 00000001400e19b0 f i zenithtools:imgui_widgets.obj
 0001:000e0cc0       ??$ScaleRatioFromValueT@IHM@ImGui@@YAMHIII_NMM@Z 00000001400e1cc0 f i zenithtools:imgui_widgets.obj
 0001:000e0fe0       ??$ScaleRatioFromValueT@MMM@ImGui@@YAMHMMM_NMM@Z 00000001400e1fe0 f i zenithtools:imgui_widgets.obj
 0001:000e12d0       ??$ScaleRatioFromValueT@NNN@ImGui@@YAMHNNN_NMM@Z 00000001400e22d0 f i zenithtools:imgui_widgets.obj
 0001:000e1620       ??$ScaleRatioFromValueT@_J_JN@ImGui@@YAMH_J00_NMM@Z 00000001400e2620 f i zenithtools:imgui_widgets.obj
 0001:000e1990       ??$ScaleRatioFromValueT@_K_JN@ImGui@@YAMH_K00_NMM@Z 00000001400e2990 f i zenithtools:imgui_widgets.obj
 0001:000e1de0       ??$ScaleValueFromRatioT@HHM@ImGui@@YAHHMHH_NMM@Z 00000001400e2de0 f i zenithtools:imgui_widgets.obj
 0001:000e2070       ??$ScaleValueFromRatioT@IHM@ImGui@@YAIHMII_NMM@Z 00000001400e3070 f i zenithtools:imgui_widgets.obj
 0001:000e2320       ??$ScaleValueFromRatioT@MMM@ImGui@@YAMHMMM_NMM@Z 00000001400e3320 f i zenithtools:imgui_widgets.obj
 0001:000e2580       ??$ScaleValueFromRatioT@NNN@ImGui@@YANHMNN_NMM@Z 00000001400e3580 f i zenithtools:imgui_widgets.obj
 0001:000e2840       ??$ScaleValueFromRatioT@_J_JN@ImGui@@YA_JHM_J0_NMM@Z 00000001400e3840 f i zenithtools:imgui_widgets.obj
 0001:000e2af0       ??$ScaleValueFromRatioT@_K_JN@ImGui@@YA_KHM_K0_NMM@Z 00000001400e3af0 f i zenithtools:imgui_widgets.obj
 0001:000e2ee0       ??$SliderBehaviorT@HHM@ImGui@@YA_NAEBUImRect@@IHPEAHHHPEBDHPEAU1@@Z 00000001400e3ee0 f i zenithtools:imgui_widgets.obj
 0001:000e36c0       ??$SliderBehaviorT@IHM@ImGui@@YA_NAEBUImRect@@IHPEAIIIPEBDHPEAU1@@Z 00000001400e46c0 f i zenithtools:imgui_widgets.obj
 0001:000e3ea0       ??$SliderBehaviorT@MMM@ImGui@@YA_NAEBUImRect@@IHPEAMMMPEBDHPEAU1@@Z 00000001400e4ea0 f i zenithtools:imgui_widgets.obj
 0001:000e4720       ??$SliderBehaviorT@NNN@ImGui@@YA_NAEBUImRect@@IHPEANNNPEBDHPEAU1@@Z 00000001400e5720 f i zenithtools:imgui_widgets.obj
 0001:000e4f90       ??$SliderBehaviorT@_J_JN@ImGui@@YA_NAEBUImRect@@IHPEA_J_J2PEBDHPEAU1@@Z 00000001400e5f90 f i zenithtools:imgui_widgets.obj
 0001:000e5780       ??$SliderBehaviorT@_K_JN@ImGui@@YA_NAEBUImRect@@IHPEA_K_K2PEBDHPEAU1@@Z 00000001400e6780 f i zenithtools:imgui_widgets.obj
 0001:000e6040       ?Button@ImGui@@YA_NPEBDAEBUImVec2@@@Z 00000001400e7040 f   zenithtools:imgui_widgets.obj
 0001:000e6050       ?ButtonBehavior@ImGui@@YA_NAEBUImRect@@IPEA_N1H@Z 00000001400e7050 f   zenithtools:imgui_widgets.obj
 0001:000e66d0       ?ButtonEx@ImGui@@YA_NPEBDAEBUImVec2@@H@Z 00000001400e76d0 f   zenithtools:imgui_widgets.obj
 0001:000e6960       ?Checkbox@ImGui@@YA_NPEBDPEA_N@Z 00000001400e7960 f   zenithtools:imgui_widgets.obj
 0001:000e6e20       ?CloseButton@ImGui@@YA_NIAEBUImVec2@@@Z 00000001400e7e20 f   zenithtools:imgui_widgets.obj
 0001:000e70f0       ?CollapseButton@ImGui@@YA_NIAEBUImVec2@@@Z 00000001400e80f0 f   zenithtools:imgui_widgets.obj
 0001:000e72a0       ?CollapsingHeader@ImGui@@YA_NPEBDH@Z 00000001400e82a0 f   zenithtools:imgui_widgets.obj
 0001:000e7310       ?DataTypeApplyFromText@ImGui@@YA_NPEBDHPEAX01@Z 00000001400e8310 f   zenithtools:imgui_widgets.obj
 0001:000e7550       ?DataTypeCompare@ImGui@@YAHHPEBX0@Z 00000001400e8550 f   zenithtools:imgui_widgets.obj
 0001:000e7680       ?DataTypeFormatString@ImGui@@YAHPEADHHPEBXPEBD@Z 00000001400e8680 f   zenithtools:imgui_widgets.obj
 0001:000e7760       ?ImParseFormatFindEnd@@YAPEBDPEBD@Z 00000001400e8760 f   zenithtools:imgui_widgets.obj
 0001:000e77c0       ?ImParseFormatPrecision@@YAHPEBDH@Z 00000001400e87c0 f   zenithtools:imgui_widgets.obj
 0001:000e78c0       ?Image@ImGui@@YAXPEAXAEBUImVec2@@11AEBUImVec4@@2@Z 00000001400e88c0 f   zenithtools:imgui_widgets.obj
 0001:000e7ab0       ?InputTextDeactivateHook@ImGui@@YAXI@Z 00000001400e8ab0 f   zenithtools:imgui_widgets.obj
 0001:000e7b20       ?InputTextEx@ImGui@@YA_NPEBD0PEADHAEBUImVec2@@HP6AHPEAUImGuiInputTextCallbackData@@@ZPEAX@Z 00000001400e8b20 f   zenithtools:imgui_widgets.obj
 0001:000eac90       ?MultiSelectAddSetAll@ImGui@@YAXPEAUImGuiMultiSelectTempData@@_N@Z 00000001400ebc90 f   zenithtools:imgui_widgets.obj
 0001:000ead20       ?MultiSelectAddSetRange@ImGui@@YAXPEAUImGuiMultiSelectTempData@@_NH_J2@Z 00000001400ebd20 f   zenithtools:imgui_widgets.obj
 0001:000eae10       ?MultiSelectItemFooter@ImGui@@YAXIPEA_N0@Z 00000001400ebe10 f   zenithtools:imgui_widgets.obj
 0001:000eb370       ?MultiSelectItemHeader@ImGui@@YAXIPEA_NPEAH@Z 00000001400ec370 f   zenithtools:imgui_widgets.obj
 0001:000eba20       ?Scrollbar@ImGui@@YAXW4ImGuiAxis@@@Z 00000001400eca20 f   zenithtools:imgui_widgets.obj
 0001:000ebbd0       ?ScrollbarEx@ImGui@@YA_NAEBUImRect@@IW4ImGuiAxis@@PEA_J_J3H@Z 00000001400ecbd0 f   zenithtools:imgui_widgets.obj
 0001:000ec1c0       ?Selectable@ImGui@@YA_NPEBD_NHAEBUImVec2@@@Z 00000001400ed1c0 f   zenithtools:imgui_widgets.obj
 0001:000ec890       ?SeparatorText@ImGui@@YAXPEBD@Z 00000001400ed890 f   zenithtools:imgui_widgets.obj
 0001:000ec8e0       ?SeparatorTextEx@ImGui@@YAXIPEBD0M@Z 00000001400ed8e0 f   zenithtools:imgui_widgets.obj
 0001:000eccb0       ?SliderBehavior@ImGui@@YA_NAEBUImRect@@IHPEAXPEBX2PEBDHPEAU2@@Z 00000001400edcb0 f   zenithtools:imgui_widgets.obj
 0001:000ed060       ?SliderFloat3@ImGui@@YA_NPEBDQEAMMM0H@Z 00000001400ee060 f   zenithtools:imgui_widgets.obj
 0001:000ed0b0       ?SliderFloat4@ImGui@@YA_NPEBDQEAMMM0H@Z 00000001400ee0b0 f   zenithtools:imgui_widgets.obj
 0001:000ed100       ?SliderFloat@ImGui@@YA_NPEBDPEAMMM0H@Z 00000001400ee100 f   zenithtools:imgui_widgets.obj
 0001:000ed150       ?SliderInt@ImGui@@YA_NPEBDPEAHHH0H@Z 00000001400ee150 f   zenithtools:imgui_widgets.obj
 0001:000ed1a0       ?SliderScalar@ImGui@@YA_NPEBDHPEAXPEBX20H@Z 00000001400ee1a0 f   zenithtools:imgui_widgets.obj
 0001:000ed650       ?SliderScalarN@ImGui@@YA_NPEBDHPEAXHPEBX20H@Z 00000001400ee650 f   zenithtools:imgui_widgets.obj
 0001:000ed7f0       ?TempInputScalar@ImGui@@YA_NAEBUImRect@@IPEBDHPEAX1PEBX3@Z 00000001400ee7f0 f   zenithtools:imgui_widgets.obj
 0001:000edc40       ?Text@ImGui@@YAXPEBDZZ     00000001400eec40 f   zenithtools:imgui_widgets.obj
 0001:000edcb0       ?TextColored@ImGui@@YAXAEBUImVec4@@PEBDZZ 00000001400eecb0 f   zenithtools:imgui_widgets.obj
 0001:000edd40       ?TextEx@ImGui@@YAXPEBD0H@Z 00000001400eed40 f   zenithtools:imgui_widgets.obj
 0001:000ee1a0       ?TextV@ImGui@@YAXPEBDPEAD@Z 00000001400ef1a0 f   zenithtools:imgui_widgets.obj
 0001:000ee200       ?TreeNodeBehavior@ImGui@@YA_NIHPEBD0@Z 00000001400ef200 f   zenithtools:imgui_widgets.obj
 0001:000eeea0       ?TreePushOverrideID@ImGui@@YAXI@Z 00000001400efea0 f   zenithtools:imgui_widgets.obj
 0001:000eeee0       ?Update@ImGuiMenuColumns@@QEAAXM_N@Z 00000001400efee0 f   zenithtools:imgui_widgets.obj
 0001:000ef0b0       ?reserve@?$ImVector@UImGuiSelectionRequest@@@@QEAAXH@Z 00000001400f00b0 f i zenithtools:imgui_widgets.obj
 0001:000f0ab0       ??0ImDrawListSharedData@@QEAA@XZ 00000001400f1ab0 f   zenithtools:imgui_draw.obj
 0001:000f0b70       ??0ImFont@@QEAA@XZ         00000001400f1b70 f   zenithtools:imgui_draw.obj
 0001:000f0bd0       ??0ImFontAtlas@@QEAA@XZ    00000001400f1bd0 f   zenithtools:imgui_draw.obj
 0001:000f0c50       ?AddConvexPolyFilled@ImDrawList@@QEAAXPEBUImVec2@@HI@Z 00000001400f1c50 f   zenithtools:imgui_draw.obj
 0001:000f1210       ?AddDrawCmd@ImDrawList@@QEAAXXZ 00000001400f2210 f   zenithtools:imgui_draw.obj
 0001:000f1260       ?AddDrawListToDrawDataEx@ImGui@@YAXPEAUImDrawData@@PEAU?$ImVector@PEAUImDrawList@@@@PEAUImDrawList@@@Z 00000001400f2260 f   zenithtools:imgui_draw.obj
 0001:000f1300       ?AddFont@ImFontAtlas@@QEAAPEAUImFont@@PEBUImFontConfig@@@Z 00000001400f2300 f   zenithtools:imgui_draw.obj
 0001:000f1610       ?AddFontDefault@ImFontAtlas@@QEAAPEAUImFont@@PEBUImFontConfig@@@Z 00000001400f2610 f   zenithtools:imgui_draw.obj
 0001:000f18c0       ?AddFontFromMemoryCompressedTTF@ImFontAtlas@@QEAAPEAUImFont@@PEBXHMPEBUImFontConfig@@PEBG@Z 00000001400f28c0 f   zenithtools:imgui_draw.obj
 0001:000f1b40       ?AddGlyph@ImFont@@QEAAXPEBUImFontConfig@@GMMMMMMMMM@Z 00000001400f2b40 f   zenithtools:imgui_draw.obj
 0001:000f1d40       ?AddImage@ImDrawList@@QEAAXPEAXAEBUImVec2@@111I@Z 00000001400f2d40 f   zenithtools:imgui_draw.obj
 0001:000f1e10       ?AddLine@ImDrawList@@QEAAXAEBUImVec2@@0IM@Z 00000001400f2e10 f   zenithtools:imgui_draw.obj
 0001:000f1ee0       ?AddPolyline@ImDrawList@@QEAAXPEBUImVec2@@HIHM@Z 00000001400f2ee0 f   zenithtools:imgui_draw.obj
 0001:000f2e20       ?AddRect@ImDrawList@@QEAAXAEBUImVec2@@0IMHM@Z 00000001400f3e20 f   zenithtools:imgui_draw.obj
 0001:000f2f30       ?AddRectFilled@ImDrawList@@QEAAXAEBUImVec2@@0IMH@Z 00000001400f3f30 f   zenithtools:imgui_draw.obj
 0001:000f30d0       ?AddText@ImDrawList@@QEAAXPEBUImFont@@MAEBUImVec2@@IPEBD2MPEBUImVec4@@@Z 00000001400f40d0 f   zenithtools:imgui_draw.obj
 0001:000f31f0       ?BuildLookupTable@ImFont@@QEAAXXZ 00000001400f41f0 f   zenithtools:imgui_draw.obj
 0001:000f37a0       ?CalcTextSizeA@ImFont@@QEBA?AUImVec2@@MMMPEBD0PEAPEBD@Z 00000001400f47a0 f   zenithtools:imgui_draw.obj
 0001:000f39f0       ?CalcWordWrapPositionA@ImFont@@QEBAPEBDMPEBD0M@Z 00000001400f49f0 f   zenithtools:imgui_draw.obj
 0001:000f3bb0       ?Clear@ImDrawData@@QEAAXXZ 00000001400f4bb0 f   zenithtools:imgui_draw.obj
 0001:000f3c20       ?ClearFreeMemory@ImDrawListSplitter@@QEAAXXZ 00000001400f4c20 f   zenithtools:imgui_draw.obj
 0001:000f3ce0       ?ClearOutputData@ImFont@@QEAAXXZ 00000001400f4ce0 f   zenithtools:imgui_draw.obj
 0001:000f3d60       ?FindGlyph@ImFont@@QEBAPEBUImFontGlyph@@G@Z 00000001400f4d60 f   zenithtools:imgui_draw.obj
 0001:000f3d90       ?GetMouseCursorTexData@ImFontAtlas@@QEAA_NHPEAUImVec2@@0QEAU2@1@Z 00000001400f4d90 f   zenithtools:imgui_draw.obj
 0001:000f3e90       ?GetTexDataAsRGBA32@ImFontAtlas@@QEAAXPEAPEAEPEAH11@Z 00000001400f4e90 f   zenithtools:imgui_draw.obj
 0001:000f3fa0       ?GrowIndex@ImFont@@QEAAXH@Z 00000001400f4fa0 f   zenithtools:imgui_draw.obj
 0001:000f5aa0       ?Merge@ImDrawListSplitter@@QEAAXPEAUImDrawList@@@Z 00000001400f6aa0 f   zenithtools:imgui_draw.obj
 0001:000f5f90       ?PathArcTo@ImDrawList@@QEAAXAEBUImVec2@@MMMH@Z 00000001400f6f90 f   zenithtools:imgui_draw.obj
 0001:000f6370       ?PathArcToFast@ImDrawList@@QEAAXAEBUImVec2@@MHH@Z 00000001400f7370 f   zenithtools:imgui_draw.obj
 0001:000f6410       ?PathRect@ImDrawList@@QEAAXAEBUImVec2@@0MH@Z 00000001400f7410 f   zenithtools:imgui_draw.obj
 0001:000f67e0       ?PopClipRect@ImDrawList@@QEAAXXZ 00000001400f77e0 f   zenithtools:imgui_draw.obj
 0001:000f6820       ?PopTextureID@ImDrawList@@QEAAXXZ 00000001400f7820 f   zenithtools:imgui_draw.obj
 0001:000f6860       ?PrimRectUV@ImDrawList@@QEAAXAEBUImVec2@@000I@Z 00000001400f7860 f   zenithtools:imgui_draw.obj
 0001:000f69b0       ?PrimReserve@ImDrawList@@QEAAXHH@Z 00000001400f79b0 f   zenithtools:imgui_draw.obj
 0001:000f6ab0       ?PushClipRect@ImDrawList@@QEAAXAEBUImVec2@@0_N@Z 00000001400f7ab0 f   zenithtools:imgui_draw.obj
 0001:000f6bb0       ?PushTextureID@ImDrawList@@QEAAXPEAX@Z 00000001400f7bb0 f   zenithtools:imgui_draw.obj
 0001:000f6c30       ?RenderArrow@ImGui@@YAXPEAUImDrawList@@UImVec2@@IW4ImGuiDir@@M@Z 00000001400f7c30 f   zenithtools:imgui_draw.obj
 0001:000f6e40       ?RenderBullet@ImGui@@YAXPEAUImDrawList@@UImVec2@@I@Z 00000001400f7e40 f   zenithtools:imgui_draw.obj
 0001:000f6ec0       ?RenderChar@ImFont@@QEBAXPEAUImDrawList@@MAEBUImVec2@@IG@Z 00000001400f7ec0 f   zenithtools:imgui_draw.obj
 0001:000f7070       ?RenderCheckMark@ImGui@@YAXPEAUImDrawList@@UImVec2@@IM@Z 00000001400f8070 f   zenithtools:imgui_draw.obj
 0001:000f7290       ?RenderText@ImFont@@QEBAXPEAUImDrawList@@MAEBUImVec2@@IAEBUImVec4@@PEBD3M_N@Z 00000001400f8290 f   zenithtools:imgui_draw.obj
 0001:000f7970       ?SetCircleTessellationMaxError@ImDrawListSharedData@@QEAAXM@Z 00000001400f8970 f   zenithtools:imgui_draw.obj
 0001:000f7a80       ?SetCurrentChannel@ImDrawListSplitter@@QEAAXPEAUImDrawList@@H@Z 00000001400f8a80 f   zenithtools:imgui_draw.obj
 0001:000f7ba0       ?StyleColorsDark@ImGui@@YAXPEAUImGuiStyle@@@Z 00000001400f8ba0 f   zenithtools:imgui_draw.obj
 0001:000f80e0       ?_CalcCircleAutoSegmentCount@ImDrawList@@QEBAHM@Z 00000001400f90e0 f   zenithtools:imgui_draw.obj
 0001:000f81a0       ?_ClearFreeMemory@ImDrawList@@QEAAXXZ 00000001400f91a0 f   zenithtools:imgui_draw.obj
 0001:000f8270       ?_OnChangedClipRect@ImDrawList@@QEAAXXZ 00000001400f9270 f   zenithtools:imgui_draw.obj
 0001:000f8350       ?_OnChangedTextureID@ImDrawList@@QEAAXXZ 00000001400f9350 f   zenithtools:imgui_draw.obj
 0001:000f8420       ?_PathArcToFastEx@ImDrawList@@QEAAXAEBUImVec2@@MHHH@Z 00000001400f9420 f   zenithtools:imgui_draw.obj
 0001:000f8710       ?_PathArcToN@ImDrawList@@QEAAXAEBUImVec2@@MMMH@Z 00000001400f9710 f   zenithtools:imgui_draw.obj
 0001:000f88c0       ?_PopUnusedDrawCmd@ImDrawList@@QEAAXXZ 00000001400f98c0 f   zenithtools:imgui_draw.obj
 0001:000f8900       ?_ResetForNewFrame@ImDrawList@@QEAAXXZ 00000001400f9900 f   zenithtools:imgui_draw.obj
 0001:000f8a50       ?push_back@?$ImVector@UImFontAtlasCustomRect@@@@QEAAXAEBUImFontAtlasCustomRect@@@Z 00000001400f9a50 f i zenithtools:imgui_draw.obj
 0001:000f8b00       ?push_back@?$ImVector@UImVec2@@@@QEAAXAEBUImVec2@@@Z 00000001400f9b00 f i zenithtools:imgui_draw.obj
 0001:000f8bb0       ?reserve_discard@?$ImVector@UImVec2@@@@QEAAXH@Z 00000001400f9bb0 f i zenithtools:imgui_draw.obj
 0001:000f8c00       ?resize@?$ImVector@I@@QEAAXH@Z 00000001400f9c00 f i zenithtools:imgui_draw.obj
 0001:000f8cb0       ?resize@?$ImVector@UImDrawVert@@@@QEAAXH@Z 00000001400f9cb0 f i zenithtools:imgui_draw.obj
 0001:000f8d70       ?resize@?$ImVector@UImFontGlyph@@@@QEAAXH@Z 00000001400f9d70 f i zenithtools:imgui_draw.obj
 0001:000ff8d0       ?ImGui_ImplVulkan_CreateDeviceObjects@@YA_NXZ 00000001401008d0 f   zenithtools:imgui_impl_vulkan.obj
 0001:000ffb20       ?ImGui_ImplVulkan_CreateFontsTexture@@YA_NXZ 0000000140100b20 f   zenithtools:imgui_impl_vulkan.obj
 0001:00100a90       ?ImGui_ImplVulkan_DestroyFontsTexture@@YAXXZ 0000000140101a90 f   zenithtools:imgui_impl_vulkan.obj
 0001:00100b90       ?ImGui_ImplVulkan_Init@@YA_NPEAUImGui_ImplVulkan_InitInfo@@@Z 0000000140101b90 f   zenithtools:imgui_impl_vulkan.obj
 0001:00100db0       ?ImGui_ImplVulkan_NewFrame@@YAXXZ 0000000140101db0 f   zenithtools:imgui_impl_vulkan.obj
 0001:00100df0       ?ImGui_ImplVulkan_RenderDrawData@@YAXPEAUImDrawData@@PEAUVkCommandBuffer_T@@PEAUVkPipeline_T@@@Z 0000000140101df0 f   zenithtools:imgui_impl_vulkan.obj
 0001:00101630       ?ImGui_ImplGlfw_CharCallback@@YAXPEAUGLFWwindow@@I@Z 0000000140102630 f   zenithtools:imgui_impl_glfw.obj
 0001:001016c0       ?ImGui_ImplGlfw_CursorEnterCallback@@YAXPEAUGLFWwindow@@H@Z 00000001401026c0 f   zenithtools:imgui_impl_glfw.obj
 0001:00101780       ?ImGui_ImplGlfw_CursorPosCallback@@YAXPEAUGLFWwindow@@NN@Z 0000000140102780 f   zenithtools:imgui_impl_glfw.obj
 0001:00101b00       ?ImGui_ImplGlfw_InitForVulkan@@YA_NPEAUGLFWwindow@@_N@Z 0000000140102b00 f   zenithtools:imgui_impl_glfw.obj
 0001:00101b10       ?ImGui_ImplGlfw_KeyCallback@@YAXPEAUGLFWwindow@@HHHH@Z 0000000140102b10 f   zenithtools:imgui_impl_glfw.obj
 0001:001022f0       ?ImGui_ImplGlfw_MouseButtonCallback@@YAXPEAUGLFWwindow@@HHH@Z 00000001401032f0 f   zenithtools:imgui_impl_glfw.obj
 0001:001023b0       ?ImGui_ImplGlfw_NewFrame@@YAXXZ 00000001401033b0 f   zenithtools:imgui_impl_glfw.obj
 0001:001025d0       ?ImGui_ImplGlfw_ScrollCallback@@YAXPEAUGLFWwindow@@NN@Z 00000001401035d0 f   zenithtools:imgui_impl_glfw.obj
 0001:00102be0       ?ImGui_ImplGlfw_WindowFocusCallback@@YAXPEAUGLFWwindow@@H@Z 0000000140103be0 f   zenithtools:imgui_impl_glfw.obj
 0001:00102da0       ??$_Destroy_range@V?$allocator@U_Find_file_handle@filesystem@std@@@std@@@std@@YAXPEAU_Find_file_handle@filesystem@0@QEAU120@AEAV?$allocator@U_Find_file_handle@filesystem@std@@@0@@Z 0000000140103da0 f i zenithtools:Zenith_Tools_MeshExport.obj
 0001:00102de0       ??$_Emplace_reallocate@U_Find_file_handle@filesystem@std@@@?$vector@U_Find_file_handle@filesystem@std@@V?$allocator@U_Find_file_handle@filesystem@std@@@3@@std@@AEAAPEAU_Find_file_handle@filesystem@1@QEAU231@$$QEAU231@@Z 0000000140103de0 f i zenithtools:Zenith_Tools_MeshExport.obj
 0001:00103120       ??$_Reallocate_grow_by@V<lambda_55b0f89b53a0342680e40398a0d39887>@@_K_KPEBD_K@?$basic_string@DU?$char_traits@D@std@@V?$allocator@D@2@@std@@AEAAAEAV01@_KV<lambda_55b0f89b53a0342680e40398a0d39887>@@_K2PEBD2@Z 0000000140104120 f i zenithtools:Zenith_Tools_MeshExport.obj
 0001:001032f0       ??0_Dir_enum_impl@filesystem@std@@QEAA@$$QEAU_Creator@012@W4directory_options@12@@Z 00000001401042f0 f i zenithtools:Zenith_Tools_MeshExport.obj
 0001:001033e0       ??1?$vector@U_Find_file_handle@filesystem@std@@V?$allocator@U_Find_file_handle@filesystem@std@@@3@@std@@QEAA@XZ 00000001401043e0 f i zenithtools:Zenith_Tools_MeshExport.obj
 0001:00103470       ??_E?$_Ref_count_obj2@U_Recursive_dir_enum_impl@filesystem@std@@@std@@UEAAPEAXI@Z 0000000140104470 f i zenithtools:Zenith_Tools_MeshExport.obj
 0001:00103470       ??_G?$_Ref_count_obj2@U_Recursive_dir_enum_impl@filesystem@std@@@std@@UEAAPEAXI@Z 0000000140104470 f i zenithtools:Zenith_Tools_MeshExport.obj
 0001:001034a0       ?ExportAllMeshes@@YAXXZ    00000001401044a0 f   zenithtools:Zenith_Tools_MeshExport.obj
 0001:00105a20       ?_Advance_and_reset_if_no_more_files@_Recursive_dir_enum_impl@filesystem@std@@SA?AW4__std_win_error@@AEAV?$shared_ptr@U_Recursive_dir_enum_impl@filesystem@std@@@3@@Z 0000000140106a20 f i zenithtools:Zenith_Tools_MeshExport.obj
 0001:00105d10       ?_Destroy@?$_Ref_count_obj2@U_Recursive_dir_enum_impl@filesystem@std@@@std@@EEAAXXZ 0000000140106d10 f i zenithtools:Zenith_Tools_MeshExport.obj
 0001:00105d40       ?_Remove_filename_and_separator@path@filesystem@std@@QEAAXXZ 0000000140106d40 f i zenithtools:Zenith_Tools_MeshExport.obj
 0001:00105e20       ?replace@?$basic_string@DU?$char_traits@D@std@@V?$allocator@D@2@@std@@QEAAAEAV12@_K_KQEBD0@Z 0000000140106e20 f i zenithtools:Zenith_Tools_MeshExport.obj
 0001:00105fc0       ?resize@?$basic_string@_WU?$char_traits@_W@std@@V?$allocator@_W@2@@std@@QEAAX_K_W@Z 0000000140106fc0 f i zenithtools:Zenith_Tools_MeshExport.obj
 0001:001060e0       ??0recursive_directory_iterator@filesystem@std@@QEAA@AEBVpath@12@@Z 00000001401070e0 f i zenithtools:Zenith_Tools_TextureExport.obj
 0001:00106270       ?ExportAllTextures@@YAXXZ  0000000140107270 f   zenithtools:Zenith_Tools_TextureExport.obj
 0001:00106520       ?ExportFromData@Zenith_Tools_TextureExport@@YAXPEBXAEBV?$basic_string@DU?$char_traits@D@std@@V?$allocator@D@2@@std@@HHW4ColourFormat@@@Z 0000000140107520 f   zenithtools:Zenith_Tools_TextureExport.obj
 0001:00106810       ?ExportFromFile@Zenith_Tools_TextureExport@@YAXV?$basic_string@DU?$char_traits@D@std@@V?$allocator@D@2@@std@@PEBD@Z 0000000140107810 f   zenithtools:Zenith_Tools_TextureExport.obj
 0001:00106b60       ?ExportTexture@@YAXAEBVdirectory_entry@filesystem@std@@@Z 0000000140107b60 f   zenithtools:Zenith_Tools_TextureExport.obj
 0001:00117940       stbi_load_from_memory      0000000140118940 f   zenithtools:Zenith_Tools_TextureExport.obj
 0001:001179b0       ?ExportHeightmap@@YAXXZ    00000001401189b0 f   zenithtools:Zenith_Tools_TerrainExport.obj
 0001:00117a50       ?ExportMesh@@YAXIV?$basic_string@DU?$char_traits@D@std@@V?$allocator@D@2@@std@@@Z 0000000140118a50 f   zenithtools:Zenith_Tools_TerrainExport.obj
 0001:0011a2c0       ?GenerateFullTerrain@@YAXAEAVMat@cv@@0AEAVFlux_MeshGeometry@@I@Z 000000014011b2c0 f   zenithtools:Zenith_Tools_TerrainExport.obj
 0001:0011aaa0       ?allocate@?$allocator@U?$_Tree_node@IPEAX@std@@@std@@QEAAPEAU?$_Tree_node@IPEAX@2@_K@Z 000000014011baa0 f i zenithtools:Zenith_Tools_TerrainExport.obj
 0001:0011ab10       ?EndColumns@ImGui@@YAXXZ   000000014011bb10 f   zenithtools:imgui_tables.obj
 0001:0011afe0       ?PopColumnsBackground@ImGui@@YAXXZ 000000014011bfe0 f   zenithtools:imgui_tables.obj
 0001:0011b0a0       ?PushColumnsBackground@ImGui@@YAXXZ 000000014011c0a0 f   zenithtools:imgui_tables.obj
 0001:0011b170       ?SetColumnOffset@ImGui@@YAXHM@Z 000000014011c170 f   zenithtools:imgui_tables.obj
 0001:0011b290       ?TableGcCompactSettings@ImGui@@YAXXZ 000000014011c290 f   zenithtools:imgui_tables.obj
 0001:0011b470       ?TableGcCompactTransientBuffers@ImGui@@YAXPEAUImGuiTable@@@Z 000000014011c470 f   zenithtools:imgui_tables.obj
 0001:0011b540       ?TableGcCompactTransientBuffers@ImGui@@YAXPEAUImGuiTableTempData@@@Z 000000014011c540 f   zenithtools:imgui_tables.obj
 0001:0011b560       ?TablePopBackgroundChannel@ImGui@@YAXXZ 000000014011c560 f   zenithtools:imgui_tables.obj
 0001:0011b630       ?TablePushBackgroundChannel@ImGui@@YAXXZ 000000014011c630 f   zenithtools:imgui_tables.obj
 0001:0011b700       ?TableSettingsAddSettingsHandler@ImGui@@YAXXZ 000000014011c700 f   zenithtools:imgui_tables.obj
 0001:0011b780       ?TableSettingsCreate@ImGui@@YAPEAUImGuiTableSettings@@IH@Z 000000014011c780 f   zenithtools:imgui_tables.obj
 0001:0011c084       ??0Importer@Assimp@@QEAA@XZ 000000014011d084 f   assimp-vc143-mt:assimp-vc143-mt.dll
 0001:0011c08a       ??1Importer@Assimp@@QEAA@XZ 000000014011d08a f   assimp-vc143-mt:assimp-vc143-mt.dll
 0001:0011c090       ?ReadFile@Importer@Assimp@@QEAAPEBUaiScene@@PEBDI@Z 000000014011d090 f   assimp-vc143-mt:assimp-vc143-mt.dll
 0001:0011c096       aiGetMaterialTexture       000000014011d096 f   assimp-vc143-mt:assimp-vc143-mt.dll
 0001:0011c0a0       _glfwInputFramebufferSize  000000014011d0a0 f   glfw3_mt:window.obj
 0001:0011c0b0       _glfwInputWindowCloseRequest 000000014011d0b0 f   glfw3_mt:window.obj
 0001:0011c0d0       _glfwInputWindowContentScale 000000014011d0d0 f   glfw3_mt:window.obj
 0001:0011c0e0       _glfwInputWindowDamage     000000014011d0e0 f   glfw3_mt:window.obj
 0001:0011c0f0       _glfwInputWindowFocus      000000014011d0f0 f   glfw3_mt:window.obj
 0001:0011c250       _glfwInputWindowIconify    000000014011d250 f   glfw3_mt:window.obj
 0001:0011c260       _glfwInputWindowMaximize   000000014011d260 f   glfw3_mt:window.obj
 0001:0011c270       _glfwInputWindowMonitor    000000014011d270 f   glfw3_mt:window.obj
 0001:0011c280       _glfwInputWindowPos        000000014011d280 f   glfw3_mt:window.obj
 0001:0011c290       _glfwInputWindowSize       000000014011d290 f   glfw3_mt:window.obj
 0001:0011c2a0       glfwCreateWindow           000000014011d2a0 f   glfw3_mt:window.obj
 0001:0011c610       glfwDefaultWindowHints     000000014011d610 f   glfw3_mt:window.obj
 0001:0011c720       glfwDestroyWindow          000000014011d720 f   glfw3_mt:window.obj
 0001:0011c800       glfwGetFramebufferSize     000000014011d800 f   glfw3_mt:window.obj
 0001:0011c830       glfwGetWindowAttrib        000000014011d830 f   glfw3_mt:window.obj
 0001:0011ca20       glfwGetWindowSize          000000014011da20 f   glfw3_mt:window.obj
 0001:0011ca50       glfwPollEvents             000000014011da50 f   glfw3_mt:window.obj
 0001:0011ca70       glfwSetWindowFocusCallback 000000014011da70 f   glfw3_mt:window.obj
 0001:0011cab0       glfwWindowHint             000000014011dab0 f   glfw3_mt:window.obj
 0001:0011ce10       _glfwGetVulkanResultString 000000014011de10 f   glfw3_mt:vulkan.obj
 0001:0011cf80       _glfwInitVulkan            000000014011df80 f   glfw3_mt:vulkan.obj
 0001:0011d240       _glfwTerminateVulkan       000000014011e240 f   glfw3_mt:vulkan.obj
 0001:0011d260       glfwCreateWindowSurface    000000014011e260 f   glfw3_mt:vulkan.obj
 0001:0011d320       glfwGetRequiredInstanceExtensions 000000014011e320 f   glfw3_mt:vulkan.obj
 0001:0011d380       _glfwInputError            000000014011e380 f   glfw3_mt:init.obj
 0001:0011d810       _glfw_calloc               000000014011e810 f   glfw3_mt:init.obj
 0001:0011d890       _glfw_free                 000000014011e890 f   glfw3_mt:init.obj
 0001:0011d8b0       _glfw_max                  000000014011e8b0 f   glfw3_mt:init.obj
 0001:0011d8c0       _glfw_min                  000000014011e8c0 f   glfw3_mt:init.obj
 0001:0011d8d0       _glfw_realloc              000000014011e8d0 f   glfw3_mt:init.obj
 0001:0011d980       _glfw_strdup               000000014011e980 f   glfw3_mt:init.obj
 0001:0011da30       glfwGetError               000000014011ea30 f   glfw3_mt:init.obj
 0001:0011da90       glfwInit                   000000014011ea90 f   glfw3_mt:init.obj
 0001:0011dc10       glfwSetErrorCallback       000000014011ec10 f   glfw3_mt:init.obj
 0001:0011ddb0       _glfwAllocJoystick         000000014011edb0 f   glfw3_mt:input.obj
 0001:0011dfa0       _glfwCenterCursorInContentArea 000000014011efa0 f   glfw3_mt:input.obj
 0001:0011dff0       _glfwFreeJoystick          000000014011eff0 f   glfw3_mt:input.obj
 0001:0011e030       _glfwInitGamepadMappings   000000014011f030 f   glfw3_mt:input.obj
 0001:0011e0b0       _glfwInputChar             000000014011f0b0 f   glfw3_mt:input.obj
 0001:0011e120       _glfwInputCursorEnter      000000014011f120 f   glfw3_mt:input.obj
 0001:0011e130       _glfwInputCursorPos        000000014011f130 f   glfw3_mt:input.obj
 0001:0011e170       _glfwInputDrop             000000014011f170 f   glfw3_mt:input.obj
 0001:0011e180       _glfwInputJoystick         000000014011f180 f   glfw3_mt:input.obj
 0001:0011e1e0       _glfwInputJoystickAxis     000000014011f1e0 f   glfw3_mt:input.obj
 0001:0011e1f0       _glfwInputJoystickButton   000000014011f1f0 f   glfw3_mt:input.obj
 0001:0011e200       _glfwInputJoystickHat      000000014011f200 f   glfw3_mt:input.obj
 0001:0011e270       _glfwInputKey              000000014011f270 f   glfw3_mt:input.obj
 0001:0011e300       _glfwInputMouseClick       000000014011f300 f   glfw3_mt:input.obj
 0001:0011e350       _glfwInputScroll           000000014011f350 f   glfw3_mt:input.obj
 0001:0011e3f0       glfwCreateStandardCursor   000000014011f3f0 f   glfw3_mt:input.obj
 0001:0011e4a0       glfwDestroyCursor          000000014011f4a0 f   glfw3_mt:input.obj
 0001:0011e570       glfwGetClipboardString     000000014011f570 f   glfw3_mt:input.obj
 0001:0011e5a0       glfwGetCursorPos           000000014011f5a0 f   glfw3_mt:input.obj
 0001:0011e600       glfwGetGamepadState        000000014011f600 f   glfw3_mt:input.obj
 0001:0011eea0       glfwGetInputMode           000000014011fea0 f   glfw3_mt:input.obj
 0001:0011ef40       glfwGetKey                 000000014011ff40 f   glfw3_mt:input.obj
 0001:0011efc0       glfwGetKeyName             000000014011ffc0 f   glfw3_mt:input.obj
 0001:0011f040       glfwGetTime                0000000140120040 f   glfw3_mt:input.obj
 0001:0011f0e0       glfwSetCharCallback        00000001401200e0 f   glfw3_mt:input.obj
 0001:0011f120       glfwSetClipboardString     0000000140120120 f   glfw3_mt:input.obj
 0001:0011f140       glfwSetCursor              0000000140120140 f   glfw3_mt:input.obj
 0001:0011f160       glfwSetCursorEnterCallback 0000000140120160 f   glfw3_mt:input.obj
 0001:0011f1a0       glfwSetCursorPos           00000001401201a0 f   glfw3_mt:input.obj
 0001:0011f2a0       glfwSetCursorPosCallback   00000001401202a0 f   glfw3_mt:input.obj
 0001:0011f2e0       glfwSetInputMode           00000001401202e0 f   glfw3_mt:input.obj
 0001:0011f520       glfwSetKeyCallback         0000000140120520 f   glfw3_mt:input.obj
 0001:0011f560       glfwSetMouseButtonCallback 0000000140120560 f   glfw3_mt:input.obj
 0001:0011f5a0       glfwSetScrollCallback      00000001401205a0 f   glfw3_mt:input.obj
 0001:0011fdb0       _glfwAllocGammaArrays      0000000140120db0 f   glfw3_mt:monitor.obj
 0001:0011fe10       _glfwAllocMonitor          0000000140120e10 f   glfw3_mt:monitor.obj
 0001:0011fe80       _glfwChooseVideoMode       0000000140120e80 f   glfw3_mt:monitor.obj
 0001:001200a0       _glfwCompareVideoModes     00000001401210a0 f   glfw3_mt:monitor.obj
 0001:001200b0       _glfwFreeGammaArrays       00000001401210b0 f   glfw3_mt:monitor.obj
 0001:001200f0       _glfwFreeMonitor           00000001401210f0 f   glfw3_mt:monitor.obj
 0001:00120190       _glfwInputMonitor          0000000140121190 f   glfw3_mt:monitor.obj
 0001:001203d0       _glfwInputMonitorWindow    00000001401213d0 f   glfw3_mt:monitor.obj
 0001:001203e0       _glfwSplitBPP              00000001401213e0 f   glfw3_mt:monitor.obj
 0001:001204b0       glfwSetMonitorCallback     00000001401214b0 f   glfw3_mt:monitor.obj
 0001:00120580       _glfwCreateCursorWin32     0000000140121580 f   glfw3_mt:win32_window.obj
 0001:001205c0       _glfwCreateStandardCursorWin32 00000001401215c0 f   glfw3_mt:win32_window.obj
 0001:001206c0       _glfwCreateWindowSurfaceWin32 00000001401216c0 f   glfw3_mt:win32_window.obj
 0001:00120790       _glfwCreateWindowWin32     0000000140121790 f   glfw3_mt:win32_window.obj
 0001:00120970       _glfwDestroyCursorWin32    0000000140121970 f   glfw3_mt:win32_window.obj
 0001:00120990       _glfwDestroyWindowWin32    0000000140121990 f   glfw3_mt:win32_window.obj
 0001:00120a50       _glfwFocusWindowWin32      0000000140121a50 f   glfw3_mt:win32_window.obj
 0001:00120a90       _glfwFramebufferTransparentWin32 0000000140121a90 f   glfw3_mt:win32_window.obj
 0001:00120b10       _glfwGetClipboardStringWin32 0000000140121b10 f   glfw3_mt:win32_window.obj
 0001:00120c20       _glfwGetCursorPosWin32     0000000140121c20 f   glfw3_mt:win32_window.obj
 0001:00120c90       _glfwGetEGLNativeDisplayWin32 0000000140121c90 f   glfw3_mt:win32_window.obj
 0001:00120ca0       _glfwGetEGLNativeWindowWin32 0000000140121ca0 f   glfw3_mt:win32_window.obj
 0001:00120cb0       _glfwGetEGLPlatformWin32   0000000140121cb0 f   glfw3_mt:win32_window.obj
 0001:00120d80       _glfwGetFramebufferSizeWin32 0000000140121d80 f   glfw3_mt:win32_window.obj
 0001:00120d80       _glfwGetWindowSizeWin32    0000000140121d80 f   glfw3_mt:win32_window.obj
 0001:00120de0       _glfwGetKeyScancodeWin32   0000000140121de0 f   glfw3_mt:win32_window.obj
 0001:00120df0       _glfwGetPhysicalDevicePresentationSupportWin32 0000000140121df0 f   glfw3_mt:win32_window.obj
 0001:00120e50       _glfwGetRequiredInstanceExtensionsWin32 0000000140121e50 f   glfw3_mt:win32_window.obj
 0001:00120e80       _glfwGetScancodeNameWin32  0000000140121e80 f   glfw3_mt:win32_window.obj
 0001:00120ed0       _glfwGetWindowContentScaleWin32 0000000140121ed0 f   glfw3_mt:win32_window.obj
 0001:00120f10       _glfwGetWindowFrameSizeWin32 0000000140121f10 f   glfw3_mt:win32_window.obj
 0001:001210d0       _glfwGetWindowOpacityWin32 00000001401220d0 f   glfw3_mt:win32_window.obj
 0001:00121140       _glfwGetWindowPosWin32     0000000140122140 f   glfw3_mt:win32_window.obj
 0001:00121190       _glfwHideWindowWin32       0000000140122190 f   glfw3_mt:win32_window.obj
 0001:001211a0       _glfwIconifyWindowWin32    00000001401221a0 f   glfw3_mt:win32_window.obj
 0001:001211c0       _glfwMaximizeWindowWin32   00000001401221c0 f   glfw3_mt:win32_window.obj
 0001:001213c0       _glfwPollEventsWin32       00000001401223c0 f   glfw3_mt:win32_window.obj
 0001:00121620       _glfwPostEmptyEventWin32   0000000140122620 f   glfw3_mt:win32_window.obj
 0001:00121640       _glfwCreateCursorNull      0000000140122640 f   glfw3_mt:null_window.obj
 0001:00121640       _glfwCreateStandardCursorNull 0000000140122640 f   glfw3_mt:null_window.obj
 0001:00121640       _glfwInitJoysticksNull     0000000140122640 f   glfw3_mt:null_joystick.obj
 0001:00121640       _glfwRawMouseMotionSupportedNull 0000000140122640 f   glfw3_mt:null_window.obj
 0001:00121640       _glfwRawMouseMotionSupportedWin32 0000000140122640 f   glfw3_mt:win32_window.obj
 0001:00121650       _glfwRequestWindowAttentionWin32 0000000140122650 f   glfw3_mt:win32_window.obj
 0001:00121670       _glfwRestoreWindowWin32    0000000140122670 f   glfw3_mt:win32_window.obj
 0001:00121690       _glfwSetClipboardStringWin32 0000000140122690 f   glfw3_mt:win32_window.obj
 0001:001217c0       _glfwSetCursorModeWin32    00000001401227c0 f   glfw3_mt:win32_window.obj
 0001:001218f0       _glfwSetCursorPosWin32     00000001401228f0 f   glfw3_mt:win32_window.obj
 0001:00121940       _glfwSetCursorWin32        0000000140122940 f   glfw3_mt:win32_window.obj
 0001:00121970       _glfwSetRawMouseMotionWin32 0000000140122970 f   glfw3_mt:win32_window.obj
 0001:00121a00       _glfwSetWindowAspectRatioWin32 0000000140122a00 f   glfw3_mt:win32_window.obj
 0001:00121a90       _glfwSetWindowDecoratedWin32 0000000140122a90 f   glfw3_mt:win32_window.obj
 0001:00121a90       _glfwSetWindowResizableWin32 0000000140122a90 f   glfw3_mt:win32_window.obj
 0001:00121aa0       _glfwSetWindowFloatingWin32 0000000140122aa0 f   glfw3_mt:win32_window.obj
 0001:00121ae0       _glfwSetWindowIconWin32    0000000140122ae0 f   glfw3_mt:win32_window.obj
 0001:00121c40       _glfwSetWindowMonitorWin32 0000000140122c40 f   glfw3_mt:win32_window.obj
 0001:00122050       _glfwSetWindowMousePassthroughWin32 0000000140123050 f   glfw3_mt:win32_window.obj
 0001:00122120       _glfwSetWindowOpacityWin32 0000000140123120 f   glfw3_mt:win32_window.obj
 0001:001221c0       _glfwSetWindowPosWin32     00000001401231c0 f   glfw3_mt:win32_window.obj
 0001:001222f0       _glfwSetWindowSizeLimitsWin32 00000001401232f0 f   glfw3_mt:win32_window.obj
 0001:00122380       _glfwSetWindowSizeWin32    0000000140123380 f   glfw3_mt:win32_window.obj
 0001:00122500       _glfwSetWindowTitleWin32   0000000140123500 f   glfw3_mt:win32_window.obj
 0001:00122540       _glfwShowWindowWin32       0000000140123540 f   glfw3_mt:win32_window.obj
 0001:001225d0       _glfwWaitEventsTimeoutWin32 00000001401235d0 f   glfw3_mt:win32_window.obj
 0001:00122600       _glfwWaitEventsWin32       0000000140123600 f   glfw3_mt:win32_window.obj
 0001:00122620       _glfwWindowFocusedWin32    0000000140123620 f   glfw3_mt:win32_window.obj
 0001:00122650       _glfwWindowHoveredWin32    0000000140123650 f   glfw3_mt:win32_window.obj
 0001:00122660       _glfwWindowIconifiedWin32  0000000140123660 f   glfw3_mt:win32_window.obj
 0001:00122670       _glfwWindowMaximizedWin32  0000000140123670 f   glfw3_mt:win32_window.obj
 0001:00122680       _glfwWindowVisibleWin32    0000000140123680 f   glfw3_mt:win32_window.obj
 0001:001236d0       glfwGetWin32Window         00000001401246d0 f   glfw3_mt:win32_window.obj
 0001:00124be0       _glfwChooseFBConfig        0000000140125be0 f   glfw3_mt:context.obj
 0001:00124dd0       _glfwIsValidContextConfig  0000000140125dd0 f   glfw3_mt:context.obj
 0001:00125010       _glfwRefreshContextAttribs 0000000140126010 f   glfw3_mt:context.obj
 0001:00125620       _glfwStringInExtensionString 0000000140126620 f   glfw3_mt:context.obj
 0001:00125690       glfwExtensionSupported     0000000140126690 f   glfw3_mt:context.obj
 0001:00125840       glfwMakeContextCurrent     0000000140126840 f   glfw3_mt:context.obj
 0001:001258e0       _glfwPlatformCreateMutex   00000001401268e0 f   glfw3_mt:win32_thread.obj
 0001:00125910       _glfwPlatformCreateTls     0000000140126910 f   glfw3_mt:win32_thread.obj
 0001:00125960       _glfwPlatformDestroyMutex  0000000140126960 f   glfw3_mt:win32_thread.obj
 0001:00125990       _glfwPlatformDestroyTls    0000000140126990 f   glfw3_mt:win32_thread.obj
 0001:001259c0       _glfwPlatformGetTls        00000001401269c0 f   glfw3_mt:win32_thread.obj
 0001:001259d0       _glfwPlatformLockMutex     00000001401269d0 f   glfw3_mt:win32_thread.obj
 0001:001259e0       _glfwPlatformSetTls        00000001401269e0 f   glfw3_mt:win32_thread.obj
 0001:001259f0       _glfwPlatformUnlockMutex   00000001401269f0 f   glfw3_mt:win32_thread.obj
 0001:00125a00       _glfwPlatformFreeModule    0000000140126a00 f   glfw3_mt:win32_module.obj
 0001:00125a10       _glfwPlatformGetModuleSymbol 0000000140126a10 f   glfw3_mt:win32_module.obj
 0001:00125a20       _glfwPlatformLoadModule    0000000140126a20 f   glfw3_mt:win32_module.obj
 0001:00125a30       _glfwPlatformGetTimerFrequency 0000000140126a30 f   glfw3_mt:win32_time.obj
 0001:00125a40       _glfwPlatformGetTimerValue 0000000140126a40 f   glfw3_mt:win32_time.obj
 0001:00125a60       _glfwPlatformInitTimer     0000000140126a60 f   glfw3_mt:win32_time.obj
 0001:00125a70       _glfwSelectPlatform        0000000140126a70 f   glfw3_mt:platform.obj
 0001:00125b10       _glfwConnectWin32          0000000140126b10 f   glfw3_mt:win32_init.obj
 0001:00125f20       _glfwCreateUTF8FromWideStringWin32 0000000140126f20 f   glfw3_mt:win32_init.obj
 0001:00126000       _glfwCreateWideStringFromUTF8Win32 0000000140127000 f   glfw3_mt:win32_init.obj
 0001:001260d0       _glfwInitWin32             00000001401270d0 f   glfw3_mt:win32_init.obj
 0001:00126560       _glfwInputErrorWin32       0000000140127560 f   glfw3_mt:win32_init.obj
 0001:00126670       _glfwIsWindows10BuildOrGreaterWin32 0000000140127670 f   glfw3_mt:win32_init.obj
 0001:00126720       _glfwIsWindowsVersionOrGreaterWin32 0000000140127720 f   glfw3_mt:win32_init.obj
 0001:00126800       _glfwTerminateWin32        0000000140127800 f   glfw3_mt:win32_init.obj
 0001:00126910       _glfwUpdateKeyNamesWin32   0000000140127910 f   glfw3_mt:win32_init.obj
 0001:00127190       _glfwDestroyCursorNull     0000000140128190 f   glfw3_mt:null_window.obj
 0001:00127190       _glfwFreeMonitorWin32      0000000140128190 f   glfw3_mt:win32_monitor.obj
 0001:00127190       _glfwGetRequiredInstanceExtensionsNull 0000000140128190 f   glfw3_mt:null_window.obj
 0001:00127190       _glfwPollEventsNull        0000000140128190 f   glfw3_mt:null_window.obj
 0001:00127190       _glfwPostEmptyEventNull    0000000140128190 f   glfw3_mt:null_window.obj
 0001:00127190       _glfwRequestWindowAttentionNull 0000000140128190 f   glfw3_mt:null_window.obj
 0001:00127190       _glfwSetCursorModeNull     0000000140128190 f   glfw3_mt:null_window.obj
 0001:00127190       _glfwSetCursorNull         0000000140128190 f   glfw3_mt:null_window.obj
 0001:00127190       _glfwSetRawMouseMotionNull 0000000140128190 f   glfw3_mt:null_window.obj
 0001:00127190       _glfwSetWindowIconNull     0000000140128190 f   glfw3_mt:null_window.obj
 0001:00127190       _glfwSetWindowMousePassthroughNull 0000000140128190 f   glfw3_mt:null_window.obj
 0001:00127190       _glfwSetWindowTitleNull    0000000140128190 f   glfw3_mt:null_window.obj
 0001:00127190       _glfwTerminateJoysticksNull 0000000140128190 f   glfw3_mt:null_joystick.obj
 0001:00127190       _glfwUpdateGamepadGUIDNull 0000000140128190 f   glfw3_mt:null_joystick.obj
 0001:00127190       _glfwWaitEventsNull        0000000140128190 f   glfw3_mt:null_window.obj
 0001:00127190       _glfwWaitEventsTimeoutNull 0000000140128190 f   glfw3_mt:null_window.obj
 0001:001271a0       _glfwGetGammaRampWin32     00000001401281a0 f   glfw3_mt:win32_monitor.obj
 0001:00127350       _glfwGetHMONITORContentScaleWin32 0000000140128350 f   glfw3_mt:win32_monitor.obj
 0001:00127450       _glfwGetMonitorContentScaleWin32 0000000140128450 f   glfw3_mt:win32_monitor.obj
 0001:00127550       _glfwGetMonitorPosWin32    0000000140128550 f   glfw3_mt:win32_monitor.obj
 0001:001275f0       _glfwGetMonitorWorkareaWin32 00000001401285f0 f   glfw3_mt:win32_monitor.obj
 0001:00127690       _glfwGetVideoModeWin32     0000000140128690 f   glfw3_mt:win32_monitor.obj
 0001:00127770       _glfwGetVideoModesWin32    0000000140128770 f   glfw3_mt:win32_monitor.obj
 0001:00127980       _glfwPollMonitorsWin32     0000000140128980 f   glfw3_mt:win32_monitor.obj
 0001:00127cb0       _glfwRestoreVideoModeWin32 0000000140128cb0 f   glfw3_mt:win32_monitor.obj
 0001:00127d00       _glfwSetGammaRampWin32     0000000140128d00 f   glfw3_mt:win32_monitor.obj
 0001:00127ee0       _glfwSetVideoModeWin32     0000000140128ee0 f   glfw3_mt:win32_monitor.obj
 0001:00128420       _glfwCreateContextWGL      0000000140129420 f   glfw3_mt:wgl_context.obj
 0001:001288a0       _glfwInitWGL               00000001401298a0 f   glfw3_mt:wgl_context.obj
 0001:00128c50       _glfwTerminateWGL          0000000140129c50 f   glfw3_mt:wgl_context.obj
 0001:001297d0       _glfwCreateContextEGL      000000014012a7d0 f   glfw3_mt:egl_context.obj
 0001:00129d00       _glfwInitEGL               000000014012ad00 f   glfw3_mt:egl_context.obj
 0001:0012a3e0       _glfwTerminateEGL          000000014012b3e0 f   glfw3_mt:egl_context.obj
 0001:0012aab0       _glfwCreateContextOSMesa   000000014012bab0 f   glfw3_mt:osmesa_context.obj
 0001:0012ace0       _glfwInitOSMesa            000000014012bce0 f   glfw3_mt:osmesa_context.obj
 0001:0012ae90       _glfwTerminateOSMesa       000000014012be90 f   glfw3_mt:osmesa_context.obj
 0001:0012af10       _glfwGetEGLNativeDisplayNull 000000014012bf10 f   glfw3_mt:null_window.obj
 0001:0012af10       _glfwGetEGLNativeWindowNull 000000014012bf10 f   glfw3_mt:null_window.obj
 0001:0012af10       _glfwGetEGLPlatformNull    000000014012bf10 f   glfw3_mt:null_window.obj
 0001:0012af10       _glfwGetPhysicalDevicePresentationSupportNull 000000014012bf10 f   glfw3_mt:null_window.obj
 0001:0012af10       _glfwPollJoystickNull      000000014012bf10 f   glfw3_mt:null_joystick.obj
 0001:0012b000       _glfwConnectNull           000000014012c000 f   glfw3_mt:null_init.obj
 0001:0012b410       _glfwInitNull              000000014012c410 f   glfw3_mt:null_init.obj
 0001:0012b6f0       _glfwTerminateNull         000000014012c6f0 f   glfw3_mt:null_init.obj
 0001:0012b710       _glfwDetectJoystickConnectionWin32 000000014012c710 f   glfw3_mt:win32_joystick.obj
 0001:0012b910       _glfwDetectJoystickDisconnectionWin32 000000014012c910 f   glfw3_mt:win32_joystick.obj
 0001:0012ba20       _glfwGetMappingNameWin32   000000014012ca20 f   glfw3_mt:win32_joystick.obj
 0001:0012ba30       _glfwInitJoysticksWin32    000000014012ca30 f   glfw3_mt:win32_joystick.obj
 0001:0012bcb0       _glfwPollJoystickWin32     000000014012ccb0 f   glfw3_mt:win32_joystick.obj
 0001:0012c0c0       _glfwTerminateJoysticksWin32 000000014012d0c0 f   glfw3_mt:win32_joystick.obj
 0001:0012c150       _glfwUpdateGamepadGUIDWin32 000000014012d150 f   glfw3_mt:win32_joystick.obj
 0001:0012c960       sprintf                    000000014012d960 f i glfw3_mt:win32_joystick.obj
 0001:0012c9c0       _glfwFreeMonitorNull       000000014012d9c0 f   glfw3_mt:null_monitor.obj
 0001:0012c9d0       _glfwGetGammaRampNull      000000014012d9d0 f   glfw3_mt:null_monitor.obj
 0001:0012cb30       _glfwGetMonitorContentScaleNull 000000014012db30 f   glfw3_mt:null_monitor.obj
 0001:0012cb30       _glfwGetWindowContentScaleNull 000000014012db30 f   glfw3_mt:null_window.obj
 0001:0012cb50       _glfwGetMonitorPosNull     000000014012db50 f   glfw3_mt:null_monitor.obj
 0001:0012cb70       _glfwGetMonitorWorkareaNull 000000014012db70 f   glfw3_mt:null_monitor.obj
 0001:0012cbb0       _glfwGetVideoModeNull      000000014012dbb0 f   glfw3_mt:null_monitor.obj
 0001:0012cbe0       _glfwGetVideoModesNull     000000014012dbe0 f   glfw3_mt:null_monitor.obj
 0001:0012cc30       _glfwPollMonitorsNull      000000014012dc30 f   glfw3_mt:null_monitor.obj
 0001:0012cc60       _glfwSetGammaRampNull      000000014012dc60 f   glfw3_mt:null_monitor.obj
 0001:0012ccf0       _glfwCreateWindowNull      000000014012dcf0 f   glfw3_mt:null_window.obj
 0001:0012ce70       _glfwCreateWindowSurfaceNull 000000014012de70 f   glfw3_mt:null_window.obj
 0001:0012ce80       _glfwDestroyWindowNull     000000014012de80 f   glfw3_mt:null_window.obj
 0001:0012cee0       _glfwFocusWindowNull       000000014012dee0 f   glfw3_mt:null_window.obj
 0001:0012cfa0       _glfwFramebufferTransparentNull 000000014012dfa0 f   glfw3_mt:null_window.obj
 0001:0012cfb0       _glfwGetClipboardStringNull 000000014012dfb0 f   glfw3_mt:null_window.obj
 0001:0012cfc0       _glfwGetCursorPosNull      000000014012dfc0 f   glfw3_mt:null_window.obj
 0001:0012d000       _glfwGetFramebufferSizeNull 000000014012e000 f   glfw3_mt:null_window.obj
 0001:0012d000       _glfwGetWindowSizeNull     000000014012e000 f   glfw3_mt:null_window.obj
 0001:0012d020       _glfwGetKeyScancodeNull    000000014012e020 f   glfw3_mt:null_window.obj
 0001:0012d030       _glfwGetScancodeNameNull   000000014012e030 f   glfw3_mt:null_window.obj
 0001:0012d400       _glfwGetWindowFrameSizeNull 000000014012e400 f   glfw3_mt:null_window.obj
 0001:0012d470       _glfwGetWindowOpacityNull  000000014012e470 f   glfw3_mt:null_window.obj
 0001:0012d480       _glfwGetWindowPosNull      000000014012e480 f   glfw3_mt:null_window.obj
 0001:0012d4a0       _glfwHideWindowNull        000000014012e4a0 f   glfw3_mt:null_window.obj
 0001:0012d4f0       _glfwIconifyWindowNull     000000014012e4f0 f   glfw3_mt:null_window.obj
 0001:0012d560       _glfwMaximizeWindowNull    000000014012e560 f   glfw3_mt:null_window.obj
 0001:0012d580       _glfwRestoreWindowNull     000000014012e580 f   glfw3_mt:null_window.obj
 0001:0012d5e0       _glfwSetClipboardStringNull 000000014012e5e0 f   glfw3_mt:null_window.obj
 0001:0012d610       _glfwSetCursorPosNull      000000014012e610 f   glfw3_mt:null_window.obj
 0001:0012d640       _glfwSetWindowAspectRatioNull 000000014012e640 f   glfw3_mt:null_window.obj
 0001:0012d640       _glfwSetWindowSizeLimitsNull 000000014012e640 f   glfw3_mt:null_window.obj
 0001:0012d730       _glfwSetWindowDecoratedNull 000000014012e730 f   glfw3_mt:null_window.obj
 0001:0012d740       _glfwSetWindowFloatingNull 000000014012e740 f   glfw3_mt:null_window.obj
 0001:0012d750       _glfwSetWindowMonitorNull  000000014012e750 f   glfw3_mt:null_window.obj
 0001:0012d820       _glfwSetWindowOpacityNull  000000014012e820 f   glfw3_mt:null_window.obj
 0001:0012d830       _glfwSetWindowPosNull      000000014012e830 f   glfw3_mt:null_window.obj
 0001:0012d860       _glfwSetWindowResizableNull 000000014012e860 f   glfw3_mt:null_window.obj
 0001:0012d870       _glfwSetWindowSizeNull     000000014012e870 f   glfw3_mt:null_window.obj
 0001:0012d8e0       _glfwShowWindowNull        000000014012e8e0 f   glfw3_mt:null_window.obj
 0001:0012d8f0       _glfwWindowFocusedNull     000000014012e8f0 f   glfw3_mt:null_window.obj
 0001:0012d900       _glfwWindowHoveredNull     000000014012e900 f   glfw3_mt:null_window.obj
 0001:0012d950       _glfwWindowIconifiedNull   000000014012e950 f   glfw3_mt:null_window.obj
 0001:0012d960       _glfwWindowMaximizedNull   000000014012e960 f   glfw3_mt:null_window.obj
 0001:0012d970       _glfwWindowVisibleNull     000000014012e970 f   glfw3_mt:null_window.obj
 0001:0012d9f0       _glfwGetMappingNameNull    000000014012e9f0 f   glfw3_mt:null_joystick.obj
 0001:0012d9f8       ??1Mat@cv@@QEAA@XZ         000000014012e9f8 f   opencv_world4100:opencv_world4100.dll
 0001:0012d9fe       ?empty@Mat@cv@@QEBA_NXZ    000000014012e9fe f   opencv_world4100:opencv_world4100.dll
 0001:0012da04       ?imread@cv@@YA?AVMat@1@AEBV?$basic_string@DU?$char_traits@D@std@@V?$allocator@D@2@@std@@H@Z 000000014012ea04 f   opencv_world4100:opencv_world4100.dll
 0001:0012da0a       vkCreateDescriptorSetLayout 000000014012ea0a f   vulkan-1:vulkan-1.dll
 0001:0012da10       vkAllocateDescriptorSets   000000014012ea10 f   vulkan-1:vulkan-1.dll
 0001:0012da16       vkUpdateDescriptorSets     000000014012ea16 f   vulkan-1:vulkan-1.dll
 0001:0012da1c       vkCreateInstance           000000014012ea1c f   vulkan-1:vulkan-1.dll
 0001:0012da22       vkEnumeratePhysicalDevices 000000014012ea22 f   vulkan-1:vulkan-1.dll
 0001:0012da28       vkGetPhysicalDeviceProperties 000000014012ea28 f   vulkan-1:vulkan-1.dll
 0001:0012da2e       vkGetPhysicalDeviceQueueFamilyProperties 000000014012ea2e f   vulkan-1:vulkan-1.dll
 0001:0012da34       vkCreateDevice             000000014012ea34 f   vulkan-1:vulkan-1.dll
 0001:0012da3a       vkGetDeviceQueue           000000014012ea3a f   vulkan-1:vulkan-1.dll
 0001:0012da40       vkQueueSubmit              000000014012ea40 f   vulkan-1:vulkan-1.dll
 0001:0012da46       vkCreateSemaphore          000000014012ea46 f   vulkan-1:vulkan-1.dll
 0001:0012da4c       vkCreateDescriptorPool     000000014012ea4c f   vulkan-1:vulkan-1.dll
 0001:0012da52       vkDestroyDescriptorPool    000000014012ea52 f   vulkan-1:vulkan-1.dll
 0001:0012da58       vkCreateRenderPass         000000014012ea58 f   vulkan-1:vulkan-1.dll
 0001:0012da5e       vkCreateCommandPool        000000014012ea5e f   vulkan-1:vulkan-1.dll
 0001:0012da64       vkGetPhysicalDeviceSurfaceSupportKHR 000000014012ea64 f   vulkan-1:vulkan-1.dll
 0001:0012da6a       vkCreateFence              000000014012ea6a f   vulkan-1:vulkan-1.dll
 0001:0012da70       vkWaitForFences            000000014012ea70 f   vulkan-1:vulkan-1.dll
 0001:0012da76       vkAllocateCommandBuffers   000000014012ea76 f   vulkan-1:vulkan-1.dll
 0001:0012da7c       vkBeginCommandBuffer       000000014012ea7c f   vulkan-1:vulkan-1.dll
 0001:0012da82       vkEndCommandBuffer         000000014012ea82 f   vulkan-1:vulkan-1.dll
 0001:0012da88       vkCmdBindPipeline          000000014012ea88 f   vulkan-1:vulkan-1.dll
 0001:0012da8e       vkCmdSetViewport           000000014012ea8e f   vulkan-1:vulkan-1.dll
 0001:0012da94       vkCmdSetScissor            000000014012ea94 f   vulkan-1:vulkan-1.dll
 0001:0012da9a       vkCmdBindDescriptorSets    000000014012ea9a f   vulkan-1:vulkan-1.dll
 0001:0012daa0       vkCmdBindIndexBuffer       000000014012eaa0 f   vulkan-1:vulkan-1.dll
 0001:0012daa6       vkCmdBindVertexBuffers     000000014012eaa6 f   vulkan-1:vulkan-1.dll
 0001:0012daac       vkCmdDrawIndexed           000000014012eaac f   vulkan-1:vulkan-1.dll
 0001:0012dab2       vkCmdCopyBuffer            000000014012eab2 f   vulkan-1:vulkan-1.dll
 0001:0012dab8       vkCmdBlitImage             000000014012eab8 f   vulkan-1:vulkan-1.dll
 0001:0012dabe       vkCmdCopyBufferToImage     000000014012eabe f   vulkan-1:vulkan-1.dll
 0001:0012dac4       vkCmdPipelineBarrier       000000014012eac4 f   vulkan-1:vulkan-1.dll
 0001:0012daca       vkCmdPushConstants         000000014012eaca f   vulkan-1:vulkan-1.dll
 0001:0012dad0       vkCmdBeginRenderPass       000000014012ead0 f   vulkan-1:vulkan-1.dll
 0001:0012dad6       vkCmdEndRenderPass         000000014012ead6 f   vulkan-1:vulkan-1.dll
 0001:0012dadc       vkCmdExecuteCommands       000000014012eadc f   vulkan-1:vulkan-1.dll
 0001:0012dae2       vkGetPhysicalDeviceMemoryProperties 000000014012eae2 f   vulkan-1:vulkan-1.dll
 0001:0012dae8       vkGetInstanceProcAddr      000000014012eae8 f   vulkan-1:vulkan-1.dll
 0001:0012daee       vkGetDeviceProcAddr        000000014012eaee f   vulkan-1:vulkan-1.dll
 0001:0012daf4       vkAllocateMemory           000000014012eaf4 f   vulkan-1:vulkan-1.dll
 0001:0012dafa       vkFreeMemory               000000014012eafa f   vulkan-1:vulkan-1.dll
 0001:0012db00       vkMapMemory                000000014012eb00 f   vulkan-1:vulkan-1.dll
 0001:0012db06       vkUnmapMemory              000000014012eb06 f   vulkan-1:vulkan-1.dll
 0001:0012db0c       vkFlushMappedMemoryRanges  000000014012eb0c f   vulkan-1:vulkan-1.dll
 0001:0012db12       vkInvalidateMappedMemoryRanges 000000014012eb12 f   vulkan-1:vulkan-1.dll
 0001:0012db18       vkBindBufferMemory         000000014012eb18 f   vulkan-1:vulkan-1.dll
 0001:0012db1e       vkBindImageMemory          000000014012eb1e f   vulkan-1:vulkan-1.dll
 0001:0012db24       vkGetBufferMemoryRequirements 000000014012eb24 f   vulkan-1:vulkan-1.dll
 0001:0012db2a       vkGetImageMemoryRequirements 000000014012eb2a f   vulkan-1:vulkan-1.dll
 0001:0012db30       vkCreateBuffer             000000014012eb30 f   vulkan-1:vulkan-1.dll
 0001:0012db36       vkDestroyBuffer            000000014012eb36 f   vulkan-1:vulkan-1.dll
 0001:0012db3c       vkCreateImage              000000014012eb3c f   vulkan-1:vulkan-1.dll
 0001:0012db42       vkDestroyImage             000000014012eb42 f   vulkan-1:vulkan-1.dll
 0001:0012db48       vkCreateImageView          000000014012eb48 f   vulkan-1:vulkan-1.dll
 0001:0012db4e       vkDestroyImageView         000000014012eb4e f   vulkan-1:vulkan-1.dll
 0001:0012db54       vkBindBufferMemory2        000000014012eb54 f   vulkan-1:vulkan-1.dll
 0001:0012db5a       vkBindImageMemory2         000000014012eb5a f   vulkan-1:vulkan-1.dll
 0001:0012db60       vkGetImageMemoryRequirements2 000000014012eb60 f   vulkan-1:vulkan-1.dll
 0001:0012db66       vkGetBufferMemoryRequirements2 000000014012eb66 f   vulkan-1:vulkan-1.dll
 0001:0012db6c       vkGetPhysicalDeviceMemoryProperties2 000000014012eb6c f   vulkan-1:vulkan-1.dll
 0001:0012db72       vkGetDeviceBufferMemoryRequirements 000000014012eb72 f   vulkan-1:vulkan-1.dll
 0001:0012db78       vkGetDeviceImageMemoryRequirements 000000014012eb78 f   vulkan-1:vulkan-1.dll
 0001:0012db7e       vkCreateShaderModule       000000014012eb7e f   vulkan-1:vulkan-1.dll
 0001:0012db84       vkDestroyShaderModule      000000014012eb84 f   vulkan-1:vulkan-1.dll
 0001:0012db8a       vkCreateGraphicsPipelines  000000014012eb8a f   vulkan-1:vulkan-1.dll
 0001:0012db90       vkDestroyPipeline          000000014012eb90 f   vulkan-1:vulkan-1.dll
 0001:0012db96       vkCreatePipelineLayout     000000014012eb96 f   vulkan-1:vulkan-1.dll
 0001:0012db9c       vkDestroyPipelineLayout    000000014012eb9c f   vulkan-1:vulkan-1.dll
 0001:0012dba2       vkDestroyDescriptorSetLayout 000000014012eba2 f   vulkan-1:vulkan-1.dll
 0001:0012dba8       vkCreateFramebuffer        000000014012eba8 f   vulkan-1:vulkan-1.dll
 0001:0012dbae       vkResetFences              000000014012ebae f   vulkan-1:vulkan-1.dll
 0001:0012dbb4       vkGetPhysicalDeviceSurfaceCapabilitiesKHR 000000014012ebb4 f   vulkan-1:vulkan-1.dll
 0001:0012dbba       vkGetPhysicalDeviceSurfaceFormatsKHR 000000014012ebba f   vulkan-1:vulkan-1.dll
 0001:0012dbc0       vkGetPhysicalDeviceSurfacePresentModesKHR 000000014012ebc0 f   vulkan-1:vulkan-1.dll
 0001:0012dbc6       vkCreateSwapchainKHR       000000014012ebc6 f   vulkan-1:vulkan-1.dll
 0001:0012dbcc       vkDestroySwapchainKHR      000000014012ebcc f   vulkan-1:vulkan-1.dll
 0001:0012dbd2       vkGetSwapchainImagesKHR    000000014012ebd2 f   vulkan-1:vulkan-1.dll
 0001:0012dbd8       vkAcquireNextImageKHR      000000014012ebd8 f   vulkan-1:vulkan-1.dll
 0001:0012dbde       vkQueuePresentKHR          000000014012ebde f   vulkan-1:vulkan-1.dll
 0001:0012dbe4       vkCreateSampler            000000014012ebe4 f   vulkan-1:vulkan-1.dll
 0001:0012dbea       vkQueueWaitIdle            000000014012ebea f   vulkan-1:vulkan-1.dll
 0001:0012dbf0       vkFreeDescriptorSets       000000014012ebf0 f   vulkan-1:vulkan-1.dll
 0001:0012dbf6       vkResetCommandPool         000000014012ebf6 f   vulkan-1:vulkan-1.dll
 0001:0012dbfc       ??0bad_alloc@std@@QEAA@XZ  000000014012ebfc f i libcpmt:xthrow.obj
 0001:0012dc1c       ??0invalid_argument@std@@QEAA@AEBV01@@Z 000000014012ec1c f i libcpmt:xthrow.obj
 0001:0012dc58       ??0invalid_argument@std@@QEAA@PEBD@Z 000000014012ec58 f i libcpmt:xthrow.obj
 0001:0012dca0       ??0length_error@std@@QEAA@AEBV01@@Z 000000014012eca0 f i libcpmt:xthrow.obj
 0001:0012dcdc       ??0length_error@std@@QEAA@PEBD@Z 000000014012ecdc f i libcpmt:xthrow.obj
 0001:0012dd24       ??0logic_error@std@@QEAA@AEBV01@@Z 000000014012ed24 f i libcpmt:xthrow.obj
 0001:0012dd60       ??0out_of_range@std@@QEAA@AEBV01@@Z 000000014012ed60 f i libcpmt:xthrow.obj
 0001:0012dd9c       ??0out_of_range@std@@QEAA@PEBD@Z 000000014012ed9c f i libcpmt:xthrow.obj
 0001:0012dde4       ??0runtime_error@std@@QEAA@PEBD@Z 000000014012ede4 f i libcpmt:xthrow.obj
 0001:0012de2c       ?_Xbad_alloc@std@@YAXXZ    000000014012ee2c f   libcpmt:xthrow.obj
 0001:0012de2c       ?__scrt_throw_std_bad_alloc@@YAXXZ 000000014012ee2c f   LIBCMT:throw_bad_alloc.obj
 0001:0012de4c       ?_Xinvalid_argument@std@@YAXPEBD@Z 000000014012ee4c f   libcpmt:xthrow.obj
 0001:0012de70       ?_Xlength_error@std@@YAXPEBD@Z 000000014012ee70 f   libcpmt:xthrow.obj
 0001:0012de94       ?_Xout_of_range@std@@YAXPEBD@Z 000000014012ee94 f   libcpmt:xthrow.obj
 0001:0012deb8       ?_Xruntime_error@std@@YAXPEBD@Z 000000014012eeb8 f   libcpmt:xthrow.obj
 0001:0012dedc       ??0_Init_locks@std@@QEAA@XZ 000000014012eedc f   libcpmt:xlock.obj
 0001:0012df20       ??0_Lockit@std@@QEAA@H@Z   000000014012ef20 f   libcpmt:xlock.obj
 0001:0012df5c       ??1_Init_locks@std@@QEAA@XZ 000000014012ef5c f   libcpmt:xlock.obj
 0001:0012df98       ??1_Lockit@std@@QEAA@XZ    000000014012ef98 f   libcpmt:xlock.obj
 0001:0012dfcc       ?uncaught_exception@std@@YA_NXZ 000000014012efcc f   libcpmt:uncaught_exception.obj
 0001:0012dfd4       ?_Syserror_map@std@@YAPEBDH@Z 000000014012efd4 f   libcpmt:syserror.obj
 0001:0012dffc       ?_Winerror_map@std@@YAHH@Z 000000014012effc f   libcpmt:syserror.obj
 0001:0012e020       ??0_Locimp@locale@std@@AEAA@_N@Z 000000014012f020 f i libcpmt:locale0.obj
 0001:0012e0a8       ??4?$_Yarn@D@std@@QEAAAEAV01@PEBD@Z 000000014012f0a8 f i libcpmt:locale0.obj
 0001:0012e120       ??_E_Locimp@locale@std@@MEAAPEAXI@Z 000000014012f120 f i libcpmt:locale0.obj
 0001:0012e120       ??_G_Locimp@locale@std@@MEAAPEAXI@Z 000000014012f120 f i libcpmt:locale0.obj
 0001:0012e17c       ?_Facet_Register@std@@YAXPEAV_Facet_base@1@@Z 000000014012f17c f   libcpmt:locale0.obj
 0001:0012e1b4       ?_Getgloballocale@locale@std@@CAPEAV_Locimp@12@XZ 000000014012f1b4 f   libcpmt:locale0.obj
 0001:0012e1bc       ?_Init@locale@std@@CAPEAV_Locimp@12@_N@Z 000000014012f1bc f   libcpmt:locale0.obj
 0001:0012e2b0       ?_Locimp_dtor@_Locimp@locale@std@@CAXPEAV123@@Z 000000014012f2b0 f   libcpmt:locale0.obj
 0001:0012e32c       ?_Locinfo_ctor@_Locinfo@std@@SAXPEAV12@PEBD@Z 000000014012f32c f   libcpmt:locale0.obj
 0001:0012e398       ?_Locinfo_dtor@_Locinfo@std@@SAXPEAV12@@Z 000000014012f398 f   libcpmt:locale0.obj
 0001:0012e3b4       ?_New_Locimp@_Locimp@locale@std@@CAPEAV123@_N@Z 000000014012f3b4 f   libcpmt:locale0.obj
 0001:0012e3e4       ?_Setgloballocale@locale@std@@CAXPEAX@Z 000000014012f3e4 f   libcpmt:locale0.obj
 0001:0012e418       _Deletegloballocale        000000014012f418 f   libcpmt:locale0.obj
 0001:0012e488       _Getctype                  000000014012f488 f   libcpmt:_tolower.obj
 0001:0012e548       _Tolower                   000000014012f548 f   libcpmt:_tolower.obj
 0001:0012e67c       _Getcvt                    000000014012f67c f   libcpmt:xwctomb.obj
 0001:0012e714       _Toupper                   000000014012f714 f   libcpmt:_toupper.obj
 0001:0012e858       ?_Addstd@ios_base@std@@SAXPEAV12@@Z 000000014012f858 f   libcpmt:ios.obj
 0001:0012e8cc       ?_Ios_base_dtor@ios_base@std@@CAXPEAV12@@Z 000000014012f8cc f   libcpmt:ios.obj
 0001:0012e944       ?_Tidy@ios_base@std@@AEAAXXZ 000000014012f944 f i libcpmt:ios.obj
 0001:0012e9c4       _Mtx_lock                  000000014012f9c4 f   libcpmt:mutex.obj
 0001:0012e9cc       _Mtx_unlock                000000014012f9cc f   libcpmt:mutex.obj
 0001:0012eb20       ??0system_error@std@@QEAA@HAEBVerror_category@1@PEBD@Z 000000014012fb20 f i libcpmt:thread0.obj
 0001:0012ec40       ?_Throw_Cpp_error@std@@YAXH@Z 000000014012fc40 f   libcpmt:thread0.obj
 0001:0012ec88       ?generic_category@std@@YAAEBVerror_category@1@XZ 000000014012fc88 f i libcpmt:thread0.obj
 0001:0012ec90       _Query_perf_counter        000000014012fc90 f   libcpmt:xtime.obj
 0001:0012ecac       _Query_perf_frequency      000000014012fcac f   libcpmt:xtime.obj
 0001:0012ecd8       _Timespec64_get_sys        000000014012fcd8 f   libcpmt:xtime.obj
 0001:0012ed14       _Xtime_get_ticks           000000014012fd14 f   libcpmt:xtime.obj
 0001:0012ed44       ?_Fiopen@std@@YAPEAU_iobuf@@PEBDHH@Z 000000014012fd44 f   libcpmt:fiopen.obj
 0001:0012edfc       ?setprecision@std@@YA?AU?$_Smanip@_J@1@_J@Z 000000014012fdfc f   libcpmt:iomanip.obj
 0001:0012ee18       _Smtx_lock_exclusive       000000014012fe18 f   libcpmt:sharedmutex.obj
 0001:0012ee20       _Smtx_lock_shared          000000014012fe20 f   libcpmt:sharedmutex.obj
 0001:0012ee28       _Smtx_unlock_exclusive     000000014012fe28 f   libcpmt:sharedmutex.obj
 0001:0012ee30       _Smtx_unlock_shared        000000014012fe30 f   libcpmt:sharedmutex.obj
 0001:0012ef50       __std_find_trivial_2       000000014012ff50 f   libcpmt:vector_algorithms.obj
 0001:0012ef58       __std_system_error_allocate_message 000000014012ff58 f   libcpmt:syserror_import_lib.obj
 0001:0012eff0       __std_system_error_deallocate_message 000000014012fff0 f   libcpmt:syserror_import_lib.obj
 0001:0012eff8       __std_fs_code_page         000000014012fff8 f   libcpmt:filesystem.obj
 0001:0012f020       __std_fs_convert_narrow_to_wide 0000000140130020 f   libcpmt:filesystem.obj
 0001:0012f068       __std_fs_convert_wide_to_narrow 0000000140130068 f   libcpmt:filesystem.obj
 0001:0012f18c       __std_fs_convert_wide_to_narrow_replace_chars 000000014013018c f   libcpmt:filesystem.obj
 0001:0012f258       __std_fs_directory_iterator_advance 0000000140130258 f   libcpmt:filesystem.obj
 0001:0012f278       __std_fs_directory_iterator_close 0000000140130278 f   libcpmt:filesystem.obj
 0001:0012f298       __std_fs_directory_iterator_open 0000000140130298 f   libcpmt:filesystem.obj
 0001:0012f30c       __std_fs_get_stats         000000014013030c f   libcpmt:filesystem.obj
 0001:0012f63c       __std_fs_open_handle       000000014013063c f   libcpmt:filesystem.obj
 0001:0012f694       _Mtxdst                    0000000140130694 f   libcpmt:xmtx.obj
 0001:0012f69c       _Mtxinit                   000000014013069c f   libcpmt:xmtx.obj
 0001:0012f6ac       _Mtxlock                   00000001401306ac f   libcpmt:xmtx.obj
 0001:0012f6b4       _Mtxunlock                 00000001401306b4 f   libcpmt:xmtx.obj
 0001:0012f6bc       ?_Atexit@@YAXP6AXXZ@Z      00000001401306bc f   libcpmt:iosptrs.obj
 0001:0012f6f8       __crtLCMapStringA          00000001401306f8 f   libcpmt:StlLCMapStringA.obj
 0001:0012fa58       __crtGetSystemTimePreciseAsFileTime 0000000140130a58 f   libcpmt:winapisupp.obj
 0001:0012fa80       ??2@YAPEAX_K@Z             0000000140130a80 f   LIBCMT:new_scalar.obj
 0001:0012fabc       ??3@YAXPEAX_K@Z            0000000140130abc f   LIBCMT:delete_scalar_size.obj
 0001:0012fabc       ??_V@YAXPEAX@Z             0000000140130abc f   LIBCMT:delete_array.obj
 0001:0012fac4       __scrt_acquire_startup_lock 0000000140130ac4 f   LIBCMT:utility.obj
 0001:0012fb00       __scrt_initialize_crt      0000000140130b00 f   LIBCMT:utility.obj
 0001:0012fb3c       __scrt_initialize_onexit_tables 0000000140130b3c f   LIBCMT:utility.obj
 0001:0012fbc8       __scrt_is_nonwritable_in_current_image 0000000140130bc8 f   LIBCMT:utility.obj
 0001:0012fc60       __scrt_release_startup_lock 0000000140130c60 f   LIBCMT:utility.obj
 0001:0012fc84       __scrt_uninitialize_crt    0000000140130c84 f   LIBCMT:utility.obj
 0001:0012fcb0       _onexit                    0000000140130cb0 f   LIBCMT:utility.obj
 0001:0012fcec       atexit                     0000000140130cec f   LIBCMT:utility.obj
 0001:0012fd04       ??_Etype_info@@UEAAPEAXI@Z 0000000140130d04 f i LIBCMT:std_type_info_static.obj
 0001:0012fd04       ??_Gtype_info@@UEAAPEAXI@Z 0000000140130d04 f i LIBCMT:std_type_info_static.obj
 0001:0012fd30       __vdecl_sinf4              0000000140130d30 f   LIBCMT:svml_ssinf4_dispatch.obj
 0001:0012fd50       __libm_sse2_sincosf_       0000000140130d50 f   LIBCMT:svml_ssinf4_dispatch.obj
 0001:0012fd93       __libm_sse2_sincosf4_      0000000140130d93 f   LIBCMT:svml_ssinf4_dispatch.obj
 0001:0012fda0       ??_U@YAPEAX_K@Z            0000000140130da0 f   LIBCMT:new_array.obj
 0001:0012fda8       _Init_thread_footer        0000000140130da8 f   LIBCMT:thread_safe_statics.obj
 0001:0012fe14       _Init_thread_header        0000000140130e14 f   LIBCMT:thread_safe_statics.obj
 0001:0012fe90       __vdecl_sin2               0000000140130e90 f   LIBCMT:svml_dsin2_dispatch.obj
 0001:0012feb0       __libm_sse2_sincos_        0000000140130eb0 f   LIBCMT:svml_dsin2_dispatch.obj
 0001:0013015c       mainCRTStartup             000000014013115c f   LIBCMT:exe_main.obj
 0001:00130170       __isa_available_init       0000000140131170 f   LIBCMT:cpu_disp.obj
 0001:00130450       __chkstk                   0000000140131450 f   LIBCMT:chkstk.obj
 0001:00130450       _alloca_probe              0000000140131450 f   LIBCMT:chkstk.obj
 0001:001304a0       __vdecl_powf4              00000001401314a0 f   LIBCMT:svml_spowf4_dispatch.obj
 0001:001304a8       __GSHandlerCheck           00000001401314a8 f   LIBCMT:gshandler.obj
 0001:001304c8       __GSHandlerCheckCommon     00000001401314c8 f   LIBCMT:gshandler.obj
 0001:00130540       __security_check_cookie    0000000140131540 f   LIBCMT:amdsecgs.obj
 0001:00130560       __GSHandlerCheck_EH4       0000000140131560 f   LIBCMT:gshandlereh4.obj
 0001:001305e0       __scrt_is_ucrt_dll_in_use  00000001401315e0 f   LIBCMT:ucrt_detection.obj
 0001:001305ec       __crt_debugger_hook        00000001401315ec f   LIBCMT:utility_desktop.obj
 0001:001305f4       __scrt_fastfail            00000001401315f4 f   LIBCMT:utility_desktop.obj
 0001:0013073c       __scrt_initialize_mta      000000014013173c f   LIBCMT:utility_desktop.obj
 0001:00130744       __scrt_is_managed_app      0000000140131744 f   LIBCMT:utility_desktop.obj
 0001:00130798       __scrt_set_unhandled_exception_filter 0000000140131798 f   LIBCMT:utility_desktop.obj
 0001:001307a8       __scrt_unhandled_exception_filter 00000001401317a8 f   LIBCMT:utility_desktop.obj
 0001:00130810       __sse2_sinf4@@16           0000000140131810 f   LIBCMT:svml_ssinf4_sse2.obj
 0001:00131150       __sse4_sinf4@@16           0000000140132150 f   LIBCMT:svml_ssinf4_sse4.obj
 0001:001318d0       __sse2_sin2@@16            00000001401328d0 f   LIBCMT:svml_dsin2_sse2.obj
 0001:00131f50       __sse4_sin2@@16            0000000140132f50 f   LIBCMT:svml_dsin2_sse4.obj
 0001:001325d0       __security_init_cookie     00000001401335d0 f   LIBCMT:gs_support.obj
 0001:0013267c       _get_startup_file_mode     000000014013367c f   LIBCMT:file_mode.obj
 0001:00132684       ?__scrt_initialize_type_info@@YAXXZ 0000000140133684 f   LIBCMT:tncleanup.obj
 0001:00132694       __scrt_initialize_default_local_stdio_options 0000000140133694 f   LIBCMT:default_local_stdio_options.obj
 0001:001326b0       __scrt_is_user_matherr_present 00000001401336b0 f   LIBCMT:matherr_detection.obj
 0001:001326bc       __scrt_get_dyn_tls_init_callback 00000001401336bc f   LIBCMT:dyn_tls_init.obj
 0001:001326c4       __scrt_get_dyn_tls_dtor_callback 00000001401336c4 f   LIBCMT:dyn_tls_dtor.obj
 0001:001326cc       _RTC_Initialize            00000001401336cc f   LIBCMT:initsect.obj
 0001:00132708       _RTC_Terminate             0000000140133708 f   LIBCMT:initsect.obj
 0001:00132750       __sse2_powf4@@32           0000000140133750 f   LIBCMT:svml_spowf4_sse2.obj
 0001:001332a0       __raise_securityfailure    00000001401342a0 f   LIBCMT:gs_report.obj
 0001:001332d4       __report_gsfailure         00000001401342d4 f   LIBCMT:gs_report.obj
 0001:001333a8       __report_rangecheckfailure 00000001401343a8 f   LIBCMT:gs_report.obj
 0001:001333bc       __report_securityfailure   00000001401343bc f   LIBCMT:gs_report.obj
 0001:00133540       __common_ssin_cout_rare    0000000140134540 f   LIBCMT:svml_s_sin_cout.obj
 0001:001335b0       __common_dsin_cout_rare    00000001401345b0 f   LIBCMT:svml_d_sin_cout.obj
 0001:00133620       ImmGetContext              0000000140134620 f   imm32:IMM32.dll
 0001:00133626       ImmReleaseContext          0000000140134626 f   imm32:IMM32.dll
 0001:0013362c       ImmSetCompositionWindow    000000014013462c f   imm32:IMM32.dll
 0001:00133632       ImmSetCandidateWindow      0000000140134632 f   imm32:IMM32.dll
 0001:00133638       __std_exception_copy       0000000140134638 f   libvcruntime:std_exception.obj
 0001:001336c8       __std_exception_destroy    00000001401346c8 f   libvcruntime:std_exception.obj
 0001:001336f0       _CxxThrowException         00000001401346f0 f   libvcruntime:throw.obj
 0001:001337a0       _get_purecall_handler      00000001401347a0 f   libvcruntime:purevirt.obj
 0001:001337ac       _purecall                  00000001401347ac f   libvcruntime:purevirt.obj
 0001:001337c8       ??$_CallSETranslator@V__FrameHandler3@@@@YAHPEAUEHExceptionRecord@@PEA_KPEAU_CONTEXT@@PEAU_xDISPATCHER_CONTEXT@@PEBU_s_FuncInfo@@K1H@Z 00000001401347c8 f i libvcruntime:risctrnsctrl.obj
 0001:0013381c       ??$_CallSETranslator@V__FrameHandler4@@@@YAHPEAUEHExceptionRecord@@PEA_KPEAU_CONTEXT@@PEAU_xDISPATCHER_CONTEXT@@PEAUFuncInfo4@FH4@@K1H@Z 000000014013481c f i libvcruntime:risctrnsctrl.obj
 0001:00133870       ?CatchTryBlock@__FrameHandler3@@SAPEBU_s_TryBlockMapEntry@@PEBU_s_FuncInfo@@H@Z 0000000140134870 f   libvcruntime:risctrnsctrl.obj
 0001:001338d4       ?DecompFuncInfo@FH4@@YA_JPEAEAEAUFuncInfo4@1@_KH_N@Z 00000001401348d4 f i libvcruntime:risctrnsctrl.obj
 0001:00133a0c       ?ExecutionInCatch@__FrameHandler3@@SA_NPEAU_xDISPATCHER_CONTEXT@@PEBU_s_FuncInfo@@@Z 0000000140134a0c f   libvcruntime:risctrnsctrl.obj
 0001:00133a38       ?ExecutionInCatch@__FrameHandler4@@SA_NPEAU_xDISPATCHER_CONTEXT@@PEAUFuncInfo4@FH4@@@Z 0000000140134a38 f   libvcruntime:risctrnsctrl.obj
 0001:00133a40       ?FrameUnwindToEmptyState@__FrameHandler3@@SAXPEA_KPEAU_xDISPATCHER_CONTEXT@@PEBU_s_FuncInfo@@@Z 0000000140134a40 f   libvcruntime:risctrnsctrl.obj
 0001:00133aa4       ?FrameUnwindToEmptyState@__FrameHandler4@@SAXPEA_KPEAU_xDISPATCHER_CONTEXT@@PEAUFuncInfo4@FH4@@@Z 0000000140134aa4 f   libvcruntime:risctrnsctrl.obj
 0001:00133ad8       ?GetEstablisherFrame@__FrameHandler3@@SAPEA_KPEA_KPEAU_xDISPATCHER_CONTEXT@@PEBU_s_FuncInfo@@0@Z 0000000140134ad8 f   libvcruntime:risctrnsctrl.obj
 0001:00133ba8       ?GetEstablisherFrame@__FrameHandler4@@SAPEA_KPEA_KPEAU_xDISPATCHER_CONTEXT@@PEAUFuncInfo4@FH4@@0@Z 0000000140134ba8 f   libvcruntime:risctrnsctrl.obj
 0001:00133bcc       ?GetRangeOfTrysToCheck@__FrameHandler3@@SA?AU?$pair@Viterator@TryBlockMap@__FrameHandler3@@V123@@std@@AEAVTryBlockMap@1@HPEAU_xDISPATCHER_CONTEXT@@PEBU_s_FuncInfo@@H@Z 0000000140134bcc f   libvcruntime:risctrnsctrl.obj
 0001:00133d00       ?GetRangeOfTrysToCheck@__FrameHandler4@@SA?AU?$pair@Viterator@TryBlockMap4@FH4@@V123@@std@@AEAVTryBlockMap4@FH4@@HPEAU_xDISPATCHER_CONTEXT@@PEAUFuncInfo4@5@H@Z 0000000140134d00 f   libvcruntime:risctrnsctrl.obj
 0001:00133e6c       ?UnwindNestedFrames@__FrameHandler3@@SAXPEA_KPEAUEHExceptionRecord@@PEAU_CONTEXT@@0PEAXPEBU_s_FuncInfo@@HHPEBU_s_HandlerType@@PEAU_xDISPATCHER_CONTEXT@@E@Z 0000000140134e6c f   libvcruntime:risctrnsctrl.obj
 0001:00133f70       ?UnwindNestedFrames@__FrameHandler4@@SAXPEA_KPEAUEHExceptionRecord@@PEAU_CONTEXT@@0PEAXPEAUFuncInfo4@FH4@@HHPEAUHandlerType4@5@PEAU_xDISPATCHER_CONTEXT@@E@Z 0000000140134f70 f   libvcruntime:risctrnsctrl.obj
 0001:00134090       ?setBuffer@TryBlockMap4@FH4@@QEAAXViterator@12@@Z 0000000140135090 f i libvcruntime:risctrnsctrl.obj
 0001:00134254       _CreateFrameInfo           0000000140135254 f   libvcruntime:risctrnsctrl.obj
 0001:00134290       _FindAndUnlinkFrame        0000000140135290 f   libvcruntime:risctrnsctrl.obj
 0001:001342e4       _GetImageBase              00000001401352e4 f   libvcruntime:risctrnsctrl.obj
 0001:001342f8       _GetThrowImageBase         00000001401352f8 f   libvcruntime:risctrnsctrl.obj
 0001:0013430c       _SetImageBase              000000014013530c f   libvcruntime:risctrnsctrl.obj
 0001:00134324       _SetThrowImageBase         0000000140135324 f   libvcruntime:risctrnsctrl.obj
 0001:0013433c       __CxxFrameHandler3         000000014013533c f   libvcruntime:risctrnsctrl.obj
 0001:001343c4       __CxxFrameHandler4         00000001401353c4 f   libvcruntime:risctrnsctrl.obj
 0001:00134490       strstr                     0000000140135490 f   libvcruntime:strstr.obj
 0001:00134678       strchr                     0000000140135678 f   libvcruntime:strchr.obj
 0001:001346f4       strrchr                    00000001401356f4 f   libvcruntime:strrchr.obj
 0001:0013482c       __uncaught_exception       000000014013582c f   libvcruntime:uncaught_exception.obj
 0001:0013484c       __DestructExceptionObject  000000014013584c f   libvcruntime:ehhelpers.obj
 0001:001348bc       ?_CallMemberFunction0@@YAXQEAX0@Z 00000001401358bc f i libvcruntime:ehhelpers.obj
 0001:001348c0       _IsExceptionObjectToBeDestroyed 00000001401358c0 f   libvcruntime:ehhelpers.obj
 0001:001348f0       __AdjustPointer            00000001401358f0 f   libvcruntime:ehhelpers.obj
 0001:00134914       __FrameUnwindFilter        0000000140135914 f   libvcruntime:ehhelpers.obj
 0001:0013497c       __current_exception        000000014013597c f   libvcruntime:ehhelpers.obj
 0001:00134990       __current_exception_context 0000000140135990 f   libvcruntime:ehhelpers.obj
 0001:001349a4       __std_terminate            00000001401359a4 f   libvcruntime:ehhelpers.obj
 0001:001349b0       __vcrt_initialize          00000001401359b0 f   libvcruntime:initialization.obj
 0001:001349d8       __vcrt_uninitialize        00000001401359d8 f   libvcruntime:initialization.obj
 0001:001349f4       __C_specific_handler       00000001401359f4 f   libvcruntime:riscchandler.obj
 0001:00134c0c       __std_type_info_compare    0000000140135c0c f   libvcruntime:std_type_info.obj
 0001:00134c34       __vcrt_freefls             0000000140135c34 f   libvcruntime:per_thread_data.obj
 0001:00134c54       __vcrt_getptd              0000000140135c54 f   libvcruntime:per_thread_data.obj
 0001:00134c70       __vcrt_getptd_noexit       0000000140135c70 f   libvcruntime:per_thread_data.obj
 0001:00134d30       __vcrt_getptd_noinit       0000000140135d30 f   libvcruntime:per_thread_data.obj
 0001:00134d80       __vcrt_initialize_ptd      0000000140135d80 f   libvcruntime:per_thread_data.obj
 0001:00134dc8       __vcrt_uninitialize_ptd    0000000140135dc8 f   libvcruntime:per_thread_data.obj
 0001:00134dec       ?GetCurrentState@__FrameHandler3@@SAHPEA_KPEAU_xDISPATCHER_CONTEXT@@PEBU_s_FuncInfo@@@Z 0000000140135dec f   libvcruntime:ehstate.obj
 0001:00134e14       ?GetUnwindTryBlock@__FrameHandler3@@SAHPEA_KPEAU_xDISPATCHER_CONTEXT@@PEBU_s_FuncInfo@@@Z 0000000140135e14 f   libvcruntime:ehstate.obj
 0001:00134e40       ?SetState@__FrameHandler3@@SAXPEA_KPEBU_s_FuncInfo@@H@Z 0000000140135e40 f   libvcruntime:ehstate.obj
 0001:00134e4c       ?SetUnwindTryBlock@__FrameHandler3@@SAXPEA_KPEAU_xDISPATCHER_CONTEXT@@PEBU_s_FuncInfo@@H@Z 0000000140135e4c f   libvcruntime:ehstate.obj
 0001:00134e88       ?StateFromControlPc@__FrameHandler3@@SAHPEBU_s_FuncInfo@@PEAU_xDISPATCHER_CONTEXT@@@Z 0000000140135e88 f   libvcruntime:ehstate.obj
 0001:00134e90       ?StateFromControlPc@__FrameHandler4@@SAHPEAUFuncInfo4@FH4@@PEAU_xDISPATCHER_CONTEXT@@@Z 0000000140135e90 f   libvcruntime:ehstate.obj
 0001:00134e98       ?StateFromIp@__FrameHandler3@@SAHPEBU_s_FuncInfo@@PEAU_xDISPATCHER_CONTEXT@@_K@Z 0000000140135e98 f   libvcruntime:ehstate.obj
 0001:00134f00       ?StateFromIp@__FrameHandler4@@SAHPEAUFuncInfo4@FH4@@PEAU_xDISPATCHER_CONTEXT@@_K@Z 0000000140135f00 f   libvcruntime:ehstate.obj
 0001:00136658       ??$TypeMatchHelper@V__FrameHandler3@@@@YAHPEBU_s_HandlerType@@PEBU_s_CatchableType@@PEBU_s_ThrowInfo@@@Z 0000000140137658 f i libvcruntime:frame.obj
 0001:00136798       ??$TypeMatchHelper@V__FrameHandler4@@@@YAHPEAUHandlerType4@FH4@@PEBU_s_CatchableType@@PEBU_s_ThrowInfo@@@Z 0000000140137798 f i libvcruntime:frame.obj
 0001:001368e4       ??$__InternalCxxFrameHandler@V__FrameHandler3@@@@YA?AW4_EXCEPTION_DISPOSITION@@PEAUEHExceptionRecord@@PEA_KPEAU_CONTEXT@@PEAU_xDISPATCHER_CONTEXT@@PEBU_s_FuncInfo@@H1E@Z 00000001401378e4 f i libvcruntime:frame.obj
 0001:00136b1c       ??$__InternalCxxFrameHandler@V__FrameHandler4@@@@YA?AW4_EXCEPTION_DISPOSITION@@PEAUEHExceptionRecord@@PEA_KPEAU_CONTEXT@@PEAU_xDISPATCHER_CONTEXT@@PEAUFuncInfo4@FH4@@H1E@Z 0000000140137b1c f i libvcruntime:frame.obj
 0001:00136db0       ??$__InternalCxxFrameHandlerWrapper@V__FrameHandler3@@@@YA?AW4_EXCEPTION_DISPOSITION@@PEAUEHExceptionRecord@@PEA_KPEAU_CONTEXT@@PEAU_xDISPATCHER_CONTEXT@@PEBU_s_FuncInfo@@H1E@Z 0000000140137db0 f i libvcruntime:frame.obj
 0001:00136db8       ??$__InternalCxxFrameHandlerWrapper@V__FrameHandler4@@@@YA?AW4_EXCEPTION_DISPOSITION@@PEAUEHExceptionRecord@@PEA_KPEAU_CONTEXT@@PEAU_xDISPATCHER_CONTEXT@@PEAUFuncInfo4@FH4@@H1E@Z 0000000140137db8 f i libvcruntime:frame.obj
 0001:00136e04       ??0HandlerMap4@FH4@@QEAA@PEBUTryBlockMapEntry4@1@_KH@Z 0000000140137e04 f i libvcruntime:frame.obj
 0001:00136e88       ??0TryBlockMap4@FH4@@QEAA@PEBUFuncInfo4@1@_K@Z 0000000140137e88 f i libvcruntime:frame.obj
 0001:00136f6c       ??0bad_exception@std@@QEAA@AEBV01@@Z 0000000140137f6c f i libvcruntime:frame.obj
 0001:00136fa8       ??0bad_exception@std@@QEAA@XZ 0000000140137fa8 f i libvcruntime:frame.obj
 0001:00136fc8       ?CxxCallCatchBlock@__FrameHandler3@@SAPEAXPEAU_EXCEPTION_RECORD@@@Z 0000000140137fc8 f   libvcruntime:frame.obj
 0001:001371b4       ?CxxCallCatchBlock@__FrameHandler4@@SAPEAXPEAU_EXCEPTION_RECORD@@@Z 00000001401381b4 f   libvcruntime:frame.obj
 0001:00137404       ?DecompHandler@HandlerMap4@FH4@@AEAAXXZ 0000000140138404 f i libvcruntime:frame.obj
 0001:0013764c       ?FrameUnwindToState@__FrameHandler3@@SAXPEA_KPEAU_xDISPATCHER_CONTEXT@@PEBU_s_FuncInfo@@H@Z 000000014013864c f   libvcruntime:frame.obj
 0001:001377d8       ?FrameUnwindToState@__FrameHandler4@@SAXPEA_KPEAU_xDISPATCHER_CONTEXT@@PEAUFuncInfo4@FH4@@H@Z 00000001401387d8 f   libvcruntime:frame.obj
 0001:00137ae0       ?GetHandlerSearchState@__FrameHandler3@@SAHPEA_KPEAU_xDISPATCHER_CONTEXT@@PEBU_s_FuncInfo@@@Z 0000000140138ae0 f i libvcruntime:frame.obj
 0001:00137cf0       ?ReadEntry@UWMap4@FH4@@AEAAXPEAPEAE@Z 0000000140138cf0 f i libvcruntime:frame.obj
 0001:00137d8c       ?_CallMemberFunction1@@YAXQEAX00@Z 0000000140138d8c f i libvcruntime:frame.obj
 0001:00137d98       ?_CallMemberFunction2@@YAXQEAX00H@Z 0000000140138d98 f i libvcruntime:frame.obj
 0001:00137da8       ?getStartStop@UWMap4@FH4@@QEAAXHHAEAViterator@12@0@Z 0000000140138da8 f i libvcruntime:frame.obj
 0001:00137e78       ?getStateFromIterators@UWMap4@FH4@@SAHAEBViterator@12@H0H0@Z 0000000140138e78 f i libvcruntime:frame.obj
 0001:00137f28       __vcrt_initialize_locks    0000000140138f28 f   libvcruntime:locks.obj
 0001:00137f70       __vcrt_uninitialize_locks  0000000140138f70 f   libvcruntime:locks.obj
 0001:00137fe0       _NLG_Notify                0000000140138fe0 f   libvcruntime:notify.obj
 0001:00138000       __NLG_Dispatch2            0000000140139000 f   libvcruntime:notify.obj
 0001:00138010       __NLG_Return2              0000000140139010 f   libvcruntime:notify.obj
 0001:00138014       __except_validate_context_record 0000000140139014 f   libvcruntime:jbcxrval.obj
 0001:0013819c       __vcrt_FlsAlloc            000000014013919c f   libvcruntime:winapi_downlevel.obj
 0001:001381e4       __vcrt_FlsFree             00000001401391e4 f   libvcruntime:winapi_downlevel.obj
 0001:0013822c       __vcrt_FlsGetValue         000000014013922c f   libvcruntime:winapi_downlevel.obj
 0001:00138274       __vcrt_FlsSetValue         0000000140139274 f   libvcruntime:winapi_downlevel.obj
 0001:001382c8       __vcrt_InitializeCriticalSectionEx 00000001401392c8 f   libvcruntime:winapi_downlevel.obj
 0001:00138370       _CallSettingFrame          0000000140139370 f   libvcruntime:handlers.obj
 0001:001383b0       _CallSettingFrame_LookupContinuationIndex 00000001401393b0 f   libvcruntime:handlers.obj
 0001:001383e0       _CallSettingFrame_NotifyContinuationAddr 00000001401393e0 f   libvcruntime:handlers.obj
 0001:00138410       _CallSettingFrameEncoded   0000000140139410 f   libvcruntime:handlers.obj
 0001:00138458       ?get_raw_ptd@__crt_cached_ptd_host@@QEAAPEAU__acrt_ptd@@XZ 0000000140139458 f i libucrt:invalid_parameter.obj
 0001:001384c0       ?get_raw_ptd_noexit@__crt_cached_ptd_host@@QEAAPEAU__acrt_ptd@@XZ 00000001401394c0 f i libucrt:invalid_parameter.obj
 0001:0013852c       ?value@?$dual_state_global@P6AXPEB_W00I_K@Z@__crt_state_management@@QEAAAEAP6AXPEB_W00I_K@ZAEAV__crt_cached_ptd_host@@@Z 000000014013952c f i libucrt:invalid_parameter.obj
 0001:00138578       __acrt_call_reportfault    0000000140139578 f   libucrt:invalid_parameter.obj
 0001:001386d4       __acrt_initialize_invalid_parameter_handler 00000001401396d4 f   libucrt:invalid_parameter.obj
 0001:001386dc       _invalid_parameter         00000001401396dc f   libucrt:invalid_parameter.obj
 0001:00138778       _invalid_parameter_internal 0000000140139778 f   libucrt:invalid_parameter.obj
 0001:00138844       _invalid_parameter_noinfo  0000000140139844 f   libucrt:invalid_parameter.obj
 0001:00138864       _invalid_parameter_noinfo_noreturn 0000000140139864 f   libucrt:invalid_parameter.obj
 0001:00138894       _invoke_watson             0000000140139894 f   libucrt:invalid_parameter.obj
 0001:00138acc       ??$ensure_buffer_is_big_enough@D@formatting_buffer@__crt_stdio_output@@QEAA_N_KAEAV__crt_cached_ptd_host@@@Z 0000000140139acc f i libucrt:output.obj
 0001:00138b74       ??$parse_integer@KV?$c_string_character_source@D@__crt_strtox@@$0A@@__crt_strtox@@YAKAEAV__crt_cached_ptd_host@@V?$c_string_character_source@D@0@H_N@Z 0000000140139b74 f i libucrt:output.obj
 0001:00138e28       ??$type_case_integer@$07@?$output_processor@DV?$stream_output_adapter@D@__crt_stdio_output@@V?$standard_base@DV?$stream_output_adapter@D@__crt_stdio_output@@@2@@__crt_stdio_output@@AEAA_N_N@Z 0000000140139e28 f i libucrt:output.obj
 0001:00138e28       ??$type_case_integer@$07@?$output_processor@DV?$string_output_adapter@D@__crt_stdio_output@@V?$format_validation_base@DV?$string_output_adapter@D@__crt_stdio_output@@@2@@__crt_stdio_output@@AEAA_N_N@Z 0000000140139e28 f i libucrt:output.obj
 0001:00138e28       ??$type_case_integer@$07@?$output_processor@DV?$string_output_adapter@D@__crt_stdio_output@@V?$standard_base@DV?$string_output_adapter@D@__crt_stdio_output@@@2@@__crt_stdio_output@@AEAA_N_N@Z 0000000140139e28 f i libucrt:output.obj
 0001:0013902c       ??$type_case_integer@$09@?$output_processor@DV?$stream_output_adapter@D@__crt_stdio_output@@V?$standard_base@DV?$stream_output_adapter@D@__crt_stdio_output@@@2@@__crt_stdio_output@@AEAA_N_N@Z 000000014013a02c f i libucrt:output.obj
 0001:0013902c       ??$type_case_integer@$09@?$output_processor@DV?$string_output_adapter@D@__crt_stdio_output@@V?$format_validation_base@DV?$string_output_adapter@D@__crt_stdio_output@@@2@@__crt_stdio_output@@AEAA_N_N@Z 000000014013a02c f i libucrt:output.obj
 0001:0013902c       ??$type_case_integer@$09@?$output_processor@DV?$string_output_adapter@D@__crt_stdio_output@@V?$standard_base@DV?$string_output_adapter@D@__crt_stdio_output@@@2@@__crt_stdio_output@@AEAA_N_N@Z 000000014013a02c f i libucrt:output.obj
 0001:00139230       ??$type_case_integer@$0BA@@?$output_processor@DV?$stream_output_adapter@D@__crt_stdio_output@@V?$standard_base@DV?$stream_output_adapter@D@__crt_stdio_output@@@2@@__crt_stdio_output@@AEAA_N_N@Z 000000014013a230 f i libucrt:output.obj
 0001:00139230       ??$type_case_integer@$0BA@@?$output_processor@DV?$string_output_adapter@D@__crt_stdio_output@@V?$format_validation_base@DV?$string_output_adapter@D@__crt_stdio_output@@@2@@__crt_stdio_output@@AEAA_N_N@Z 000000014013a230 f i libucrt:output.obj
 0001:00139230       ??$type_case_integer@$0BA@@?$output_processor@DV?$string_output_adapter@D@__crt_stdio_output@@V?$standard_base@DV?$string_output_adapter@D@__crt_stdio_output@@@2@@__crt_stdio_output@@AEAA_N_N@Z 000000014013a230 f i libucrt:output.obj
 0001:00139434       ??$type_case_integer_parse_into_buffer@I$07@?$output_processor@DV?$stream_output_adapter@D@__crt_stdio_output@@V?$standard_base@DV?$stream_output_adapter@D@__crt_stdio_output@@@2@@__crt_stdio_output@@AEAAXI_N@Z 000000014013a434 f i libucrt:output.obj
 0001:00139434       ??$type_case_integer_parse_into_buffer@I$07@?$output_processor@DV?$string_output_adapter@D@__crt_stdio_output@@V?$format_validation_base@DV?$string_output_adapter@D@__crt_stdio_output@@@2@@__crt_stdio_output@@AEAAXI_N@Z 000000014013a434 f i libucrt:output.obj
 0001:00139434       ??$type_case_integer_parse_into_buffer@I$07@?$output_processor@DV?$string_output_adapter@D@__crt_stdio_output@@V?$standard_base@DV?$string_output_adapter@D@__crt_stdio_output@@@2@@__crt_stdio_output@@AEAAXI_N@Z 000000014013a434 f i libucrt:output.obj
 0001:001394a4       ??$type_case_integer_parse_into_buffer@I$09@?$output_processor@DV?$stream_output_adapter@D@__crt_stdio_output@@V?$standard_base@DV?$stream_output_adapter@D@__crt_stdio_output@@@2@@__crt_stdio_output@@AEAAXI_N@Z 000000014013a4a4 f i libucrt:output.obj
 0001:001394a4       ??$type_case_integer_parse_into_buffer@I$09@?$output_processor@DV?$string_output_adapter@D@__crt_stdio_output@@V?$format_validation_base@DV?$string_output_adapter@D@__crt_stdio_output@@@2@@__crt_stdio_output@@AEAAXI_N@Z 000000014013a4a4 f i libucrt:output.obj
 0001:001394a4       ??$type_case_integer_parse_into_buffer@I$09@?$output_processor@DV?$string_output_adapter@D@__crt_stdio_output@@V?$standard_base@DV?$string_output_adapter@D@__crt_stdio_output@@@2@@__crt_stdio_output@@AEAAXI_N@Z 000000014013a4a4 f i libucrt:output.obj
 0001:00139550       ??$type_case_integer_parse_into_buffer@I$0BA@@?$output_processor@DV?$stream_output_adapter@D@__crt_stdio_output@@V?$standard_base@DV?$stream_output_adapter@D@__crt_stdio_output@@@2@@__crt_stdio_output@@AEAAXI_N@Z 000000014013a550 f i libucrt:output.obj
 0001:00139550       ??$type_case_integer_parse_into_buffer@I$0BA@@?$output_processor@DV?$string_output_adapter@D@__crt_stdio_output@@V?$format_validation_base@DV?$string_output_adapter@D@__crt_stdio_output@@@2@@__crt_stdio_output@@AEAAXI_N@Z 000000014013a550 f i libucrt:output.obj
 0001:00139550       ??$type_case_integer_parse_into_buffer@I$0BA@@?$output_processor@DV?$string_output_adapter@D@__crt_stdio_output@@V?$standard_base@DV?$string_output_adapter@D@__crt_stdio_output@@@2@@__crt_stdio_output@@AEAAXI_N@Z 000000014013a550 f i libucrt:output.obj
 0001:001395d4       ??$type_case_integer_parse_into_buffer@_K$07@?$output_processor@DV?$stream_output_adapter@D@__crt_stdio_output@@V?$standard_base@DV?$stream_output_adapter@D@__crt_stdio_output@@@2@@__crt_stdio_output@@AEAAX_K_N@Z 000000014013a5d4 f i libucrt:output.obj
 0001:001395d4       ??$type_case_integer_parse_into_buffer@_K$07@?$output_processor@DV?$string_output_adapter@D@__crt_stdio_output@@V?$format_validation_base@DV?$string_output_adapter@D@__crt_stdio_output@@@2@@__crt_stdio_output@@AEAAX_K_N@Z 000000014013a5d4 f i libucrt:output.obj
 0001:001395d4       ??$type_case_integer_parse_into_buffer@_K$07@?$output_processor@DV?$string_output_adapter@D@__crt_stdio_output@@V?$standard_base@DV?$string_output_adapter@D@__crt_stdio_output@@@2@@__crt_stdio_output@@AEAAX_K_N@Z 000000014013a5d4 f i libucrt:output.obj
 0001:00139644       ??$type_case_integer_parse_into_buffer@_K$09@?$output_processor@DV?$stream_output_adapter@D@__crt_stdio_output@@V?$standard_base@DV?$stream_output_adapter@D@__crt_stdio_output@@@2@@__crt_stdio_output@@AEAAX_K_N@Z 000000014013a644 f i libucrt:output.obj
 0001:00139644       ??$type_case_integer_parse_into_buffer@_K$09@?$output_processor@DV?$string_output_adapter@D@__crt_stdio_output@@V?$format_validation_base@DV?$string_output_adapter@D@__crt_stdio_output@@@2@@__crt_stdio_output@@AEAAX_K_N@Z 000000014013a644 f i libucrt:output.obj
 0001:00139644       ??$type_case_integer_parse_into_buffer@_K$09@?$output_processor@DV?$string_output_adapter@D@__crt_stdio_output@@V?$standard_base@DV?$string_output_adapter@D@__crt_stdio_output@@@2@@__crt_stdio_output@@AEAAX_K_N@Z 000000014013a644 f i libucrt:output.obj
 0001:001396f4       ??$type_case_integer_parse_into_buffer@_K$0BA@@?$output_processor@DV?$stream_output_adapter@D@__crt_stdio_output@@V?$standard_base@DV?$stream_output_adapter@D@__crt_stdio_output@@@2@@__crt_stdio_output@@AEAAX_K_N@Z 000000014013a6f4 f i libucrt:output.obj
 0001:001396f4       ??$type_case_integer_parse_into_buffer@_K$0BA@@?$output_processor@DV?$string_output_adapter@D@__crt_stdio_output@@V?$format_validation_base@DV?$string_output_adapter@D@__crt_stdio_output@@@2@@__crt_stdio_output@@AEAAX_K_N@Z 000000014013a6f4 f i libucrt:output.obj
 0001:001396f4       ??$type_case_integer_parse_into_buffer@_K$0BA@@?$output_processor@DV?$string_output_adapter@D@__crt_stdio_output@@V?$standard_base@DV?$string_output_adapter@D@__crt_stdio_output@@@2@@__crt_stdio_output@@AEAAX_K_N@Z 000000014013a6f4 f i libucrt:output.obj
 0001:00139894       ?crop_zeroes@__crt_stdio_output@@YAXPEADQEAU__crt_locale_pointers@@@Z 000000014013a894 f i libucrt:output.obj
 0001:00139900       ?parse_int_from_format_string@?$output_processor@DV?$stream_output_adapter@D@__crt_stdio_output@@V?$standard_base@DV?$stream_output_adapter@D@__crt_stdio_output@@@2@@__crt_stdio_output@@AEAA_NQEAH@Z 000000014013a900 f i libucrt:output.obj
 0001:00139900       ?parse_int_from_format_string@?$output_processor@DV?$string_output_adapter@D@__crt_stdio_output@@V?$format_validation_base@DV?$string_output_adapter@D@__crt_stdio_output@@@2@@__crt_stdio_output@@AEAA_NQEAH@Z 000000014013a900 f i libucrt:output.obj
 0001:00139900       ?parse_int_from_format_string@?$output_processor@DV?$string_output_adapter@D@__crt_stdio_output@@V?$standard_base@DV?$string_output_adapter@D@__crt_stdio_output@@@2@@__crt_stdio_output@@AEAA_NQEAH@Z 000000014013a900 f i libucrt:output.obj
 0001:00139990       ?process@?$output_processor@DV?$stream_output_adapter@D@__crt_stdio_output@@V?$standard_base@DV?$stream_output_adapter@D@__crt_stdio_output@@@2@@__crt_stdio_output@@QEAAHXZ 000000014013a990 f i libucrt:output.obj
 0001:00139d28       ?process@?$output_processor@DV?$string_output_adapter@D@__crt_stdio_output@@V?$format_validation_base@DV?$string_output_adapter@D@__crt_stdio_output@@@2@@__crt_stdio_output@@QEAAHXZ 000000014013ad28 f i libucrt:output.obj
 0001:0013a0ac       ?process@?$output_processor@DV?$string_output_adapter@D@__crt_stdio_output@@V?$standard_base@DV?$string_output_adapter@D@__crt_stdio_output@@@2@@__crt_stdio_output@@QEAAHXZ 000000014013b0ac f i libucrt:output.obj
 0001:0013a42c       ?state_case_size@?$output_processor@DV?$stream_output_adapter@D@__crt_stdio_output@@V?$standard_base@DV?$stream_output_adapter@D@__crt_stdio_output@@@2@@__crt_stdio_output@@AEAA_NXZ 000000014013b42c f i libucrt:output.obj
 0001:0013a5b4       ?state_case_size@?$output_processor@DV?$string_output_adapter@D@__crt_stdio_output@@V?$format_validation_base@DV?$string_output_adapter@D@__crt_stdio_output@@@2@@__crt_stdio_output@@AEAA_NXZ 000000014013b5b4 f i libucrt:output.obj
 0001:0013a5b4       ?state_case_size@?$output_processor@DV?$string_output_adapter@D@__crt_stdio_output@@V?$standard_base@DV?$string_output_adapter@D@__crt_stdio_output@@@2@@__crt_stdio_output@@AEAA_NXZ 000000014013b5b4 f i libucrt:output.obj
 0001:0013a73c       ?state_case_type@?$output_processor@DV?$stream_output_adapter@D@__crt_stdio_output@@V?$standard_base@DV?$stream_output_adapter@D@__crt_stdio_output@@@2@@__crt_stdio_output@@AEAA_NXZ 000000014013b73c f i libucrt:output.obj
 0001:0013ab74       ?state_case_type@?$output_processor@DV?$string_output_adapter@D@__crt_stdio_output@@V?$format_validation_base@DV?$string_output_adapter@D@__crt_stdio_output@@@2@@__crt_stdio_output@@AEAA_NXZ 000000014013bb74 f i libucrt:output.obj
 0001:0013ab74       ?state_case_type@?$output_processor@DV?$string_output_adapter@D@__crt_stdio_output@@V?$standard_base@DV?$string_output_adapter@D@__crt_stdio_output@@@2@@__crt_stdio_output@@AEAA_NXZ 000000014013bb74 f i libucrt:output.obj
 0001:0013af78       ?type_case_Z@?$output_processor@DV?$stream_output_adapter@D@__crt_stdio_output@@V?$standard_base@DV?$stream_output_adapter@D@__crt_stdio_output@@@2@@__crt_stdio_output@@AEAA_NXZ 000000014013bf78 f i libucrt:output.obj
 0001:0013af78       ?type_case_Z@?$output_processor@DV?$string_output_adapter@D@__crt_stdio_output@@V?$format_validation_base@DV?$string_output_adapter@D@__crt_stdio_output@@@2@@__crt_stdio_output@@AEAA_NXZ 000000014013bf78 f i libucrt:output.obj
 0001:0013af78       ?type_case_Z@?$output_processor@DV?$string_output_adapter@D@__crt_stdio_output@@V?$standard_base@DV?$string_output_adapter@D@__crt_stdio_output@@@2@@__crt_stdio_output@@AEAA_NXZ 000000014013bf78 f i libucrt:output.obj
 0001:0013aff4       ?type_case_a@?$output_processor@DV?$stream_output_adapter@D@__crt_stdio_output@@V?$standard_base@DV?$stream_output_adapter@D@__crt_stdio_output@@@2@@__crt_stdio_output@@AEAA_NXZ 000000014013bff4 f i libucrt:output.obj
 0001:0013aff4       ?type_case_a@?$output_processor@DV?$string_output_adapter@D@__crt_stdio_output@@V?$format_validation_base@DV?$string_output_adapter@D@__crt_stdio_output@@@2@@__crt_stdio_output@@AEAA_NXZ 000000014013bff4 f i libucrt:output.obj
 0001:0013aff4       ?type_case_a@?$output_processor@DV?$string_output_adapter@D@__crt_stdio_output@@V?$standard_base@DV?$string_output_adapter@D@__crt_stdio_output@@@2@@__crt_stdio_output@@AEAA_NXZ 000000014013bff4 f i libucrt:output.obj
 0001:0013b248       ?type_case_c_tchar@?$output_processor@DV?$stream_output_adapter@D@__crt_stdio_output@@V?$standard_base@DV?$stream_output_adapter@D@__crt_stdio_output@@@2@@__crt_stdio_output@@AEAA_ND@Z 000000014013c248 f i libucrt:output.obj
 0001:0013b248       ?type_case_c_tchar@?$output_processor@DV?$string_output_adapter@D@__crt_stdio_output@@V?$format_validation_base@DV?$string_output_adapter@D@__crt_stdio_output@@@2@@__crt_stdio_output@@AEAA_ND@Z 000000014013c248 f i libucrt:output.obj
 0001:0013b248       ?type_case_c_tchar@?$output_processor@DV?$string_output_adapter@D@__crt_stdio_output@@V?$standard_base@DV?$string_output_adapter@D@__crt_stdio_output@@@2@@__crt_stdio_output@@AEAA_ND@Z 000000014013c248 f i libucrt:output.obj
 0001:0013b31c       ?type_case_n@?$output_processor@DV?$stream_output_adapter@D@__crt_stdio_output@@V?$standard_base@DV?$stream_output_adapter@D@__crt_stdio_output@@@2@@__crt_stdio_output@@AEAA_NXZ 000000014013c31c f i libucrt:output.obj
 0001:0013b31c       ?type_case_n@?$output_processor@DV?$string_output_adapter@D@__crt_stdio_output@@V?$format_validation_base@DV?$string_output_adapter@D@__crt_stdio_output@@@2@@__crt_stdio_output@@AEAA_NXZ 000000014013c31c f i libucrt:output.obj
 0001:0013b31c       ?type_case_n@?$output_processor@DV?$string_output_adapter@D@__crt_stdio_output@@V?$standard_base@DV?$string_output_adapter@D@__crt_stdio_output@@@2@@__crt_stdio_output@@AEAA_NXZ 000000014013c31c f i libucrt:output.obj
 0001:0013b3d4       ?type_case_s@?$output_processor@DV?$stream_output_adapter@D@__crt_stdio_output@@V?$standard_base@DV?$stream_output_adapter@D@__crt_stdio_output@@@2@@__crt_stdio_output@@AEAA_NXZ 000000014013c3d4 f i libucrt:output.obj
 0001:0013b3d4       ?type_case_s@?$output_processor@DV?$string_output_adapter@D@__crt_stdio_output@@V?$format_validation_base@DV?$string_output_adapter@D@__crt_stdio_output@@@2@@__crt_stdio_output@@AEAA_NXZ 000000014013c3d4 f i libucrt:output.obj
 0001:0013b3d4       ?type_case_s@?$output_processor@DV?$string_output_adapter@D@__crt_stdio_output@@V?$standard_base@DV?$string_output_adapter@D@__crt_stdio_output@@@2@@__crt_stdio_output@@AEAA_NXZ 000000014013c3d4 f i libucrt:output.obj
 0001:0013b470       ?update_locale_slow@__crt_cached_ptd_host@@AEAAXXZ 000000014013c470 f i libucrt:output.obj
 0001:0013b4e8       ?validate_stream_is_ansi_if_required@?$__acrt_stdio_char_traits@D@@SA_NQEAU_iobuf@@@Z 000000014013c4e8 f i libucrt:output.obj
 0001:0013b584       ?write_string@?$string_output_adapter@D@__crt_stdio_output@@QEBAXQEBDHQEAHAEAV__crt_cached_ptd_host@@@Z 000000014013c584 f i libucrt:output.obj
 0001:0013b628       ?write_string_impl@?$output_adapter_common@DV?$stream_output_adapter@D@__crt_stdio_output@@@__crt_stdio_output@@IEBAXQEBDHQEAHAEAV__crt_cached_ptd_host@@@Z 000000014013c628 f i libucrt:output.obj
 0001:0013b6f4       __stdio_common_vfprintf    000000014013c6f4 f   libucrt:output.obj
 0001:0013b818       __stdio_common_vsprintf    000000014013c818 f   libucrt:output.obj
 0001:0013ba6c       __stdio_common_vsprintf_s  000000014013ca6c f   libucrt:output.obj
 0001:0013bb80       frexp                      000000014013cb80 f   libucrt:frexp.obj
 0001:0013bc78       calloc                     000000014013cc78 f   libucrt:calloc.obj
 0001:0013bc80       free                       000000014013cc80 f   libucrt:free.obj
 0001:0013bd40       strcspn                    000000014013cd40 f   libucrt:strcspn.obj
 0001:0013c110       localeconv                 000000014013d110 f   libucrt:localeconv.obj
 0001:0013c144       _dsign                     000000014013d144 f   libucrt:nan.obj
 0001:0013c15c       acosf                      000000014013d15c f   libucrt:acosf.obj
 0001:0013c390       cosf                       000000014013d390 f   libucrt:cosf.obj
 0001:0013c890       sinf                       000000014013d890 f   libucrt:sinf.obj
 0001:0013cf88       _aligned_free              000000014013df88 f   libucrt:align.obj
 0001:0013cfa4       _aligned_malloc            000000014013dfa4 f   libucrt:align.obj
 0001:0013d024       atan2f                     000000014013e024 f   libucrt:atan2f.obj
 0001:0013d41c       fmodf                      000000014013e41c f   libucrt:fmodf.obj
 0001:0013d668       __acrt_initialize_stdio    000000014013e668 f   libucrt:_file.obj
 0001:0013d788       __acrt_iob_func            000000014013e788 f   libucrt:_file.obj
 0001:0013d79c       __acrt_uninitialize_stdio  000000014013e79c f   libucrt:_file.obj
 0001:0013d7f8       _get_stream_buffer_pointers 000000014013e7f8 f   libucrt:_file.obj
 0001:0013d840       _lock_file                 000000014013e840 f   libucrt:_file.obj
 0001:0013d84c       _unlock_file               000000014013e84c f   libucrt:_file.obj
 0001:0013d97c       fclose                     000000014013e97c f   libucrt:fclose.obj
 0001:0013dc34       __acrt_stdio_flush_nolock  000000014013ec34 f   libucrt:fflush.obj
 0001:0013dcc0       _fflush_nolock             000000014013ecc0 f   libucrt:fflush.obj
 0001:0013dd94       _flushall                  000000014013ed94 f   libucrt:fflush.obj
 0001:0013dd9c       fflush                     000000014013ed9c f   libucrt:fflush.obj
 0001:0013de04       _fgetc_nolock              000000014013ee04 f   libucrt:fgetc.obj
 0001:0013de48       fgetc                      000000014013ee48 f   libucrt:fgetc.obj
 0001:0013df5c       fgetpos                    000000014013ef5c f   libucrt:fgetpos.obj
 0001:0013e110       _fputc_nolock_internal     000000014013f110 f   libucrt:fputc.obj
 0001:0013e128       fputc                      000000014013f128 f   libucrt:fputc.obj
 0001:0013e1c0       _fread_nolock_s            000000014013f1c0 f   libucrt:fread.obj
 0001:0013e420       fread                      000000014013f420 f   libucrt:fread.obj
 0001:0013e440       fread_s                    000000014013f440 f   libucrt:fread.obj
 0001:0013e4e8       fsetpos                    000000014013f4e8 f   libucrt:fsetpos.obj
 0001:0013e790       _fseeki64                  000000014013f790 f   libucrt:fseek.obj
 0001:0013e828       fseek                      000000014013f828 f   libucrt:fseek.obj
 0001:0013e984       _fwrite_internal           000000014013f984 f   libucrt:fwrite.obj
 0001:0013ea20       _fwrite_nolock_internal    000000014013fa20 f   libucrt:fwrite.obj
 0001:0013ec34       fwrite                     000000014013fc34 f   libucrt:fwrite.obj
 0001:0013ee00       setvbuf                    000000014013fe00 f   libucrt:setvbuf.obj
 0001:0013ef38       _ungetc_nolock             000000014013ff38 f   libucrt:ungetc.obj
 0001:0013f058       ungetc                     0000000140140058 f   libucrt:ungetc.obj
 0001:0013f0b0       __acrt_errno_from_os_error 00000001401400b0 f   libucrt:errno.obj
 0001:0013f0f8       __acrt_errno_map_os_error  00000001401400f8 f   libucrt:errno.obj
 0001:0013f140       __acrt_errno_map_os_error_ptd 0000000140140140 f   libucrt:errno.obj
 0001:0013f164       __doserrno                 0000000140140164 f   libucrt:errno.obj
 0001:0013f184       _errno                     0000000140140184 f   libucrt:errno.obj
 0001:0013f1a4       ??0_LocaleUpdate@@QEAA@QEAU__crt_locale_pointers@@@Z 00000001401401a4 f i libucrt:tolower_toupper.obj
 0001:0013f240       ??$__acrt_convert_wcs_mbs_cp@D_WV<lambda_7c9dea7b4ca7285d2cdb541a38da6275>@@U__crt_win32_buffer_internal_dynamic_resizing@@@@YAHQEBDAEAV?$__crt_win32_buffer@_WU__crt_win32_buffer_internal_dynamic_resizing@@@@AEBV<lambda_7c9dea7b4ca7285d2cdb541a38da6275>@@I@Z 0000000140140240 f i libucrt:strftime.obj
 0001:0013f3bc       ??$__acrt_convert_wcs_mbs_cp@_WDV<lambda_f788ae46380686e8b737efdd8c720d07>@@U__crt_win32_buffer_no_resizing@@@@YAHQEB_WAEAV?$__crt_win32_buffer@DU__crt_win32_buffer_no_resizing@@@@AEBV<lambda_f788ae46380686e8b737efdd8c720d07>@@I@Z 00000001401403bc f i libucrt:strftime.obj
 0001:0013f4e0       cos                        00000001401404e0 f   libucrt:cos.obj
 0001:0013fa60       sin                        0000000140140a60 f   libucrt:sin.obj
 0001:0013ffd0       tanf                       0000000140140fd0 f   libucrt:tanf.obj
 0001:00140644       rand                       0000000140141644 f   libucrt:rand.obj
 0001:00140670       ??$is_overflow_condition@_K@__crt_strtox@@YA_NI_K@Z 0000000140141670 f i libucrt:atox.obj
 0001:001406a8       ??$parse_integer@KV?$c_string_character_source@D@__crt_strtox@@$00@__crt_strtox@@YAKAEAV__crt_cached_ptd_host@@V?$c_string_character_source@D@0@H_N@Z 00000001401416a8 f i libucrt:atox.obj
 0001:00140998       ??$parse_integer@KV?$c_string_character_source@_W@__crt_strtox@@$00@__crt_strtox@@YAKAEAV__crt_cached_ptd_host@@V?$c_string_character_source@_W@0@H_N@Z 0000000140141998 f i libucrt:atox.obj
 0001:00141134       ??$parse_integer@_KV?$c_string_character_source@D@__crt_strtox@@$00@__crt_strtox@@YA_KAEAV__crt_cached_ptd_host@@V?$c_string_character_source@D@0@H_N@Z 0000000140142134 f i libucrt:atox.obj
 0001:00141410       _ischartype_l              0000000140142410 f i libucrt:atox.obj
 0001:00141488       _wtol                      0000000140142488 f   libucrt:atox.obj
 0001:00141538       atoi                       0000000140142538 f   libucrt:atox.obj
 0001:00141690       ??$parse_floating_point@V?$c_string_character_source@D@__crt_strtox@@M@__crt_strtox@@YA?AW4SLD_STATUS@@QEAU__crt_locale_pointers@@V?$c_string_character_source@D@0@QEAM@Z 0000000140142690 f i libucrt:strtod.obj
 0001:00141730       ??$parse_floating_point@V?$c_string_character_source@D@__crt_strtox@@N@__crt_strtox@@YA?AW4SLD_STATUS@@QEAU__crt_locale_pointers@@V?$c_string_character_source@D@0@QEAN@Z 0000000140142730 f i libucrt:strtod.obj
 0001:001417d0       ??$parse_floating_point_from_source@V?$c_string_character_source@D@__crt_strtox@@@__crt_strtox@@YA?AW4floating_point_parse_result@0@QEAU__crt_locale_pointers@@AEAV?$c_string_character_source@D@0@AEAUfloating_point_string@0@@Z 00000001401427d0 f i libucrt:strtod.obj
 0001:00141c78       ??$parse_floating_point_possible_infinity@DV?$c_string_character_source@D@__crt_strtox@@PEBD@__crt_strtox@@YA?AW4floating_point_parse_result@0@AEADAEAV?$c_string_character_source@D@0@PEBD@Z 0000000140142c78 f i libucrt:strtod.obj
 0001:00141dbc       ??$parse_floating_point_possible_nan@DV?$c_string_character_source@D@__crt_strtox@@PEBD@__crt_strtox@@YA?AW4floating_point_parse_result@0@AEADAEAV?$c_string_character_source@D@0@PEBD@Z 0000000140142dbc f i libucrt:strtod.obj
 0001:00141fa8       ??$parse_floating_point_possible_nan_is_ind@DV?$c_string_character_source@D@__crt_strtox@@@__crt_strtox@@YA_NAEADAEAV?$c_string_character_source@D@0@@Z 0000000140142fa8 f i libucrt:strtod.obj
 0001:00141ff0       ??$parse_floating_point_possible_nan_is_snan@DV?$c_string_character_source@D@__crt_strtox@@@__crt_strtox@@YA_NAEADAEAV?$c_string_character_source@D@0@@Z 0000000140142ff0 f i libucrt:strtod.obj
 0001:00142038       ??$parse_floating_point_write_result@M@__crt_strtox@@YA?AW4SLD_STATUS@@W4floating_point_parse_result@0@AEBUfloating_point_string@0@QEAM@Z 0000000140143038 f i libucrt:strtod.obj
 0001:001421a8       ??$parse_floating_point_write_result@N@__crt_strtox@@YA?AW4SLD_STATUS@@W4floating_point_parse_result@0@AEBUfloating_point_string@0@QEAN@Z 00000001401431a8 f i libucrt:strtod.obj
 0001:00142388       ?as_double@floating_point_value@__crt_strtox@@QEBAAEANXZ 0000000140143388 f i libucrt:strtod.obj
 0001:001423c4       ?as_float@floating_point_value@__crt_strtox@@QEBAAEAMXZ 00000001401433c4 f i libucrt:strtod.obj
 0001:00142400       ?assemble_floating_point_value@__crt_strtox@@YA?AW4SLD_STATUS@@_KH_N1AEBVfloating_point_value@1@@Z 0000000140143400 f i libucrt:strtod.obj
 0001:001427ac       ?assemble_floating_point_value_from_big_integer@__crt_strtox@@YA?AW4SLD_STATUS@@AEBUbig_integer@1@I_N1AEBVfloating_point_value@1@@Z 00000001401437ac f i libucrt:strtod.obj
 0001:0014290c       ?convert_decimal_string_to_floating_type_common@__crt_strtox@@YA?AW4SLD_STATUS@@AEBUfloating_point_string@1@AEBVfloating_point_value@1@@Z 000000014014390c f i libucrt:strtod.obj
 0001:0014478c       ?convert_hexadecimal_string_to_floating_type_common@__crt_strtox@@YA?AW4SLD_STATUS@@AEBUfloating_point_string@1@AEBVfloating_point_value@1@@Z 000000014014578c f i libucrt:strtod.obj
 0001:00144840       ?divide@__crt_strtox@@YA_KAEAUbig_integer@1@AEBU21@@Z 0000000140145840 f i libucrt:strtod.obj
 0001:00144d64       strtof                     0000000140145d64 f   libucrt:strtod.obj
 0001:00144ef4       _fsopen                    0000000140145ef4 f   libucrt:fopen.obj
 0001:00144efc       _wfopen                    0000000140145efc f   libucrt:fopen.obj
 0001:00144f08       fopen                      0000000140145f08 f   libucrt:fopen.obj
 0001:00144f14       fopen_s                    0000000140145f14 f   libucrt:fopen.obj
 0001:00145030       fputs                      0000000140146030 f   libucrt:fputs.obj
 0001:0014575c       _ftelli64                  000000014014675c f   libucrt:ftell.obj
 0001:001457f8       _ftelli64_nolock_internal  00000001401467f8 f   libucrt:ftell.obj
 0001:00145800       ftell                      0000000140146800 f   libucrt:ftell.obj
 0001:001458a0       pow                        00000001401468a0 f   libucrt:pow.obj
 0001:00146f34       malloc                     0000000140147f34 f   libucrt:malloc.obj
 0001:00146f3c       strtol                     0000000140147f3c f   libucrt:strtox.obj
 0001:00146ff0       strtoul                    0000000140147ff0 f   libucrt:strtox.obj
 0001:001470a4       strtoull                   00000001401480a4 f   libucrt:strtox.obj
 0001:00147158       log2                       0000000140148158 f   libucrt:log2.obj
 0001:00147490       strncpy                    0000000140148490 f   libucrt:strncpy.obj
 0001:001475f4       ??$parse_floating_point@V?$input_adapter_character_source@V?$string_input_adapter@D@__crt_stdio_input@@@__crt_strtox@@M@__crt_strtox@@YA?AW4SLD_STATUS@@QEAU__crt_locale_pointers@@V?$input_adapter_character_source@V?$string_input_adapter@D@__crt_stdio_input@@@0@QEAM@Z 00000001401485f4 f i libucrt:input.obj
 0001:0014769c       ??$parse_floating_point@V?$input_adapter_character_source@V?$string_input_adapter@D@__crt_stdio_input@@@__crt_strtox@@N@__crt_strtox@@YA?AW4SLD_STATUS@@QEAU__crt_locale_pointers@@V?$input_adapter_character_source@V?$string_input_adapter@D@__crt_stdio_input@@@0@QEAN@Z 000000014014869c f i libucrt:input.obj
 0001:00147744       ??$parse_floating_point_from_source@V?$input_adapter_character_source@V?$string_input_adapter@D@__crt_stdio_input@@@__crt_strtox@@@__crt_strtox@@YA?AW4floating_point_parse_result@0@QEAU__crt_locale_pointers@@AEAV?$input_adapter_character_source@V?$string_input_adapter@D@__crt_stdio_input@@@0@AEAUfloating_point_string@0@@Z 0000000140148744 f i libucrt:input.obj
 0001:00147ef0       ??$parse_floating_point_possible_infinity@DV?$input_adapter_character_source@V?$string_input_adapter@D@__crt_stdio_input@@@__crt_strtox@@_K@__crt_strtox@@YA?AW4floating_point_parse_result@0@AEADAEAV?$input_adapter_character_source@V?$string_input_adapter@D@__crt_stdio_input@@@0@_K@Z 0000000140148ef0 f i libucrt:input.obj
 0001:0014809c       ??$parse_floating_point_possible_nan@DV?$input_adapter_character_source@V?$string_input_adapter@D@__crt_stdio_input@@@__crt_strtox@@_K@__crt_strtox@@YA?AW4floating_point_parse_result@0@AEADAEAV?$input_adapter_character_source@V?$string_input_adapter@D@__crt_stdio_input@@@0@_K@Z 000000014014909c f i libucrt:input.obj
 0001:001482fc       ??$parse_floating_point_possible_nan_is_ind@DV?$input_adapter_character_source@V?$string_input_adapter@D@__crt_stdio_input@@@__crt_strtox@@@__crt_strtox@@YA_NAEADAEAV?$input_adapter_character_source@V?$string_input_adapter@D@__crt_stdio_input@@@0@@Z 00000001401492fc f i libucrt:input.obj
 0001:00148378       ??$parse_floating_point_possible_nan_is_snan@DV?$input_adapter_character_source@V?$string_input_adapter@D@__crt_stdio_input@@@__crt_strtox@@@__crt_strtox@@YA_NAEADAEAV?$input_adapter_character_source@V?$string_input_adapter@D@__crt_stdio_input@@@0@@Z 0000000140149378 f i libucrt:input.obj
 0001:001483f4       ??$parse_integer@_KV?$input_adapter_character_source@V?$string_input_adapter@D@__crt_stdio_input@@@__crt_strtox@@$00@__crt_strtox@@YA_KAEAV__crt_cached_ptd_host@@V?$input_adapter_character_source@V?$string_input_adapter@D@__crt_stdio_input@@@0@H_N@Z 00000001401493f4 f i libucrt:input.obj
 0001:00148830       ??$parse_integer@_KV?$input_adapter_character_source@V?$string_input_adapter@D@__crt_stdio_input@@@__crt_strtox@@@__crt_strtox@@YA_KQEAU__crt_locale_pointers@@V?$input_adapter_character_source@V?$string_input_adapter@D@__crt_stdio_input@@@0@H_N@Z 0000000140149830 f i libucrt:input.obj
 0001:00148930       ??$process_floating_point_specifier_t@M@?$input_processor@DV?$string_input_adapter@D@__crt_stdio_input@@@__crt_stdio_input@@AEAA_NXZ 0000000140149930 f i libucrt:input.obj
 0001:001489d8       ??$process_floating_point_specifier_t@N@?$input_processor@DV?$string_input_adapter@D@__crt_stdio_input@@@__crt_stdio_input@@AEAA_NXZ 00000001401499d8 f i libucrt:input.obj
 0001:00148a80       ??$process_string_specifier_tchar@D@?$input_processor@DV?$string_input_adapter@D@__crt_stdio_input@@@__crt_stdio_input@@AEAA_NW4conversion_mode@1@D@Z 0000000140149a80 f i libucrt:input.obj
 0001:00148c34       ??$process_string_specifier_tchar@_W@?$input_processor@DV?$string_input_adapter@D@__crt_stdio_input@@@__crt_stdio_input@@AEAA_NW4conversion_mode@1@_W@Z 0000000140149c34 f i libucrt:input.obj
 0001:00148e14       ??$skip_whitespace@Vstring_input_adapter@__crt_stdio_input@@D@__crt_stdio_input@@YAHAEAV?$string_input_adapter@D@0@QEAU__crt_locale_pointers@@@Z 0000000140149e14 f i libucrt:input.obj
 0001:00148e68       ??R<lambda_1db4d925c2db10274e92824f631ccf5d>@@QEBA@XZ 0000000140149e68 f i libucrt:input.obj
 0001:00148e68       ??R<lambda_bdd123a27a08a14f93fbf44b617d0736>@@QEBA@XZ 0000000140149e68 f i libucrt:input.obj
 0001:00148e68       ??R<lambda_ee7c83d9f0cd4f1299194e0a8d424b67>@@QEBA@XZ 0000000140149e68 f i libucrt:input.obj
 0001:00148ecc       ?advance@?$format_string_parser@D@__crt_stdio_input@@QEAA_NXZ 0000000140149ecc f i libucrt:input.obj
 0001:00149094       ?length@?$format_string_parser@D@__crt_stdio_input@@QEBA_KXZ 000000014014a094 f i libucrt:input.obj
 0001:0014914c       ?process@?$input_processor@DV?$string_input_adapter@D@__crt_stdio_input@@@__crt_stdio_input@@QEAAHXZ 000000014014a14c f i libucrt:input.obj
 0001:00149240       ?process_conversion_specifier@?$input_processor@DV?$string_input_adapter@D@__crt_stdio_input@@@__crt_stdio_input@@AEAA_NXZ 000000014014a240 f i libucrt:input.obj
 0001:00149360       ?process_floating_point_specifier@?$input_processor@DV?$string_input_adapter@D@__crt_stdio_input@@@__crt_stdio_input@@AEAA_NXZ 000000014014a360 f i libucrt:input.obj
 0001:001493d0       ?process_integer_specifier@?$input_processor@DV?$string_input_adapter@D@__crt_stdio_input@@@__crt_stdio_input@@AEAA_NI_N@Z 000000014014a3d0 f i libucrt:input.obj
 0001:00149488       ?process_literal_character_tchar@?$input_processor@DV?$string_input_adapter@D@__crt_stdio_input@@@__crt_stdio_input@@AEAA_ND@Z 000000014014a488 f i libucrt:input.obj
 0001:00149510       ?process_state@?$input_processor@DV?$string_input_adapter@D@__crt_stdio_input@@@__crt_stdio_input@@AEAA_NXZ 000000014014a510 f i libucrt:input.obj
 0001:001495c8       ?process_string_specifier@?$input_processor@DV?$string_input_adapter@D@__crt_stdio_input@@@__crt_stdio_input@@AEAA_NW4conversion_mode@2@@Z 000000014014a5c8 f i libucrt:input.obj
 0001:00149654       ?scan_conversion_specifier@?$format_string_parser@D@__crt_stdio_input@@AEAA_NXZ 000000014014a654 f i libucrt:input.obj
 0001:0014981c       ?scan_optional_field_width@?$format_string_parser@D@__crt_stdio_input@@AEAA_NXZ 000000014014a81c f i libucrt:input.obj
 0001:001498bc       ?scan_optional_length_modifier@?$format_string_parser@D@__crt_stdio_input@@AEAAXXZ 000000014014a8bc f i libucrt:input.obj
 0001:001499e8       ?scan_scanset_range@?$format_string_parser@D@__crt_stdio_input@@AEAA_NXZ 000000014014a9e8 f i libucrt:input.obj
 0001:00149b80       ?write_character@?$input_processor@DV?$string_input_adapter@D@__crt_stdio_input@@@__crt_stdio_input@@AEAA_NQEFA_W_KAEAPEFA_WAEA_KD@Z 000000014014ab80 f i libucrt:input.obj
 0001:00149c18       ?write_integer@?$input_processor@DV?$string_input_adapter@D@__crt_stdio_input@@@__crt_stdio_input@@AEAA_N_K@Z 000000014014ac18 f i libucrt:input.obj
 0001:00149c94       __stdio_common_vsscanf     000000014014ac94 f   libucrt:input.obj
 0001:00149dc0       qsort                      000000014014adc0 f   libucrt:qsort.obj
 0001:0014a1e0       strcmp                     000000014014b1e0 f   libucrt:strcmp.obj
 0001:0014a260       strncmp                    000000014014b260 f   libucrt:strncmp.obj
 0001:0014a354       atof                       000000014014b354 f   libucrt:atof.obj
 0001:0014a360       log                        000000014014b360 f   libucrt:log.obj
 0001:0014a890       logf                       000000014014b890 f   libucrt:logf.obj
 0001:0014ac90       powf                       000000014014bc90 f   libucrt:powf.obj
 0001:0014bfac       _wcstombs_s_l              000000014014cfac f   libucrt:wcstombs.obj
 0001:0014c064       wcstombs                   000000014014d064 f   libucrt:wcstombs.obj
 0001:0014c100       ldexp                      000000014014d100 f   libucrt:ldexp.obj
 0001:0014c26c       realloc                    000000014014d26c f   libucrt:realloc.obj
 0001:0014c274       feof                       000000014014d274 f   libucrt:feoferr.obj
 0001:0014c2a0       ferror                     000000014014d2a0 f   libucrt:feoferr.obj
 0001:0014c390       strspn                     000000014014d390 f   libucrt:strspn.obj
 0001:0014c760       fmaxf                      000000014014d760 f   libucrt:fmaxf.obj
 0001:0014c798       fminf                      000000014014d798 f   libucrt:fminf.obj
 0001:0014c7d0       __acrt_initialize_locks    000000014014d7d0 f   libucrt:locks.obj
 0001:0014c818       __acrt_lock                000000014014d818 f   libucrt:locks.obj
 0001:0014c834       __acrt_uninitialize_locks  000000014014d834 f   libucrt:locks.obj
 0001:0014c86c       __acrt_unlock              000000014014d86c f   libucrt:locks.obj
 0001:0014c888       _lock_locales              000000014014d888 f   libucrt:locks.obj
 0001:0014c8a4       _unlock_locales            000000014014d8a4 f   libucrt:locks.obj
 0001:0014cb90       setlocale                  000000014014db90 f   libucrt:setlocale.obj
 0001:0014cbdc       __pctype_func              000000014014dbdc f   libucrt:ctype.obj
 0001:0014cc10       islower                    000000014014dc10 f   libucrt:_ctype.obj
 0001:0014ccc0       isspace                    000000014014dcc0 f   libucrt:_ctype.obj
 0001:0014cd70       isupper                    000000014014dd70 f   libucrt:_ctype.obj
 0001:0014ce18       ___lc_codepage_func        000000014014de18 f   libucrt:initctype.obj
 0001:0014ce48       ___lc_locale_name_func     000000014014de48 f   libucrt:initctype.obj
 0001:0014ce7c       ___mb_cur_max_func         000000014014de7c f   libucrt:initctype.obj
 0001:0014ceac       __acrt_locale_initialize_ctype 000000014014deac f   libucrt:initctype.obj
 0001:0014d510       _wcsdup                    000000014014e510 f   libucrt:wcsdup.obj
 0001:0014d594       abort                      000000014014e594 f   libucrt:abort.obj
 0001:0014d5ec       __strncnt                  000000014014e5ec f   libucrt:strncnt.obj
 0001:0014d604       strnlen                    000000014014e604 f   libucrt:strnlen.obj
 0001:0014d754       wcsnlen                    000000014014e754 f   libucrt:strnlen.obj
 0001:0014d92c       __acrt_initialize_new_handler 000000014014e92c f   libucrt:new_handler.obj
 0001:0014d934       _callnewh                  000000014014e934 f   libucrt:new_handler.obj
 0001:0014d974       _query_new_handler         000000014014e974 f   libucrt:new_handler.obj
 0001:0014d9ac       _seh_filter_exe            000000014014e9ac f   libucrt:exception_filter.obj
 0001:0014ddc4       __acrt_initialize_thread_local_exit_callback 000000014014edc4 f   libucrt:exit.obj
 0001:0014ddcc       _c_exit                    000000014014edcc f   libucrt:exit.obj
 0001:0014dddc       _cexit                     000000014014eddc f   libucrt:exit.obj
 0001:0014ddec       _exit                      000000014014edec f   libucrt:exit.obj
 0001:0014ddf8       _register_thread_local_exe_atexit_callback 000000014014edf8 f   libucrt:exit.obj
 0001:0014de38       exit                       000000014014ee38 f   libucrt:exit.obj
 0001:0014e00c       __acrt_allocate_buffer_for_argv 000000014014f00c f   libucrt:argv_parsing.obj
 0001:0014e06c       _configure_narrow_argv     000000014014f06c f   libucrt:argv_parsing.obj
 0001:0014e4d4       __dcrt_get_or_create_narrow_environment_nolock 000000014014f4d4 f   libucrt:environment_initialization.obj
 0001:0014e510       __dcrt_uninitialize_environments_nolock 000000014014f510 f   libucrt:environment_initialization.obj
 0001:0014e554       _get_initial_narrow_environment 000000014014f554 f   libucrt:environment_initialization.obj
 0001:0014e5a4       _initialize_narrow_environment 000000014014f5a4 f   libucrt:environment_initialization.obj
 0001:0014e8f4       _crt_atexit                000000014014f8f4 f   libucrt:onexit.obj
 0001:0014e904       _execute_onexit_table      000000014014f904 f   libucrt:onexit.obj
 0001:0014e948       _initialize_onexit_table   000000014014f948 f   libucrt:onexit.obj
 0001:0014e970       _register_onexit_function  000000014014f970 f   libucrt:onexit.obj
 0001:0014eae4       __acrt_initialize          000000014014fae4 f   libucrt:initialization.obj
 0001:0014eaf8       __acrt_uninitialize        000000014014faf8 f   libucrt:initialization.obj
 0001:0014eb30       _query_app_type            000000014014fb30 f   libucrt:report_runtime_error.obj
 0001:0014eb38       _set_app_type              000000014014fb38 f   libucrt:report_runtime_error.obj
 0001:0014eb40       __acrt_has_user_matherr    000000014014fb40 f   libucrt:matherr.obj
 0001:0014eb60       __acrt_initialize_user_matherr 000000014014fb60 f   libucrt:matherr.obj
 0001:0014eb68       __acrt_invoke_user_matherr 000000014014fb68 f   libucrt:matherr.obj
 0001:0014eba4       __setusermatherr           000000014014fba4 f   libucrt:matherr.obj
 0001:0014ebcc       _initterm                  000000014014fbcc f   libucrt:initterm.obj
 0001:0014ec10       _initterm_e                000000014014fc10 f   libucrt:initterm.obj
 0001:0014ec58       _get_fmode                 000000014014fc58 f   libucrt:setmode.obj
 0001:0014ec88       _set_fmode                 000000014014fc88 f   libucrt:setmode.obj
 0001:0014ecc8       _setmode_nolock            000000014014fcc8 f   libucrt:setmode.obj
 0001:0014edac       __acrt_initialize_command_line 000000014014fdac f   libucrt:argv_data.obj
 0001:0014edd4       __p___argc                 000000014014fdd4 f   libucrt:argv_data.obj
 0001:0014eddc       __p___argv                 000000014014fddc f   libucrt:argv_data.obj
 0001:0014f04c       ?commit_locale_name@_expandlocale_locale_name_cache@@QEAAXQEB_W_K@Z 000000014015004c f i libucrt:wsetlocale.obj
 0001:0014f0c4       __acrt_copy_locale_name    00000001401500c4 f   libucrt:wsetlocale.obj
 0001:0014f148       __acrt_set_locale_changed  0000000140150148 f   libucrt:wsetlocale.obj
 0001:0014f154       __acrt_uninitialize_locale 0000000140150154 f   libucrt:wsetlocale.obj
 0001:0014f184       __lc_lctowcs               0000000140150184 f   libucrt:wsetlocale.obj
 0001:0014f228       __lc_wcstolc               0000000140150228 f   libucrt:wsetlocale.obj
 0001:0014f390       _configthreadlocale        0000000140150390 f   libucrt:wsetlocale.obj
